
/home/ist/Documents/MCUXpresso_10.2.1_795/workspace/frdmk66f_lwip_udpecho_bm/Debug/frdmk66f_lwip_udpecho_bm.axf:     file format elf32-littlearm
/home/ist/Documents/MCUXpresso_10.2.1_795/workspace/frdmk66f_lwip_udpecho_bm/Debug/frdmk66f_lwip_udpecho_bm.axf
architecture: arm, flags 0x00000112:
EXEC_P, HAS_SYMS, D_PAGED
start address 0x0000023d

Program Header:
0x70000001 off    0x0002ae98 vaddr 0x0001ae98 paddr 0x0001ae98 align 2**3
         filesz 0x00000008 memsz 0x00000008 flags r--
    LOAD off    0x00010000 vaddr 0x00000000 paddr 0x00000000 align 2**16
         filesz 0x0001aea0 memsz 0x0001aea0 flags r-x
    LOAD off    0x00030000 vaddr 0x20000000 paddr 0x0001aea0 align 2**16
         filesz 0x000000c8 memsz 0x000000c8 flags rw-
    LOAD off    0x00040000 vaddr 0x1fff0000 paddr 0x1fff0000 align 2**16
         filesz 0x00000000 memsz 0x00000048 flags rw-
    LOAD off    0x000300d0 vaddr 0x200000d0 paddr 0x200000d0 align 2**16
         filesz 0x00000000 memsz 0x0000f330 flags rw-
private flags = 5000400: [Version5 EABI] [hard-float ABI]

Sections:
Idx Name          Size      VMA       LMA       File off  Algn
  0 .text         0001ae98  00000000  00000000  00010000  2**3
                  CONTENTS, ALLOC, LOAD, READONLY, CODE
  1 .data         000000c8  20000000  0001aea0  00030000  2**3
                  CONTENTS, ALLOC, LOAD, DATA
  2 .data_RAM2    00000000  1fff0000  1fff0000  000300c8  2**3
                  CONTENTS
  3 .data_RAM3    00000000  14000000  14000000  000300c8  2**3
                  CONTENTS
  4 .bss          0000d330  200000d0  200000d0  000300d0  2**4
                  ALLOC
  5 .bss_RAM2     00000048  1fff0000  1fff0000  00040000  2**4
                  ALLOC
  6 .ARM.exidx    00000008  0001ae98  0001ae98  0002ae98  2**3
                  CONTENTS, ALLOC, LOAD, READONLY, DATA
  7 .uninit_RESERVED 00000000  20000000  20000000  000300c8  2**3
                  CONTENTS
  8 .noinit_RAM2  00000000  1fff0048  1fff0048  000300c8  2**3
                  CONTENTS
  9 .noinit_RAM3  00000000  14000000  14000000  000300c8  2**3
                  CONTENTS
 10 .noinit       00000000  2000d400  2000d400  000300c8  2**3
                  CONTENTS
 11 .heap         00001000  2000d400  2000d400  000300d0  2**3
                  ALLOC
 12 .heap2stackfill 00001000  2000e400  2000e400  000300d0  2**0
                  ALLOC
 13 .stack        00000000  2002f000  2002f000  000300c8  2**3
                  CONTENTS
 14 .debug_info   0005bcf7  00000000  00000000  000300c8  2**0
                  CONTENTS, READONLY, DEBUGGING
 15 .debug_abbrev 0000d070  00000000  00000000  0008bdbf  2**0
                  CONTENTS, READONLY, DEBUGGING
 16 .debug_aranges 00001fa8  00000000  00000000  00098e2f  2**0
                  CONTENTS, READONLY, DEBUGGING
 17 .debug_ranges 000018c8  00000000  00000000  0009add7  2**0
                  CONTENTS, READONLY, DEBUGGING
 18 .debug_line   00012bd7  00000000  00000000  0009c69f  2**0
                  CONTENTS, READONLY, DEBUGGING
 19 .debug_str    0000c750  00000000  00000000  000af276  2**0
                  CONTENTS, READONLY, DEBUGGING
 20 .comment      0000007e  00000000  00000000  000bb9c6  2**0
                  CONTENTS, READONLY
 21 .ARM.attributes 00000037  00000000  00000000  000bba44  2**0
                  CONTENTS, READONLY
 22 .debug_frame  00006500  00000000  00000000  000bba7c  2**2
                  CONTENTS, READONLY, DEBUGGING
 23 .debug_loc    00000079  00000000  00000000  000c1f7c  2**0
                  CONTENTS, READONLY, DEBUGGING
SYMBOL TABLE:
00000000 l    d  .text	00000000 .text
20000000 l    d  .data	00000000 .data
1fff0000 l    d  .data_RAM2	00000000 .data_RAM2
14000000 l    d  .data_RAM3	00000000 .data_RAM3
200000d0 l    d  .bss	00000000 .bss
1fff0000 l    d  .bss_RAM2	00000000 .bss_RAM2
0001ae98 l    d  .ARM.exidx	00000000 .ARM.exidx
20000000 l    d  .uninit_RESERVED	00000000 .uninit_RESERVED
1fff0048 l    d  .noinit_RAM2	00000000 .noinit_RAM2
14000000 l    d  .noinit_RAM3	00000000 .noinit_RAM3
2000d400 l    d  .noinit	00000000 .noinit
2000d400 l    d  .heap	00000000 .heap
2000e400 l    d  .heap2stackfill	00000000 .heap2stackfill
2002f000 l    d  .stack	00000000 .stack
00000000 l    d  .debug_info	00000000 .debug_info
00000000 l    d  .debug_abbrev	00000000 .debug_abbrev
00000000 l    d  .debug_aranges	00000000 .debug_aranges
00000000 l    d  .debug_ranges	00000000 .debug_ranges
00000000 l    d  .debug_line	00000000 .debug_line
00000000 l    d  .debug_str	00000000 .debug_str
00000000 l    d  .comment	00000000 .comment
00000000 l    d  .ARM.attributes	00000000 .ARM.attributes
00000000 l    d  .debug_frame	00000000 .debug_frame
00000000 l    d  .debug_loc	00000000 .debug_loc
00000000 l    df *ABS*	00000000 startup_mk66f18.c
00000000 l    df *ABS*	00000000 fsl_assert.c
00000000 l    df *ABS*	00000000 fsl_debug_console.c
00017f68 l     O .text	00000010 __func__.8511
00000576 l     F .text	00000064 DbgConsole_RelocateLog
00000000 l    df *ABS*	00000000 fsl_io.c
000005da l     F .text	00000040 UART_EnableTx
0000061a l     F .text	00000040 UART_EnableRx
0000065a l     F .text	00000038 LPUART_EnableTx
00000692 l     F .text	00000038 LPUART_EnableRx
200000d0 l     O .bss	00000008 s_debugConsoleIO
00017f9c l     O .text	00000008 __func__.8903
00000000 l    df *ABS*	00000000 fsl_log.c
00017fd4 l     O .text	00000009 __func__.8507
00000a90 l     F .text	00000026 LOG_ReadOneCharacter
00017fe0 l     O .text	0000000d __func__.8517
00017ff0 l     O .text	00000012 __func__.8525
00000000 l    df *ABS*	00000000 fsl_str.c
00000ab6 l     F .text	00000060 ScanIgnoreWhiteSpace
00000b16 l     F .text	00000114 ConvertRadixNumToString
00000000 l    df *ABS*	00000000 lwip_udpecho_bm.c
00000000 l    df *ABS*	00000000 semihost_hardfault.c
000019d6 l       .text	00000000 _MSP
000019da l       .text	00000000 _process
000019e8 l       .text	00000000 _semihost_return
00000000 l    df *ABS*	00000000 auth.c
00000000 l    df *ABS*	00000000 ccp.c
00000000 l    df *ABS*	00000000 chap-md5.c
00000000 l    df *ABS*	00000000 chap-new.c
00000000 l    df *ABS*	00000000 chap_ms.c
00000000 l    df *ABS*	00000000 demand.c
00000000 l    df *ABS*	00000000 eap.c
00000000 l    df *ABS*	00000000 eui64.c
00000000 l    df *ABS*	00000000 fsm.c
00000000 l    df *ABS*	00000000 ipcp.c
00000000 l    df *ABS*	00000000 ipv6cp.c
00000000 l    df *ABS*	00000000 lcp.c
00000000 l    df *ABS*	00000000 lwip_ecp.c
00000000 l    df *ABS*	00000000 magic.c
00000000 l    df *ABS*	00000000 mppe.c
00000000 l    df *ABS*	00000000 multilink.c
00000000 l    df *ABS*	00000000 ppp.c
00000000 l    df *ABS*	00000000 pppapi.c
00000000 l    df *ABS*	00000000 pppcrypt.c
00000000 l    df *ABS*	00000000 pppoe.c
00000000 l    df *ABS*	00000000 pppol2tp.c
00000000 l    df *ABS*	00000000 pppos.c
00000000 l    df *ABS*	00000000 upap.c
00000000 l    df *ABS*	00000000 utils.c
00000000 l    df *ABS*	00000000 vj.c
00000000 l    df *ABS*	00000000 ethernet.c
00000000 l    df *ABS*	00000000 lowpan6.c
00000000 l    df *ABS*	00000000 slipif.c
00000000 l    df *ABS*	00000000 dhcp6.c
00000000 l    df *ABS*	00000000 ethip6.c
00000000 l    df *ABS*	00000000 icmp6.c
00000000 l    df *ABS*	00000000 inet6.c
00000000 l    df *ABS*	00000000 ip6.c
00000000 l    df *ABS*	00000000 ip6_addr.c
00000000 l    df *ABS*	00000000 ip6_frag.c
00000000 l    df *ABS*	00000000 mld6.c
00000000 l    df *ABS*	00000000 nd6.c
00000000 l    df *ABS*	00000000 autoip.c
00000000 l    df *ABS*	00000000 dhcp.c
20000000 l     O .data	00000003 dhcp_discover_request_options
20000100 l     O .bss	00000004 dhcp_pcb
20000104 l     O .bss	00000001 dhcp_pcb_refcount
00001ba0 l     F .text	00000094 dhcp_inc_pcb_refcount
000033cc l     F .text	000001a4 dhcp_recv
00001c34 l     F .text	00000048 dhcp_dec_pcb_refcount
00001c7c l     F .text	00000034 dhcp_handle_nak
00002d08 l     F .text	00000034 dhcp_set_state
000025ac l     F .text	00000118 dhcp_discover
00001cb0 l     F .text	00000068 dhcp_check
00001d18 l     F .text	00000048 dhcp_handle_offer
00001d60 l     F .text	0000014c dhcp_select
00003570 l     F .text	00000290 dhcp_create_msg
00002d3c l     F .text	00000064 dhcp_option
00002de0 l     F .text	00000064 dhcp_option_short
00002e44 l     F .text	0000009c dhcp_option_long
00002da0 l     F .text	00000040 dhcp_option_byte
00003864 l     F .text	00000094 dhcp_option_trailer
00003800 l     F .text	00000064 dhcp_delete_msg
000020a6 l     F .text	00000064 dhcp_t2_timeout
0000204a l     F .text	0000005c dhcp_t1_timeout
00001fb8 l     F .text	00000092 dhcp_timeout
000026c4 l     F .text	0000019c dhcp_bind
00002a78 l     F .text	00000128 dhcp_reboot
0000296c l     F .text	0000010c dhcp_rebind
0000210c l     F .text	000000c0 dhcp_handle_ack
000024d8 l     F .text	000000d4 dhcp_decline
00002ee0 l     F .text	000004ec dhcp_parse_reply
20000004 l     O .data	00000004 xid.9533
00000000 l    df *ABS*	00000000 etharp.c
20000108 l     O .bss	000000f0 arp_table
200001f8 l     O .bss	00000001 etharp_cached_entry
00003944 l     F .text	000000c0 etharp_free_entry
00003b54 l     F .text	00000264 etharp_find_entry
00003db8 l     F .text	0000013c etharp_update_arp_entry
00004710 l     F .text	00000100 etharp_raw
000041bc l     F .text	00000124 etharp_output_to_arp_index
00004810 l     F .text	00000044 etharp_request_dst
00000000 l    df *ABS*	00000000 icmp.c
00004b04 l     F .text	000000d4 icmp_send_response
00000000 l    df *ABS*	00000000 igmp.c
00000000 l    df *ABS*	00000000 ip4.c
200001fa l     O .bss	00000002 ip_id
00000000 l    df *ABS*	00000000 ip4_addr.c
200001fc l     O .bss	00000010 str.8897
00000000 l    df *ABS*	00000000 ip4_frag.c
2000020c l     O .bss	00000004 reassdatagrams
20000210 l     O .bss	00000002 ip_reass_pbufcount
00005714 l     F .text	00000120 ip_reass_free_complete_datagram
0000596c l     F .text	0000004c ip_reass_dequeue_datagram
00005834 l     F .text	000000c4 ip_reass_remove_oldest_datagram
000058f8 l     F .text	00000074 ip_reass_enqueue_new_datagram
000059b8 l     F .text	000002a4 ip_reass_chain_frag_into_datagram_and_validate
00005f14 l     F .text	00000010 ip_frag_alloc_pbuf_custom_ref
00005f24 l     F .text	00000028 ip_frag_free_pbuf_custom_ref
00005f4c l     F .text	00000050 ipfrag_free_pbuf_custom
00000000 l    df *ABS*	00000000 def.c
00000000 l    df *ABS*	00000000 dns.c
00000000 l    df *ABS*	00000000 inet_chksum.c
000064b2 l     F .text	000000d8 inet_cksum_pseudo_base
00006628 l     F .text	00000114 inet_cksum_pseudo_partial_base
00000000 l    df *ABS*	00000000 init.c
00000000 l    df *ABS*	00000000 ip.c
00000000 l    df *ABS*	00000000 mem.c
20005a40 l     O .bss	00000004 ram
20005a44 l     O .bss	00000004 ram_end
20005a48 l     O .bss	00000004 lfree
000068d8 l     F .text	00000108 plug_holes
00000000 l    df *ABS*	00000000 memp.c
20005b10 l     O .bss	00000004 memp_tab_UDP_PCB
200060e0 l     O .bss	00000004 memp_tab_TCP_PCB
200061a8 l     O .bss	00000004 memp_tab_TCP_PCB_LISTEN
20006368 l     O .bss	00000004 memp_tab_TCP_SEG
20006410 l     O .bss	00000004 memp_tab_REASSDATA
20006580 l     O .bss	00000004 memp_tab_FRAG_PBUF
20006628 l     O .bss	00000004 memp_tab_SYS_TIMEOUT
20006720 l     O .bss	00000004 memp_tab_PBUF
20009d04 l     O .bss	00000004 memp_tab_PBUF_POOL
00006f34 l     F .text	00000054 do_memp_malloc_pool
00006ff8 l     F .text	00000048 do_memp_free_pool
00000000 l    df *ABS*	00000000 netif.c
20009d10 l     O .bss	00000001 netif_num
0000743e l     F .text	00000042 netif_issue_reports
00000000 l    df *ABS*	00000000 pbuf.c
00007a08 l     F .text	00000124 pbuf_header_impl
00008064 l     F .text	00000052 pbuf_skip_const
00000000 l    df *ABS*	00000000 raw.c
00000000 l    df *ABS*	00000000 stats.c
00000000 l    df *ABS*	00000000 sys.c
00000000 l    df *ABS*	00000000 tcp.c
00019724 l     O .text	0000002c tcp_state_str
20000008 l     O .data	00000002 tcp_port
00019750 l     O .text	0000000d tcp_backoff
00019760 l     O .text	00000007 tcp_persist_backoff
20009d29 l     O .bss	00000001 tcp_timer
20009d2a l     O .bss	00000001 tcp_timer_ctr
00008528 l     F .text	00000038 tcp_remove_listener
00008560 l     F .text	0000005c tcp_listen_closed
00008684 l     F .text	000001c0 tcp_close_shutdown
00008844 l     F .text	000000c4 tcp_close_shutdown_fin
00008ef4 l     F .text	00000088 tcp_new_port
00008c3c l     F .text	00000020 tcp_accept_null
000098c8 l     F .text	00000084 tcp_kill_prio
0000994c l     F .text	00000084 tcp_kill_state
000099d0 l     F .text	00000060 tcp_kill_timewait
2000000c l     O .data	00000004 iss.9561
00009e30 l     F .text	00000042 tcp_netif_ip_addr_changed_pcblist
00000000 l    df *ABS*	00000000 tcp_in.c
20009d2c l     O .bss	00000014 inseg
20009d40 l     O .bss	00000004 tcphdr
20009d44 l     O .bss	00000002 tcphdr_optlen
20009d46 l     O .bss	00000002 tcphdr_opt1len
20009d48 l     O .bss	00000004 tcphdr_opt2
20009d4c l     O .bss	00000002 tcp_optidx
20009d50 l     O .bss	00000004 seqno
20009d54 l     O .bss	00000004 ackno
20009d58 l     O .bss	00000002 recv_acked
20009d5a l     O .bss	00000002 tcplen
20009d5c l     O .bss	00000001 flags
20009d5d l     O .bss	00000001 recv_flags
20009d60 l     O .bss	00000004 recv_data
0000a8c4 l     F .text	000000d0 tcp_timewait_input
0000a6d4 l     F .text	000001f0 tcp_listen_input
0000a994 l     F .text	0000074c tcp_process
0000a670 l     F .text	00000064 tcp_input_delayed_close
0000baac l     F .text	000000c8 tcp_parseopt
0000b0e0 l     F .text	00000954 tcp_receive
0000ba34 l     F .text	00000078 tcp_getoptbyte
00000000 l    df *ABS*	00000000 tcp_out.c
0000bb94 l     F .text	000000e8 tcp_output_alloc_header
0000bcfc l     F .text	00000108 tcp_create_segment
0000be04 l     F .text	000000b4 tcp_pbuf_prealloc
0000beb8 l     F .text	000000d4 tcp_write_checks
0000ccb8 l     F .text	00000164 tcp_output_segment
00000000 l    df *ABS*	00000000 timeouts.c
20009d68 l     O .bss	00000004 next_timeout
20009d6c l     O .bss	00000004 timeouts_last_time
20009d70 l     O .bss	00000004 tcpip_tcp_timer_active
0000d2d8 l     F .text	00000048 tcpip_tcp_timer
0000d360 l     F .text	0000002c cyclic_timer
00000000 l    df *ABS*	00000000 udp.c
20000010 l     O .data	00000002 udp_port
0000d6ac l     F .text	00000070 udp_new_port
0000d71c l     F .text	00000078 udp_input_local_match
00000000 l    df *ABS*	00000000 api_lib.c
00000000 l    df *ABS*	00000000 api_msg.c
00000000 l    df *ABS*	00000000 err.c
20000014 l     O .data	00000044 err_strerr
00000000 l    df *ABS*	00000000 netbuf.c
00000000 l    df *ABS*	00000000 netdb.c
00000000 l    df *ABS*	00000000 netifapi.c
00000000 l    df *ABS*	00000000 sockets.c
00000000 l    df *ABS*	00000000 tcpip.c
00000000 l    df *ABS*	00000000 ethernetif.c
0000df04 l     F .text	0000001c ENET_ActiveRead
0000df20 l     F .text	00000114 enet_init
0000e034 l     F .text	0000005a low_level_init
0000e090 l     F .text	0000001c enet_get_tx_buffer
20009d78 l     O .bss	000005ee ucBuffer.9308
0000e0ac l     F .text	0000004a enet_send_frame
0000e0f8 l     F .text	000000ac low_level_output
0000e1a4 l     F .text	00000020 enet_get_rx_frame_size
0000e1c4 l     F .text	00000024 enet_read_frame
0000e1e8 l     F .text	00000130 low_level_input
0000e364 l     F .text	00000068 get_enet_base
0000e3cc l     F .text	00000090 ethernetif_init
1fff0000 l     O .bss_RAM2	00000028 rxBuffDescrip_0.9381
1fff0030 l     O .bss_RAM2	00000018 txBuffDescrip_0.9382
2000a368 l     O .bss	00000038 ethernetif_0.9380
2000a3a0 l     O .bss	00001db0 rxDataBuff_0.9383
2000c150 l     O .bss	000011d0 txDataBuff_0.9384
00000000 l    df *ABS*	00000000 sys_arch.c
0000e4a8 l     F .text	00000054 __NVIC_SetPriority
0000e4fc l     F .text	00000044 SysTick_Config
0000e540 l     F .text	00000020 DisableGlobalIRQ
0000e560 l     F .text	0000001e EnableGlobalIRQ
2000d324 l     O .bss	00000004 _rand_value
2000d328 l     O .bss	00000004 time_now
00000000 l    df *ABS*	00000000 udpecho_raw.c
2000d32c l     O .bss	00000004 udpecho_raw_pcb
0000e6b0 l     F .text	0000002e udpecho_raw_recv
00000000 l    df *ABS*	00000000 fsl_clock.c
0000e738 l     F .text	00000034 CLOCK_EnableClock
0000e76c l     F .text	00000038 CLOCK_DisableClock
0000e7a4 l     F .text	00000030 CLOCK_SetEr32kClock
0000e7d4 l     F .text	00000058 CLOCK_SetPllFllSelClock
0000e82c l     F .text	00000040 OSC_SetExtRefClkConfig
0000e86c l     F .text	00000034 OSC_SetCapLoad
20000058 l     O .data	00000004 s_slowIrcFreq
2000005c l     O .data	00000004 s_fastIrcFreq
2000d330 l     O .bss	00000004 s_extPllFreq
0000e8a0 l     F .text	00000026 CLOCK_FllStableDelay
0000e8c8 l     F .text	0000008c CLOCK_GetMcgExtClkFreq
0001a224 l     O .text	00000017 __func__.8486
0000e954 l     F .text	000000d0 CLOCK_GetFllExtRefClkFreq
0000ea24 l     F .text	00000044 CLOCK_GetInternalRefClkSelectFreq
0000ea68 l     F .text	0000002c CLOCK_GetFllRefClkFreq
0000ea94 l     F .text	0000000e CLOCK_GetPll0RefFreq
0000eaa4 l     F .text	0000003c CLOCK_GetOscRangeFromFreq
0001a23c l     O .text	0000001c __func__.8524
0001a258 l     O .text	0000001a __func__.8528
0001a274 l     O .text	00000016 __func__.8536
0001a28c l     O .text	00000018 __func__.8595
0001a2a4 l     O .text	0000001e __func__.8616
0001a2c4 l     O .text	0000001b __func__.8630
0001a2e0 l     O .text	00000010 fllFactorTable.8657
0001a2f0 l     O .text	00000012 __func__.8672
0001a304 l     O .text	00000011 __func__.8723
0001a318 l     O .text	00000010 trimRange.8777
0001a328 l     O .text	00000011 __func__.8875
0001a33c l     O .text	00000014 __func__.8945
0001a1e4 l     O .text	00000040 mcgModeMatrix
00000000 l    df *ABS*	00000000 fsl_common.c
00000000 l    df *ABS*	00000000 fsl_enet.c
00010914 l     F .text	0000003c __NVIC_EnableIRQ
00010950 l     F .text	00000034 CLOCK_EnableClock
00010984 l     F .text	00000038 CLOCK_DisableClock
000109bc l     F .text	0000002c EnableIRQ
000109e8 l     F .text	00000020 ENET_Reset
00010a08 l     F .text	00000026 ENET_GetSMI
00010a2e l     F .text	00000038 ENET_EnableSleepMode
00010a66 l     F .text	00000022 ENET_EnableInterrupts
2000d33c l     O .bss	00000004 s_ENETHandle
0001a354 l     O .text	00000001 s_enetTxIrqId
0001a358 l     O .text	00000001 s_enetRxIrqId
0001a35c l     O .text	00000001 s_enetErrIrqId
0001a360 l     O .text	00000004 s_enetBases
2000d340 l     O .bss	00000004 s_enetTxIsr
2000d344 l     O .bss	00000004 s_enetRxIsr
2000d348 l     O .bss	00000004 s_enetErrIsr
2000d34c l     O .bss	00000004 s_enetTsIsr
0001a4dc l     O .text	00000011 __func__.8744
0001a4f0 l     O .text	00000016 __func__.8748
00011034 l     F .text	000000f0 ENET_SetTxBufferDescriptors
00011124 l     F .text	0000010c ENET_SetRxBufferDescriptors
00010de8 l     F .text	0000024c ENET_SetMacController
00010c94 l     F .text	00000154 ENET_SetHandler
0001a508 l     O .text	0000000a __func__.8757
0001a514 l     O .text	00000011 __func__.8767
0001a528 l     O .text	00000010 __func__.8777
0001a538 l     O .text	0000001c __func__.8800
0001a554 l     O .text	0000001c __func__.8818
00011230 l     F .text	0000004c ENET_ActiveSend
0001a570 l     O .text	00000010 __func__.8835
0001a580 l     O .text	00000010 __func__.8855
0001a590 l     O .text	0000000c __func__.8862
0001a59c l     O .text	0000001d __func__.8885
0001a5bc l     O .text	00000014 __func__.8894
00011884 l     F .text	000000ec ENET_UpdateReadBuffers
0001a5d0 l     O .text	0000000f __func__.8905
0001a5e0 l     O .text	00000017 __func__.8923
0001a5f8 l     O .text	0000000f __func__.8933
0001a608 l     O .text	00000017 __func__.8944
0001a620 l     O .text	00000019 __func__.8959
0001a63c l     O .text	00000018 __func__.8974
0001a654 l     O .text	00000017 __func__.8983
0001a66c l     O .text	00000015 __func__.8992
00000000 l    df *ABS*	00000000 fsl_ftfx_cache.c
0001a684 l     O .text	0000001c s_ftfxCommonBitOperationFunctionCode
2000d350 l     O .bss	00000040 s_ftfxCommonBitOperation
000120fc l     F .text	00000020 ftfx_copy_common_bit_operation_to_ram
00000000 l    df *ABS*	00000000 fsl_ftfx_controller.c
0001a6a0 l     O .text	0000000c s_ftfxRunCommandFunctionCode
2000d390 l     O .bss	00000040 s_ftfxRunCommand
0001a6ac l     O .text	00000004 kFCCOBx
00012bf4 l     F .text	00000020 ftfx_copy_run_command_to_ram
00012b90 l     F .text	00000064 ftfx_init_ifr
00012c70 l     F .text	00000068 ftfx_check_mem_range
00012cd8 l     F .text	00000028 ftfx_check_user_key
00012c14 l     F .text	0000005c ftfx_command_sequence
00012d00 l     F .text	00000058 ftfx_read_word_from_byte_address
00012d58 l     F .text	00000050 ftfx_write_word_to_byte_address
00012da8 l     F .text	000000ba ftfx_check_resource_range
00012e62 l     F .text	0000003a ftfx_check_swap_control_option
00000000 l    df *ABS*	00000000 fsl_ftfx_flash.c
0001a6b0 l     O .text	00000004 kFPROTL
0001a6b4 l     O .text	00000004 kFPROTH
0001a6b8 l     O .text	0000001e kPFlashDensities
00013cf4 l     F .text	00000058 flash_init_features
00013d4c l     F .text	00000058 flash_calculate_mem_size
00013da4 l     F .text	00000034 flash_calculate_prot_segment_size
00013dd8 l     F .text	00000090 flash_check_range_to_get_index
00013e68 l     F .text	00000050 flash_convert_start_address
00013eb8 l     F .text	00000050 flash_validate_swap_indicator_address
00000000 l    df *ABS*	00000000 fsl_ftfx_flexnvm.c
00000000 l    df *ABS*	00000000 fsl_gpio.c
00013f08 l     F .text	00000036 GPIO_PinWrite
00013f3e l     F .text	00000022 GPIO_WritePinOutput
0001a6d8 l     O .text	00000014 s_portBases
0001a6ec l     O .text	00000014 s_gpioBases
00013f60 l     F .text	00000058 GPIO_GetInstance
0001a744 l     O .text	00000011 __func__.8524
0001a758 l     O .text	0000000d __func__.8530
00000000 l    df *ABS*	00000000 fsl_lpuart.c
0001408c l     F .text	0000003c __NVIC_EnableIRQ
000140c8 l     F .text	00000034 CLOCK_EnableClock
000140fc l     F .text	00000038 CLOCK_DisableClock
00014134 l     F .text	0000002c EnableIRQ
0001a768 l     O .text	00000004 s_lpuartBases
2000d3d0 l     O .bss	00000004 s_lpuartHandle
0001a76c l     O .text	00000001 s_lpuartIRQ
0001a770 l     O .text	00000004 s_lpuartClock
2000d3d4 l     O .bss	00000004 s_lpuartIsr
0001a82c l     O .text	00000013 __func__.8701
0001a840 l     O .text	00000025 __func__.8706
00014224 l     F .text	00000050 LPUART_TransferIsRxRingBufferFull
0001a868 l     O .text	00000022 __func__.8712
00014274 l     F .text	00000054 LPUART_WriteNonBlocking
0001a88c l     O .text	00000018 __func__.8719
000142c8 l     F .text	00000054 LPUART_ReadNonBlocking
0001a8a4 l     O .text	00000017 __func__.8729
0001a8bc l     O .text	0000000c __func__.8739
0001a8c8 l     O .text	00000018 __func__.8763
0001a8e0 l     O .text	00000013 __func__.8769
0001a8f4 l     O .text	00000015 __func__.8809
0001a90c l     O .text	00000014 __func__.8821
0001a920 l     O .text	0000001c __func__.8835
0001a93c l     O .text	0000001f __func__.8843
0001a95c l     O .text	0000001e __func__.8848
0001a97c l     O .text	0000001f __func__.8854
0001a99c l     O .text	00000019 __func__.8860
0001a9b8 l     O .text	0000001c __func__.8866
0001a9d4 l     O .text	00000022 __func__.8873
0001a9f8 l     O .text	0000001c __func__.8886
0001aa14 l     O .text	0000001f __func__.8892
0001aa34 l     O .text	00000019 __func__.8897
00000000 l    df *ABS*	00000000 fsl_sim.c
00000000 l    df *ABS*	00000000 fsl_smc.c
00015314 l     F .text	00000020 DisableGlobalIRQ
00015334 l     F .text	0000001e EnableGlobalIRQ
2000d3d8 l     O .bss	00000004 g_savedPrimask
00000000 l    df *ABS*	00000000 fsl_uart.c
00015734 l     F .text	0000003c __NVIC_EnableIRQ
00015770 l     F .text	00000034 CLOCK_EnableClock
000157a4 l     F .text	00000038 CLOCK_DisableClock
000157dc l     F .text	0000002c EnableIRQ
2000d3dc l     O .bss	00000014 s_uartHandle
0001aa54 l     O .text	00000014 s_uartBases
0001aa68 l     O .text	00000005 s_uartIRQ
0001aa70 l     O .text	00000014 s_uartClock
2000d3f0 l     O .bss	00000004 s_uartIsr
0001abb0 l     O .text	00000011 __func__.8685
0001abc4 l     O .text	00000023 __func__.8689
000158d4 l     F .text	0000004c UART_TransferIsRxRingBufferFull
0001abe8 l     O .text	00000020 __func__.8694
0001ac08 l     O .text	0000000a __func__.8701
0001ac14 l     O .text	00000016 __func__.8719
0001ac2c l     O .text	00000011 __func__.8725
00016038 l     F .text	00000054 UART_WriteNonBlocking
0001ac40 l     O .text	00000016 __func__.8769
0001ac58 l     O .text	00000012 __func__.8779
0001612c l     F .text	00000058 UART_ReadNonBlocking
0001ac6c l     O .text	00000015 __func__.8792
0001ac84 l     O .text	0000001a __func__.8803
0001aca0 l     O .text	0000001d __func__.8811
0001acc0 l     O .text	0000001c __func__.8816
0001acdc l     O .text	0000001d __func__.8822
0001acfc l     O .text	00000017 __func__.8828
0001ad14 l     O .text	0000001a __func__.8834
0001ad30 l     O .text	00000020 __func__.8841
0001ad50 l     O .text	0000001a __func__.8854
0001ad6c l     O .text	0000001d __func__.8860
0001ad8c l     O .text	00000017 __func__.8865
00000000 l    df *ABS*	00000000 board.c
00000000 l    df *ABS*	00000000 clock_config.c
00016dd0 l     F .text	00000024 CLOCK_SetSimSafeDivs
00016df4 l     F .text	00000020 CLOCK_SetXtal0Freq
00016e14 l     F .text	0000001e SMC_SetPowerModeProtection
00016e32 l     F .text	0000001a SMC_GetPowerModeState
00016e4c l     F .text	0000003c CLOCK_CONFIG_SetFllExtRefDiv
00000000 l    df *ABS*	00000000 fsl_phy.c
00016fd8 l     F .text	00000034 CLOCK_EnableClock
0001700c l     F .text	0000001a ENET_ReadSMIData
00017026 l     F .text	00000018 ENET_GetInterruptStatus
0001703e l     F .text	0000001c ENET_ClearInterruptStatus
0001ae24 l     O .text	00000009 __func__.8777
0001ae30 l     O .text	00000012 __func__.8796
0001ae44 l     O .text	00000017 __func__.8805
00000000 l    df *ABS*	00000000 peripherals.c
00000000 l    df *ABS*	00000000 pin_mux.c
00017482 l     F .text	00000034 CLOCK_EnableClock
000174b8 l     F .text	00000048 PORT_SetPinConfig
0001ae7c l     O .text	00000012 __func__.8521
00017500 l     F .text	0000003a PORT_SetPinMux
00000000 l    df *ABS*	00000000 system_MK66F18.c
00000000 l    df *ABS*	00000000 _aeabi_uldivmod.o
00000000 l    df *ABS*	00000000 libgcc2.c
00000000 l    df *ABS*	00000000 _dvmd_tls.o
00000000 l    df *ABS*	00000000 malloc.c
00000000 l    df *ABS*	00000000 memcmp.c
00000000 l    df *ABS*	00000000 memcpy-stub.c
00000000 l    df *ABS*	00000000 memset.c
00000000 l    df *ABS*	00000000 nano-mallocr.c
00000000 l    df *ABS*	00000000 nano-mallocr.c
00000000 l    df *ABS*	00000000 sbrkr.c
00000000 l    df *ABS*	00000000 lib_a-strlen.o
00000000 l    df *ABS*	00000000 strncmp.c
00000000 l    df *ABS*	00000000 impure.c
20000068 l     O .data	00000060 impure_data
00000000 l    df *ABS*	00000000 mlock.c
00000000 l    df *ABS*	00000000 _cr_sbrk.c
00000000 l    df *ABS*	00000000 _cr_check_heap.c
00000000 l    df *ABS*	00000000 errno.c
0000f9f0 g     F .text	0000004c CLOCK_SetRtcOscMonitorMode
0000eb80 g     F .text	00000080 CLOCK_GetEr32kClkFreq
00001798  w    F .text	00000008 CAN0_Rx_Warning_IRQHandler
000067f4 g     F .text	00000024 inet_chksum
00015edc g     F .text	0000004c UART_GetEnabledInterrupts
000078dc g     F .text	0000012c pbuf_realloc
00001530  w    F .text	00000008 DMA2_DMA18_IRQHandler
00009db8 g     F .text	00000030 tcp_next_iss
0000f36c g     F .text	0000002c CLOCK_DisableUsbhs0PfdClock
00000400 g       .text	00000000 __FLASH_CONFIG_START__
0001431c g     F .text	000002a4 LPUART_Init
00008dc8 g     F .text	0000008c tcp_update_rcv_ann_wnd
00000000 g     O .text	000001d0 __Vectors
00000294  w    F .text	00000002 DebugMon_Handler
20009d08 g     O .bss	00000004 netif_list
00002220 g     F .text	00000038 dhcp_cleanup
00009708 g     F .text	00000038 tcp_txnow
00011fc8 g     F .text	00000038 FTFx_CACHE_Init
0000ce1c g     F .text	000000f8 tcp_rst
0000fab0 g     F .text	0000004c CLOCK_SetExtPllMonitorMode
00008428 g     F .text	0000006a pbuf_memfind
00013436 g     F .text	00000022 FLASH_VerifyEraseAll
000001d0 g       .text	00000000 __section_table_start
00009e74 g     F .text	00000080 tcp_netif_ip_addr_changed
00011970 g     F .text	000001c0 ENET_SendFrame
000015e0  w    F .text	00000008 I2C0_IRQHandler
00004854 g     F .text	00000024 etharp_request
0000029a  w    F .text	00000002 DMA13_DMA29_DriverIRQHandler
00002258 g     F .text	000000f0 dhcp_start
00011730 g     F .text	00000154 ENET_ReadFrame
00006ea0 g     F .text	0000005e memp_init_pool
00015388 g     F .text	00000030 SMC_PostExitStopModes
000065fa g     F .text	0000002c ip_chksum_pseudo
0001adcc g     O .text	00000008 simConfig_BOARD_BootClockVLPR
00016da8 g     F .text	00000028 BOARD_InitDebugConsole
00009be0 g     F .text	00000034 tcp_err
000133ca g     F .text	0000006c FLASH_VerifyErase
000188bc g     O .text	00000004 ip_addr_any
00012148 g     F .text	0000002c fmc_flash_prefetch_speculation_clear
0000658a g     F .text	00000070 inet_chksum_pseudo
00002414 g     F .text	0000007a dhcp_network_changed
000152a0 g     F .text	00000034 SIM_SetUsbVoltRegulatorEnableMode
0000ddb8 g     F .text	00000064 udp_remove
00014d3c g     F .text	000001c0 LPUART_TransferReceiveNonBlocking
0000029a  w    F .text	00000002 PORTB_DriverIRQHandler
0000f4c8 g     F .text	0000002e CLOCK_GetFixedFreqClkFreq
0001adb8 g     O .text	00000008 oscConfig_BOARD_BootClockHSRUN
000019c8 g     F .text	0000002c HardFault_Handler
0000048a g     F .text	0000000e DbgConsole_Flush
0000da80 g     F .text	00000158 udp_sendto_if_src
00010878 g     F .text	0000006a SDK_Malloc
0000029a  w    F .text	00000002 SPI1_DriverIRQHandler
00000000 g       *ABS*	00000000 __vectors_start__
000132ac g     F .text	0000001e FLASH_EraseAll
00001810  w    F .text	00000008 CAN1_ORed_Message_buffer_IRQHandler
00006360 g     F .text	00000098 lwip_itoa
00007078 g     F .text	00000044 memp_free
00001748  w    F .text	00000008 Reserved85_IRQHandler
00017e76 g     F .text	00000002 __malloc_unlock
00001000 g       *ABS*	00000000 _HeapSize
00014cd0 g     F .text	0000006c LPUART_TransferGetSendCount
00001538  w    F .text	00000008 DMA3_DMA19_IRQHandler
00007b74 g     F .text	0000010c pbuf_free
000006cc g     F .text	000000cc IO_Init
00009b80 g     F .text	00000030 tcp_recv
0000029a  w    F .text	00000002 LPTMR0_DriverIRQHandler
00011b30 g     F .text	000000e4 ENET_AddMulticastGroup
0000029a  w    F .text	00000002 DMA_Error_DriverIRQHandler
00001840 g     F .text	0000000c SysTick_Handler
00018d50 g     O .text	00000010 memp_UDP_PCB
0000e45c g     F .text	0000004c ethernetif0_init
00007cf0 g     F .text	0000008c pbuf_cat
00014940 g     F .text	0000005c LPUART_WriteBlocking
00016758 g     F .text	00000520 UART_TransferHandleIRQ
0001029c g     F .text	00000024 CLOCK_SetBlpeMode
000152d4 g     F .text	00000040 SIM_GetUniqueId
00003ef4 g     F .text	00000060 etharp_cleanup_netif
0000d9b0 g     F .text	00000054 udp_sendto
00001648  w    F .text	00000008 UART3_RX_TX_IRQHandler
1fff0000 g       *ABS*	00000000 __base_RAM2
00000296  w    F .text	00000002 PendSV_Handler
00000288  w    F .text	00000002 NMI_Handler
20000214 g     O .bss	00000018 ip_data
0000029a  w    F .text	00000002 FTM1_DriverIRQHandler
0001aea0 g       .ARM.exidx	00000000 __exidx_end
000052fe g     F .text	0000002a ipaddr_addr
000001f4 g       .text	00000000 __data_section_table_end
0000d0e0 g     F .text	0000009e tcp_keepalive
00012e9c g     F .text	000003a4 FLASH_Init
000070ca g     F .text	00000036 netif_input
00001618  w    F .text	00000008 UART0_RX_TX_IRQHandler
000015e8  w    F .text	00000008 I2C1_IRQHandler
00003a04 g     F .text	00000150 etharp_tmr
000122c8 g     F .text	00000044 FTFx_CMD_EraseAllExecuteOnlySegments
0001050c g     F .text	00000064 CLOCK_BootToBlpiMode
0001ada4 g     O .text	0000000c mcgConfig_BOARD_BootClockHSRUN
00009a30 g     F .text	00000100 tcp_alloc
00001590  w    F .text	00000008 DMA14_DMA30_IRQHandler
00015530 g     F .text	00000030 SMC_SetPowerModeVlpw
00017ecc g     F .text	0000000c __errno
000008ec g     F .text	0000000c LOG_Deinit
0000029a  w    F .text	00000002 FTM2_DriverIRQHandler
0000da04 g     F .text	0000007a udp_sendto_if
00011f5c g     F .text	00000028 ENET_Error_IRQHandler
00009b5c g     F .text	00000022 tcp_arg
00001808  w    F .text	00000008 USBHS_IRQHandler
0000d38c g     F .text	00000050 sys_timeouts_init
0000029a  w    F .text	00000002 PIT2_DriverIRQHandler
0000029a  w    F .text	00000002 TPM2_DriverIRQHandler
00001790  w    F .text	00000008 CAN0_Tx_Warning_IRQHandler
00015260 g     F .text	00000016 LPUART_TransferHandleErrorIRQ
20009d28 g     O .bss	00000001 tcp_active_pcbs_changed
20009d20 g     O .bss	00000004 tcp_active_pcbs
0000029a  w    F .text	00000002 SDHC_DriverIRQHandler
00001540  w    F .text	00000008 DMA4_DMA20_IRQHandler
00016f08 g     F .text	00000070 BOARD_BootClockVLPR
20009d74 g     O .bss	00000004 udp_pcbs
000016a0  w    F .text	00000008 PIT0_IRQHandler
2000d320 g     O .bss	00000004 errno
0000029a  w    F .text	00000002 DMA7_DMA23_DriverIRQHandler
00008938 g     F .text	0000008e tcp_shutdown
000019f4 g     F .text	0000012c ethernet_input
0001aea0 g       .ARM.exidx	00000000 _etext
000126b4 g     F .text	000000e8 FTFx_CMD_ReadResource
0001007c g     F .text	000000d0 CLOCK_SetFbiMode
00007cb0 g     F .text	00000040 pbuf_ref
00001778  w    F .text	00000008 CAN0_ORed_Message_buffer_IRQHandler
0000029a  w    F .text	00000002 I2C3_DriverIRQHandler
000073b0 g     F .text	00000028 netif_set_netmask
00009882 g     F .text	00000044 tcp_recv_null
000103f0 g     F .text	0000006c CLOCK_ExternalModeToFbeModeQuick
00001750  w    F .text	00000008 CMP2_IRQHandler
000155c4 g     F .text	00000084 SMC_SetPowerModeLls
0000409c g     F .text	00000120 etharp_input
00015920 g     F .text	000002f8 UART_Init
00005328 g     F .text	00000270 ip4addr_aton
0001541a g     F .text	00000032 SMC_SetPowerModeHsrun
0000c650 g     F .text	000001c8 tcp_enqueue_flags
000015c8  w    F .text	00000008 LLWU_IRQHandler
0000029a  w    F .text	00000002 I2S0_Tx_DriverIRQHandler
0000029a  w    F .text	00000002 TSI0_DriverIRQHandler
00001740  w    F .text	00000008 Reserved84_IRQHandler
000129c8 g     F .text	000000a8 FTFx_CMD_SecurityBypass
00001550  w    F .text	00000008 DMA6_DMA22_IRQHandler
000133a2 g     F .text	00000028 FLASH_ReadResource
00008908 g     F .text	00000030 tcp_close
00008e54 g     F .text	000000a0 tcp_recved
0000029a  w    F .text	00000002 RTC_Seconds_DriverIRQHandler
000017d8  w    F .text	00000008 TSI0_IRQHandler
00001568  w    F .text	00000008 DMA9_DMA25_IRQHandler
0000ed18 g     F .text	00000028 CLOCK_GetBusClkFreq
00009c7c g     F .text	00000078 tcp_pcb_purge
0000029a  w    F .text	00000002 CMP3_DriverIRQHandler
00001000 g       *ABS*	00000000 _StackSize
000114cc g     F .text	0000004a ENET_StartSMIRead
0000022a g     F .text	00000012 bss_init
0000029a  w    F .text	00000002 LLWU_DriverIRQHandler
00019e84 g     O .text	00000028 lwip_cyclic_timers
00016320 g     F .text	000000c4 UART_TransferSendNonBlocking
00017caa g     F .text	00000016 memcpy
00011f34 g     F .text	00000028 ENET_Receive_IRQHandler
00006a5c g     F .text	000000ac mem_free
00011f84 g     F .text	00000028 ENET_1588_Timer_IRQHandler
00014f50 g     F .text	0000006c LPUART_TransferGetReceiveCount
20009d14 g     O .bss	00000004 tcp_ticks
20009d1c g     O .bss	00000004 tcp_listen_pcbs
0000029a  w    F .text	00000002 MCM_DriverIRQHandler
00014efc g     F .text	00000054 LPUART_TransferAbortReceive
0000cf14 g     F .text	0000007e tcp_rexmit_rto
00001820  w    F .text	00000008 CAN1_Error_IRQHandler
00013bb8 g     F .text	0000013a FLASH_GetProperty
00009b30 g     F .text	00000010 tcp_new
00018d80 g     O .text	00000010 memp_TCP_SEG
0000dd64 g     F .text	0000002e udp_disconnect
00007f88 g     F .text	000000dc pbuf_copy_partial
0000029a  w    F .text	00000002 DMA14_DMA30_DriverIRQHandler
00016430 g     F .text	0000006c UART_TransferGetSendCount
00018d60 g     O .text	00000010 memp_TCP_PCB
00001638  w    F .text	00000008 UART2_RX_TX_IRQHandler
0001796c g     F .text	00000000 .hidden __aeabi_uldivmod
200061ac g     O .bss	000001bb memp_memory_TCP_SEG_base
00012900 g     F .text	000000c8 FTFx_CMD_VerifyProgram
2000d400 g       .noinit	00000000 _noinit
0000d3dc g     F .text	00000138 sys_timeout
0000029a  w    F .text	00000002 MCG_DriverIRQHandler
0000029a  w    F .text	00000002 ENET_1588_Timer_DriverIRQHandler
20000000 g       *ABS*	00000000 __top_SRAM_LOWER
00005224 g     F .text	00000082 ip4_addr_isbroadcast_u32
0000029a  w    F .text	00000002 I2C2_DriverIRQHandler
00015354 g     F .text	00000034 SMC_PreEnterStopModes
20000060 g     O .data	00000004 SystemCoreClock
00002ba0 g     F .text	00000110 dhcp_release
00001560  w    F .text	00000008 DMA8_DMA24_IRQHandler
0001147c g     F .text	00000050 ENET_StartSMIWrite
00006818 g     F .text	00000094 inet_chksum_pbuf
000080dc g     F .text	000000f4 pbuf_take
0001211c g     F .text	0000002c fmc_flash_cache_clear
00001720  w    F .text	00000008 SWI_IRQHandler
00200000 g       *ABS*	00000000 __top_PROGRAM_FLASH
0000029a  w    F .text	00000002 DAC1_DriverIRQHandler
00001658  w    F .text	00000008 ADC0_IRQHandler
00017c6c g     F .text	00000010 malloc
000080b6 g     F .text	00000026 pbuf_skip
00004878 g     F .text	0000024c icmp_input
00000410 g     F .text	00000028 __assert_func
000008f8 g     F .text	0000000e LOG_WaitIdle
00000290  w    F .text	00000002 UsageFault_Handler
20030000 g       *ABS*	00000000 __top_RAM
00007100 g     F .text	000000a8 netif_add
0000980c g     F .text	00000028 tcp_segs_free
00015cd4 g     F .text	00000118 UART_SetBaudRate
00012284 g     F .text	00000044 FTFx_CMD_EraseAll
00001600  w    F .text	00000008 I2S0_Tx_IRQHandler
0000029a  w    F .text	00000002 CMP1_DriverIRQHandler
00016cc8 g     F .text	00000028 UART1_DriverIRQHandler
00010adc g     F .text	0000005c ENET_GetDefaultConfig
00001688  w    F .text	00000008 CMT_IRQHandler
0000f230 g     F .text	00000064 CLOCK_DisableUsbhs0PhyPllClock
0000029a  w    F .text	00000002 USBHSDCD_DriverIRQHandler
00017290 g     F .text	000000e2 PHY_EnableLoopback
00007318 g     F .text	00000070 netif_set_ipaddr
00001730  w    F .text	00000008 UART4_RX_TX_IRQHandler
00018d70 g     O .text	00000010 memp_TCP_PCB_LISTEN
00011358 g     F .text	00000088 ENET_GetMacAddr
000015f8  w    F .text	00000008 SPI1_IRQHandler
0001162c g     F .text	00000104 ENET_GetRxFrameSize
0001799c g     F .text	000002cc .hidden __udivmoddi4
0000029a  w    F .text	00000002 DMA0_DMA16_DriverIRQHandler
00017e20 g     F .text	00000020 _sbrk_r
0000029a  w    F .text	00000002 FTM0_DriverIRQHandler
0000eae0 g     F .text	00000048 CLOCK_GetOsc0ErClkUndivFreq
0000bf8c g     F .text	000006c4 tcp_write
0000029a  w    F .text	00000002 IntDefaultHandler
00000798 g     F .text	00000050 IO_Deinit
0000029a  w    F .text	00000002 USB0_DriverIRQHandler
1fff0000 g       *ABS*	00000000 __base_SRAM_LOWER
00015560 g     F .text	00000064 SMC_SetPowerModeVlps
00003f54 g     F .text	00000098 etharp_find_addr
20000000 g       *ABS*	00000000 __top_RAM2
0000029a  w    F .text	00000002 PORTC_DriverIRQHandler
2000e400 g       .heap	00000000 _pvHeapLimit
0001705c g     F .text	0000012c PHY_Init
00012a70 g     F .text	00000068 FTFx_REG_GetSecurityState
0000029a  w    F .text	00000002 DMA2_DMA18_DriverIRQHandler
00000988 g     F .text	000000b8 LOG_ReadLine
000148c0 g     F .text	00000080 LPUART_ClearStatusFlags
00014bc0 g     F .text	000000c4 LPUART_TransferSendNonBlocking
00008b28 g     F .text	00000114 tcp_bind
00008c80 g     F .text	00000148 tcp_listen_with_backlog_and_err
00004ae4 g     F .text	00000020 icmp_time_exceeded
00008b10 g     F .text	00000018 tcp_abort
000108e2 g     F .text	00000032 SDK_Free
00001668  w    F .text	00000008 CMP1_IRQHandler
000016d8  w    F .text	00000008 Reserved71_IRQHandler
20006724 g     O .bss	000035df memp_memory_PBUF_POOL_base
0000029a  w    F .text	00000002 DAC0_DriverIRQHandler
00001710  w    F .text	00000008 PORTD_IRQHandler
00016674 g     F .text	0000006c UART_TransferAbortReceive
00001700  w    F .text	00000008 PORTB_IRQHandler
00000a40 g     F .text	00000050 LOG_ReadCharacter
0001ae98 g       .text	00000000 __exidx_start
0000fcbc g     F .text	00000138 CLOCK_TrimInternalRefClk
0000029a  w    F .text	00000002 CMP2_DriverIRQHandler
00014830 g     F .text	00000040 LPUART_DisableInterrupts
00001738  w    F .text	00000008 UART4_ERR_IRQHandler
0001ae90 g     O .text	00000004 _global_impure_ptr
0000029a  w    F .text	00000002 UART2_ERR_DriverIRQHandler
00014870 g     F .text	00000034 LPUART_GetEnabledInterrupts
0000029a  w    F .text	00000002 SPI2_DriverIRQHandler
00002cb0 g     F .text	00000058 dhcp_stop
000103b8 g     F .text	00000038 CLOCK_SetPeeMode
000134d2 g     F .text	0000001e FLASH_GetSecurityState
00001b20 g     F .text	00000080 ethernet_output
00014028 g     F .text	00000030 GPIO_PortGetInterruptFlags
0000e580 g     F .text	0000001c sys_assert
00001768  w    F .text	00000008 ADC1_IRQHandler
00017e78 g     F .text	0000003c _sbrk
00007e28 g     F .text	00000160 pbuf_copy
0000cf92 g     F .text	000000a0 tcp_rexmit
000007e8 g     F .text	0000004c IO_WaitIdle
0000029a  w    F .text	00000002 LVD_LVW_DriverIRQHandler
0001469c g     F .text	00000158 LPUART_SetBaudRate
0000029a  w    F .text	00000002 Reserved84_DriverIRQHandler
0000029a  w    F .text	00000002 PIT0_DriverIRQHandler
0000029a  w    F .text	00000002 RNG_DriverIRQHandler
20006414 g     O .bss	0000016b memp_memory_FRAG_PBUF_base
00001770  w    F .text	00000008 I2C2_IRQHandler
000073f8 g     F .text	00000046 netif_set_up
000017e8  w    F .text	00000008 TPM2_IRQHandler
000016b0  w    F .text	00000008 PIT2_IRQHandler
00001608  w    F .text	00000008 I2S0_Rx_IRQHandler
000105f4 g     F .text	00000078 CLOCK_BootToPeeMode
0000ff70 g     F .text	0000010c CLOCK_SetFeeMode
000153f0 g     F .text	0000002a SMC_SetPowerModeRun
00016d28 g     F .text	00000010 UART2_RX_TX_DriverIRQHandler
000001d0 g       .text	00000000 __data_section_table
00011fac g     F .text	0000001c ENET_DriverIRQHandler
000134f0 g     F .text	0000001e FLASH_SecurityBypass
00011c14 g     F .text	000000e8 ENET_LeaveMulticastGroup
0000029a  w    F .text	00000002 USBDCD_DriverIRQHandler
00019768 g     O .text	00000010 tcp_pcb_lists
00018d90 g     O .text	00000010 memp_REASSDATA
00000410 g       .text	00000000 __FLASH_CONFIG_END__
00013240 g     F .text	0000006c FLASH_Erase
00001690  w    F .text	00000008 RTC_IRQHandler
00018db0 g     O .text	00000010 memp_SYS_TIMEOUT
000052a6 g     F .text	00000058 ip4_addr_netmask_valid
00014160 g     F .text	00000054 LPUART_GetInstance
2000d400 g       .bss	00000000 _ebss
0000029a  w    F .text	00000002 UART3_ERR_DriverIRQHandler
000016c0  w    F .text	00000008 PDB0_IRQHandler
00001818  w    F .text	00000008 CAN1_Bus_Off_IRQHandler
0001014c g     F .text	0000012c CLOCK_SetFbeMode
00008620 g     F .text	00000064 tcp_backlog_accepted
00001800  w    F .text	00000008 CMP3_IRQHandler
000132ca g     F .text	0000006c FLASH_Program
00001678  w    F .text	00000008 FTM1_IRQHandler
0001af68 g       *ABS*	00000000 _image_size
0001366c g     F .text	00000318 FLASH_IsProtected
0000029a  w    F .text	00000002 DMA12_DMA28_DriverIRQHandler
00005f9c g     F .text	0000022c ip4_frag
000069e0 g     F .text	0000007c mem_init
0001add4 g     O .text	00000008 oscConfig_BOARD_BootClockVLPR
14000000 g       *ABS*	00000000 __base_RAM3
00013458 g     F .text	0000007a FLASH_VerifyProgram
0000bc7c g     F .text	0000007e tcp_send_fin
0000c8f4 g     F .text	000003c4 tcp_output
00000518 g     F .text	00000046 DbgConsole_Scanf
00013984 g     F .text	00000164 FLASH_IsExecuteOnly
00006b08 g     F .text	000001ac mem_trim
00001650  w    F .text	00000008 UART3_ERR_IRQHandler
00017374 g     F .text	00000068 PHY_GetLinkStatus
000016b8  w    F .text	00000008 PIT3_IRQHandler
00000834 g     F .text	00000088 IO_Transfer
000102c0 g     F .text	000000f8 CLOCK_SetPbeMode
00000908 g     F .text	0000003c LOG_Push
20009d64 g     O .bss	00000004 tcp_input_pcb
0000020c g     F .text	0000001e data_init
00011e60 g     F .text	000000ac ENET_CommonFrame0IRQHandler
0000c818 g     F .text	000000dc tcp_send_empty_ack
0001230c g     F .text	000000cc FTFx_CMD_Program
00014c84 g     F .text	0000004c LPUART_TransferAbortSend
0000d032 g     F .text	000000ae tcp_rexmit_fast
0000eca0 g     F .text	00000028 CLOCK_GetPlatClkFreq
00008302 g     F .text	00000044 pbuf_try_get_at
00016e88 g     F .text	00000080 BOARD_BootClockHSRUN
00001548  w    F .text	00000008 DMA5_DMA21_IRQHandler
00001578  w    F .text	00000008 DMA11_DMA27_IRQHandler
000148a4 g     F .text	0000001c LPUART_GetStatusFlags
000017a8  w    F .text	00000008 SDHC_IRQHandler
000073d8 g     F .text	00000020 netif_set_default
00001698  w    F .text	00000008 RTC_Seconds_IRQHandler
0000dd92 g     F .text	00000024 udp_recv
000085bc g     F .text	00000064 tcp_backlog_delayed
00016f78 g     F .text	00000060 BOARD_BootClockRUN
000016e8  w    F .text	00000008 MCG_IRQHandler
000015b0  w    F .text	00000008 FTFE_IRQHandler
000008bc g     F .text	00000030 LOG_Init
00011dc4 g     F .text	0000009c ENET_ErrorIRQHandler
0000029a  w    F .text	00000002 DMA10_DMA26_DriverIRQHandler
00007480 g     F .text	00000044 netif_set_down
00007544 g     F .text	000002d4 pbuf_alloc
00017188 g     F .text	00000070 PHY_Write
000074c4 g     F .text	0000004c netif_set_link_up
0001127c g     F .text	0000007c ENET_SetMII
0000f080 g     F .text	00000040 CLOCK_DisableUsbhs0Clock
0000055e g     F .text	00000018 DbgConsole_Getchar
0000ec00 g     F .text	00000090 CLOCK_GetPllFllSelClkFreq
00000000 g       *ABS*	00000000 __base_Flash
0000029a  w    F .text	00000002 UART0_ERR_DriverIRQHandler
00000f38 g     F .text	000005e8 StrFormatScanf
00018dc0 g     O .text	00000010 memp_PBUF
0001753c g     F .text	000000e4 BOARD_InitPins
0000029a  w    F .text	00000002 CMT_DriverIRQHandler
0000029a  w    F .text	00000002 Reserved71_DriverIRQHandler
00000944 g     F .text	00000042 LOG_Pop
00001640  w    F .text	00000008 UART2_ERR_IRQHandler
000188c0 g     O .text	00000004 ip_addr_broadcast
000056bc g     F .text	00000058 ip_reass_tmr
0000029a  w    F .text	00000002 ADC1_DriverIRQHandler
00013336 g     F .text	0000006c FLASH_ProgramSection
0000e684 g     F .text	00000016 sys_arch_protect
00017cd0 g     F .text	0000009c _free_r
0000dcb8 g     F .text	000000ac udp_connect
00015c64 g     F .text	00000070 UART_GetDefaultConfig
000051c8 g     F .text	0000005c ip4_output
200000d0 g       .bss	00000000 _bss
00015808 g     F .text	00000060 UART_GetInstance
0001adf0 g     O .text	00000008 oscConfig_BOARD_BootClockRUN
000015b8  w    F .text	00000008 Read_Collision_IRQHandler
00016c78 g     F .text	00000016 UART_TransferHandleErrorIRQ
0000f58c g     F .text	00000020 CLOCK_SetExtPllFreq
000071a8 g     F .text	00000056 netif_set_addr
0000029a  w    F .text	00000002 PORTA_DriverIRQHandler
00002490 g     F .text	00000048 dhcp_arp_reply
0000fafc g     F .text	00000098 CLOCK_GetStatusFlags
00008492 g     F .text	0000005a pbuf_strstr
000081d0 g     F .text	000000a4 pbuf_take_at
0000029a  w    F .text	00000002 DMA1_DMA17_DriverIRQHandler
00006fbc g     F .text	0000003c memp_malloc
0000d17e g     F .text	00000158 tcp_zero_window_probe
0000029a  w    F .text	00000002 PIT3_DriverIRQHandler
00001f54 g     F .text	00000064 dhcp_fine_tmr
200000f8 g     O .bss	00000008 dhcp_rx_options_given
0000f398 g     F .text	00000090 CLOCK_GetOutClkFreq
0000029a  w    F .text	00000002 PIT1_DriverIRQHandler
0000029a  w    F .text	00000002 TPM1_DriverIRQHandler
2000662c g     O .bss	000000f3 memp_memory_PBUF_base
0000029a  w    F .text	00000002 WDOG_EWM_DriverIRQHandler
000061c8 g     F .text	0000001c lwip_htons
00000000 g       *ABS*	00000000 _image_start
00017e50 g     F .text	00000024 strncmp
0001499c g     F .text	000000cc LPUART_ReadBlocking
00200000 g       *ABS*	00000000 __top_Flash
0001045c g     F .text	0000004c CLOCK_InternalModeToFbiModeQuick
00010b38 g     F .text	000000e8 ENET_Init
0000029a  w    F .text	00000002 PDB0_DriverIRQHandler
000141b4 g     F .text	00000070 LPUART_TransferGetRxRingBufferLength
000120a8 g     F .text	00000054 FTFx_CACHE_PflashGetPrefetchSpeculation
0001649c g     F .text	000001d8 UART_TransferReceiveNonBlocking
0000e6e0 g     F .text	00000058 udpecho_raw_init
2000d400 g       .noinit	00000000 _end_noinit
00004f84 g     F .text	00000054 ip4_output_if
000017f0  w    F .text	00000008 USBHSDCD_IRQHandler
20030000 g       .stack	00000000 _vStackTop
00001580  w    F .text	00000008 DMA12_DMA28_IRQHandler
000173dc g     F .text	00000098 PHY_GetLinkSpeedDuplex
20009d18 g     O .bss	00000004 tcp_bound_pcbs
00011f0c g     F .text	00000028 ENET_Transmit_IRQHandler
00009834 g     F .text	00000030 tcp_seg_free
0000f974 g     F .text	0000007c CLOCK_SetOsc0MonitorMode
0000838a g     F .text	0000009e pbuf_memcmp
00012174 g     F .text	00000050 FTFx_API_Init
00018da0 g     O .text	00000010 memp_FRAG_PBUF
000016d0  w    F .text	00000008 USBDCD_IRQHandler
00013ae8 g     F .text	00000074 FLASH_PflashSetProtection
0000029a  w    F .text	00000002 DMA8_DMA24_DriverIRQHandler
000153b8 g     F .text	0000001c SMC_PreEnterWaitModes
0000020c g       .text	00000000 __bss_section_table_end
200060e4 g     O .bss	000000c3 memp_memory_TCP_PCB_LISTEN_base
0001adc0 g     O .text	0000000c mcgConfig_BOARD_BootClockVLPR
000084ec g     F .text	0000000e tcp_init
00008f7c g     F .text	000001d8 tcp_connect
0000673c g     F .text	0000007e inet_chksum_pseudo_partial
00006cb4 g     F .text	000001a8 mem_malloc
00017eb4 g     F .text	00000018 __check_heap_overflow
0000029a  w    F .text	00000002 DMA6_DMA22_DriverIRQHandler
00012888 g     F .text	0000003c FTFx_CMD_VerifyEraseAll
00015c18 g     F .text	0000004c UART_Deinit
2000636c g     O .bss	000000a3 memp_memory_REASSDATA_base
00015f6e g     F .text	0000008c UART_ClearStatusFlags
000162a4 g     F .text	0000007c UART_TransferStopRingBuffer
00017c8c g     F .text	0000001e memcmp
0001547c g     F .text	00000080 SMC_SetPowerModeStop
00007510 g     F .text	00000034 netif_set_link_down
00002860 g     F .text	0000010c dhcp_renew
0000fdf4 g     F .text	000000bc CLOCK_GetMode
00010570 g     F .text	00000084 CLOCK_BootToBlpeMode
0000f294 g     F .text	000000d8 CLOCK_EnableUsbhs0PfdClock
00017c68  w    F .text	00000002 .hidden __aeabi_ldiv0
0000fb94 g     F .text	00000070 CLOCK_ClearStatusFlags
0000f020 g     F .text	00000060 CLOCK_EnableUsbhs0Clock
00016184 g     F .text	00000094 UART_TransferCreateHandle
000147f4 g     F .text	0000003c LPUART_EnableInterrupts
0000029a  w    F .text	00000002 RTC_DriverIRQHandler
00001828  w    F .text	00000008 CAN1_Tx_Warning_IRQHandler
0000029a  w    F .text	00000002 I2S0_Rx_DriverIRQHandler
00004bd8 g     F .text	000000d4 ip4_route
000166e0 g     F .text	00000078 UART_TransferGetReceiveCount
0000029a  w    F .text	00000002 Read_Collision_DriverIRQHandler
00000000 g       *ABS*	00000000 __base_PROGRAM_FLASH
0000029a  w    F .text	00000002 SWI_DriverIRQHandler
000016c8  w    F .text	00000008 USB0_IRQHandler
00016d98 g     F .text	00000010 UART4_RX_TX_DriverIRQHandler
000017f8  w    F .text	00000008 I2C3_IRQHandler
0000d638 g     F .text	00000018 sys_restart_timeouts
00017e74 g     F .text	00000002 __malloc_lock
00015648 g     F .text	000000ec SMC_SetPowerModeVlls
000125e0 g     F .text	000000d4 FTFx_CMD_ReadOnce
0000feb0 g     F .text	000000c0 CLOCK_SetFeiMode
00002348 g     F .text	000000cc dhcp_inform
000104a8 g     F .text	00000026 CLOCK_BootToFeiMode
00015dec g     F .text	00000070 UART_EnableInterrupts
00014af0 g     F .text	00000070 LPUART_TransferStartRingBuffer
000123d8 g     F .text	000000d4 FTFx_CMD_ProgramOnce
00003fec g     F .text	000000b0 etharp_get_entry
00012000 g     F .text	0000002e FTFx_CACHE_ClearCachePrefetchSpeculation
00001728  w    F .text	00000008 SPI2_IRQHandler
0000f4a4 g     F .text	00000024 CLOCK_GetInternalRefClkFreq
0000029a  w    F .text	00000002 UART4_ERR_DriverIRQHandler
0000f890 g     F .text	00000094 CLOCK_EnablePll0
000015d0  w    F .text	00000008 WDOG_EWM_IRQHandler
0001a350 g     O .text	00000004 s_enetClock
00017cc0 g     F .text	00000010 memset
0000028c  w    F .text	00000002 MemManage_Handler
00018dd0 g     O .text	00000010 memp_PBUF_POOL
0000184c g     F .text	0000017c main
00004fd8 g     F .text	000001f0 ip4_output_if_src
00001830  w    F .text	00000008 CAN1_Rx_Warning_IRQHandler
00007b50 g     F .text	00000024 pbuf_header_force
0000f924 g     F .text	00000050 CLOCK_SetPllClkSel
00004ac4 g     F .text	00000020 icmp_dest_unreach
000154fc g     F .text	00000032 SMC_SetPowerModeVlpr
000145c0 g     F .text	0000005c LPUART_Deinit
00009bb0 g     F .text	00000030 tcp_sent
00000292  w    F .text	00000002 SVC_Handler
000082d4 g     F .text	0000002e pbuf_get_at
000061e4 g     F .text	00000032 lwip_htonl
0000e59c g     F .text	00000034 lwip_rand
00001838  w    F .text	00000008 CAN1_Wake_Up_IRQHandler
0000029a  w    F .text	00000002 DMA11_DMA27_DriverIRQHandler
00000001 g       *ABS*	00000000 __ram_vector_table__
0000de4a g     F .text	0000001a udp_new_ip_type
00017d6c g     F .text	000000b4 _malloc_r
0000f4f8 g     F .text	0000007c CLOCK_GetPll0Freq
0000e318 g     F .text	0000004c ethernetif_input
0000ecf0 g     F .text	00000028 CLOCK_GetFlexBusClkFreq
00006f88 g     F .text	00000034 memp_malloc_pool
000063f8 g     F .text	000000ba lwip_standard_chksum
00016d00 g     F .text	00000028 UART2_DriverIRQHandler
0000dec4 g     F .text	00000040 lwip_strerr
0000f5ac g     F .text	0000006c CLOCK_SetExternalRefClkConfig
20005a4c g     O .bss	000000c3 memp_memory_UDP_PCB_base
0000fc04 g     F .text	0000008c CLOCK_InitOsc0
20000000 g       *ABS*	00000000 __base_SRAM_UPPER
00006282 g     F .text	00000068 lwip_stricmp
000128c4 g     F .text	0000003c FTFx_CMD_VerifyEraseAllExecuteOnlySegments
000153d4 g     F .text	0000001c SMC_PostExitWaitModes
14000000 g       *ABS*	00000000 __base_FLEX_RAM
0000dbd8 g     F .text	000000e0 udp_bind
000084fc g     F .text	0000002c tcp_tmr
0000449c g     F .text	00000274 etharp_query
0000d650 g     F .text	0000004c sys_timeouts_sleeptime
000068ac g     F .text	0000002a lwip_init
0000029a  w    F .text	00000002 DMA4_DMA20_DriverIRQHandler
0001608c g     F .text	000000a0 UART_ReadBlocking
000042e0 g     F .text	000001bc etharp_output
0000029a  w    F .text	00000002 DMA9_DMA25_DriverIRQHandler
00010278 g     F .text	00000024 CLOCK_SetBlpiMode
00017620 g     F .text	0000003c SystemInit
000015d8  w    F .text	00000008 RNG_IRQHandler
00015f28 g     F .text	00000046 UART_GetStatusFlags
00012030 g     F .text	00000078 FTFx_CACHE_PflashSetPrefetchSpeculation
000001f4 g       .text	00000000 __bss_section_table
0000de64 g     F .text	00000060 udp_netif_ip_addr_changed
0000ed68 g     F .text	00000150 CLOCK_GetFreq
0000bb74 g     F .text	00000020 tcp_trigger_input_pcb_close
0000029a  w    F .text	00000002 I2C1_DriverIRQHandler
0000f618 g     F .text	00000104 CLOCK_SetInternalRefClkConfig
000017d0  w    F .text	00000008 LPUART0_IRQHandler
0000ec90 g     F .text	0000000e CLOCK_GetOsc0ErClkFreq
0001adb0 g     O .text	00000008 simConfig_BOARD_BootClockHSRUN
00014a68 g     F .text	00000088 LPUART_TransferCreateHandle
00007818 g     F .text	000000c4 pbuf_alloced_custom
0000eefc g     F .text	00000124 CLOCK_EnableUsbfs0Clock
00007388 g     F .text	00000028 netif_set_gw
000104ce g     F .text	0000003c CLOCK_BootToFeeMode
00007c80 g     F .text	0000002e pbuf_clen
00016d60 g     F .text	00000010 UART3_RX_TX_DriverIRQHandler
0000029a  w    F .text	00000002 ENET_Receive_DriverIRQHandler
000016e0  w    F .text	00000008 DAC0_IRQHandler
00001588  w    F .text	00000008 DMA13_DMA29_IRQHandler
00009864 g     F .text	0000001e tcp_setprio
00011518 g     F .text	00000114 ENET_GetRxErrBeforeReadFrame
0000d980 g     F .text	00000030 udp_send
0000029a  w    F .text	00000002 DMA3_DMA19_DriverIRQHandler
00009de8 g     F .text	00000048 tcp_eff_send_mss_impl
00008274 g     F .text	00000060 pbuf_coalesce
00001610  w    F .text	00000008 Reserved46_IRQHandler
00007200 g     F .text	000000a8 netif_remove
0000029a  w    F .text	00000002 ENET_Error_DriverIRQHandler
20000064 g     O .data	00000004 _impure_ptr
0000047c g     F .text	0000000e DbgConsole_Deinit
00009154 g     F .text	000004ec tcp_slowtmr
20000000 g       .uninit_RESERVED	00000000 _end_uninit_RESERVED
00012ad8 g     F .text	000000b8 FTFx_CMD_SwapControl
00011cfc g     F .text	00000064 ENET_TransmitIRQHandler
00016c90 g     F .text	00000028 UART0_DriverIRQHandler
00013b5c g     F .text	0000005c FLASH_PflashGetProtection
00015278 g     F .text	00000028 LPUART0_DriverIRQHandler
20000000 g       .data	00000000 _data
0000e5d0 g     F .text	0000001c time_isr
00009c14 g     F .text	0000002e tcp_accept
2000d400 g       .heap	00000000 _pvHeapStart
00001788  w    F .text	00000008 CAN0_Error_IRQHandler
0000f71c g     F .text	00000174 CLOCK_CalcPllDiv
0000029a  w    F .text	00000002 Reserved85_DriverIRQHandler
0000020c g       .text	00000000 __section_table_end
00016cb8 g     F .text	00000010 UART0_RX_TX_DriverIRQHandler
00000c2a g     F .text	0000030c StrFormatPrintf
0001461c g     F .text	00000080 LPUART_GetDefaultConfig
0000029a  w    F .text	00000002 SPI0_DriverIRQHandler
0000eeb8 g     F .text	00000044 CLOCK_SetSimConfig
000017e0  w    F .text	00000008 TPM1_IRQHandler
000016a8  w    F .text	00000008 PIT1_IRQHandler
00001558  w    F .text	00000008 DMA7_DMA23_IRQHandler
00000438 g     F .text	00000044 DbgConsole_Init
00001620  w    F .text	00000008 UART0_ERR_IRQHandler
0000029a  w    F .text	00000002 ADC0_DriverIRQHandler
20009d24 g     O .bss	00000004 tcp_tw_pcbs
0000fc90 g     F .text	0000002c CLOCK_DeinitOsc0
000015a0  w    F .text	00000008 DMA_Error_IRQHandler
0000e66c g     F .text	00000018 sys_now
0000d794 g     F .text	000001ec udp_input
000015c0  w    F .text	00000008 LVD_LVW_IRQHandler
00010c54 g     F .text	00000040 ENET_SetCallback
200000c8 g       .data	00000000 _edata
0000029a  w    F .text	00000002 USBHS_DriverIRQHandler
00013fb8 g     F .text	00000070 GPIO_PinInit
0001795c  w    F .text	0000000e SystemInitHook
000015f0  w    F .text	00000008 SPI0_IRQHandler
00005598 g     F .text	00000020 ip4addr_ntoa
000055b8 g     F .text	00000104 ip4addr_ntoa_r
00001670  w    F .text	00000008 FTM0_IRQHandler
000070bc g     F .text	0000000e netif_init
000016f8  w    F .text	00000008 PORTA_IRQHandler
0000f428 g     F .text	0000007c CLOCK_GetFllFreq
0000f0c0 g     F .text	00000170 CLOCK_EnableUsbhs0PhyPllClock
0000029a  w    F .text	00000002 CMP0_DriverIRQHandler
0001279c g     F .text	000000ec FTFx_CMD_VerifyErase
00008c5c g     F .text	00000022 tcp_listen_with_backlog
00001760  w    F .text	00000008 DAC1_IRQHandler
00007b2c g     F .text	00000024 pbuf_header
000015a8  w    F .text	00000008 MCM_IRQHandler
20009d0c g     O .bss	00000004 netif_default
00009cf4 g     F .text	000000c4 tcp_pcb_remove
0000029a  w    F .text	00000002 CAN0_DriverIRQHandler
00000400 g     O .text	00000010 Flash_Config
00015868 g     F .text	0000006c UART_TransferGetRxRingBufferLength
00007d7c g     F .text	00000020 pbuf_chain
00017474 g     F .text	0000000e BOARD_InitBootPeripherals
000089c8 g     F .text	00000148 tcp_abandon
14001000 g       *ABS*	00000000 __top_FLEX_RAM
20000000 g       *ABS*	00000000 __base_RAM
00000000 g     O .text	000001d0 g_pfnVectors
00009ef4 g     F .text	00000024 tcp_debug_state_str
0000d320 g     F .text	00000040 tcp_timer_needed
00015e5c g     F .text	00000080 UART_DisableInterrupts
0000023c g     F .text	0000004c ResetISR
0001765c g     F .text	00000300 SystemCoreClockUpdate
0001af68 g       *ABS*	00000000 _image_end
00006f00 g     F .text	00000034 memp_init
000021cc g     F .text	00000054 dhcp_set_struct
000113e0 g     F .text	0000009c ENET_SetSMI
00006e5c g     F .text	00000044 mem_calloc
20030000 g       *ABS*	00000000 __top_SRAM_UPPER
00009640 g     F .text	000000c8 tcp_fasttmr
2000d3fc g     O .bss	00000004 __end_of_heap
00001780  w    F .text	00000008 CAN0_Bus_Off_IRQHandler
00009740 g     F .text	000000cc tcp_process_refused_data
0000029a  w    F .text	00000002 FTM3_DriverIRQHandler
00001758  w    F .text	00000008 FTM3_IRQHandler
0000e69a g     F .text	00000016 sys_arch_unprotect
200000d8 g     O .bss	00000020 dhcp_rx_options_val
00015ffa g     F .text	0000003e UART_WriteBlocking
0000eb28 g     F .text	00000058 CLOCK_GetOsc0ErClkDivFreq
00001718  w    F .text	00000008 PORTE_IRQHandler
000121c4 g     F .text	000000c0 FTFx_CMD_Erase
20005b14 g     O .bss	000005cb memp_memory_TCP_PCB_base
0000029a  w    F .text	00000002 DMA5_DMA21_DriverIRQHandler
2000d338 g     O .bss	00000004 g_xtal32Freq
00017c68  w    F .text	00000002 .hidden __aeabi_idiv0
20006584 g     O .bss	000000a3 memp_memory_SYS_TIMEOUT_base
00001598  w    F .text	00000008 DMA15_DMA31_IRQHandler
000124ac g     F .text	00000134 FTFx_CMD_ProgramSection
00009b40 g     F .text	0000001c tcp_new_ip_type
0000ed40 g     F .text	00000028 CLOCK_GetCoreSysClkFreq
00001680  w    F .text	00000008 FTM2_IRQHandler
00010c20 g     F .text	00000034 ENET_Deinit
000016f0  w    F .text	00000008 LPTMR0_IRQHandler
00001eac g     F .text	000000a8 dhcp_coarse_tmr
14001000 g       *ABS*	00000000 __top_RAM3
00016d38 g     F .text	00000028 UART3_DriverIRQHandler
0001addc g     O .text	0000000c mcgConfig_BOARD_BootClockRUN
0000028e  w    F .text	00000002 BusFault_Handler
0000ecc8 g     F .text	00000028 CLOCK_GetFlashClkFreq
0000029a  w    F .text	00000002 DMA15_DMA31_DriverIRQHandler
0000029a  w    F .text	00000002 UART1_ERR_DriverIRQHandler
00009c44 g     F .text	00000038 tcp_poll
00017e40 g     F .text	00000010 strlen
0000d69c g     F .text	0000000e udp_init
0000029a  w    F .text	00000002 ENET_Transmit_DriverIRQHandler
0000029a  w    F .text	00000002 PORTD_DriverIRQHandler
2000022c g     O .bss	00005813 ram_heap
0000de1c g     F .text	0000002e udp_new
0000029a  w    F .text	00000002 Reserved46_DriverIRQHandler
2000d3f8 g     O .bss	00000004 __malloc_sbrk_start
0000fa3c g     F .text	00000074 CLOCK_SetPll0MonitorMode
000017a0  w    F .text	00000008 CAN0_Wake_Up_IRQHandler
00016218 g     F .text	0000008c UART_TransferStartRingBuffer
000180fc g     O .text	00000006 ethbroadcast
000163e4 g     F .text	0000004c UART_TransferAbortSend
00001570  w    F .text	00000008 DMA10_DMA26_IRQHandler
000171f8 g     F .text	00000098 PHY_Read
00008346 g     F .text	00000044 pbuf_put_at
00016d70 g     F .text	00000028 UART4_DriverIRQHandler
0000029a  w    F .text	00000002 PORTE_DriverIRQHandler
0000029a  w    F .text	00000002 FTFE_DriverIRQHandler
2000d3f4 g     O .bss	00000004 __malloc_free_list
0000029a  w    F .text	00000002 I2C0_DriverIRQHandler
2002f000 g       .stack	00000000 _vStackBase
000004fc g     F .text	0000001c DbgConsole_Putchar
000112f8 g     F .text	0000005e ENET_SetMacAddr
00001630  w    F .text	00000008 UART1_ERR_IRQHandler
0000029a  w    F .text	00000002 CAN1_DriverIRQHandler
00001628  w    F .text	00000008 UART1_RX_TX_IRQHandler
00014b60 g     F .text	00000060 LPUART_TransferStopRingBuffer
00006216 g     F .text	0000006c lwip_strnstr
00001520  w    F .text	00000008 DMA0_DMA16_IRQHandler
00001660  w    F .text	00000008 CMP0_IRQHandler
00007040 g     F .text	00000038 memp_free_pool
00016cf0 g     F .text	00000010 UART1_RX_TX_DriverIRQHandler
00005c5c g     F .text	000002b8 ip4_reass
00010a88 g     F .text	00000054 ENET_GetInstance
0000f574 g     F .text	00000018 CLOCK_GetExtPllFreq
000062ea g     F .text	00000074 lwip_strnicmp
00001708  w    F .text	00000008 PORTC_IRQHandler
0000d514 g     F .text	00000090 sys_untimeout
00018de0 g     O .text	00000024 memp_pools
00009f18 g     F .text	00000758 tcp_input
00004cac g     F .text	000002d8 ip4_input
2000d334 g     O .bss	00000004 g_xtal0Freq
000038f8 g     F .text	0000004c dhcp_supplied_address
00013510 g     F .text	0000015c FLASH_Swap
00001528  w    F .text	00000008 DMA1_DMA17_IRQHandler
00014fbc g     F .text	000002a2 LPUART_TransferHandleIRQ
00011d60 g     F .text	00000064 ENET_ReceiveIRQHandler
00018104 g     O .text	00000006 ethzero
0001066c g     F .text	0000020c CLOCK_SetMcgConfig
0000d5a4 g     F .text	00000094 sys_check_timeouts
00014058 g     F .text	00000034 GPIO_PortClearInterruptFlags
00000498 g     F .text	00000064 DbgConsole_Printf
00017c7c g     F .text	00000010 free
000072a8 g     F .text	00000070 netif_find
0001ade8 g     O .text	00000008 simConfig_BOARD_BootClockRUN
0000e5ec g     F .text	00000080 time_init
000067ba g     F .text	0000003a ip_chksum_pseudo_partial
0001544c g     F .text	00000030 SMC_SetPowerModeWait
00007d9c g     F .text	0000008c pbuf_dechain



Disassembly of section .text:

00000000 <__Vectors>:
       0:	00 00 03 20 3d 02 00 00 89 02 00 00 c9 19 00 00     ... =...........
      10:	8d 02 00 00 8f 02 00 00 91 02 00 00 00 00 00 00     ................
	...
      2c:	93 02 00 00 95 02 00 00 00 00 00 00 97 02 00 00     ................
      3c:	41 18 00 00 21 15 00 00 29 15 00 00 31 15 00 00     A...!...)...1...
      4c:	39 15 00 00 41 15 00 00 49 15 00 00 51 15 00 00     9...A...I...Q...
      5c:	59 15 00 00 61 15 00 00 69 15 00 00 71 15 00 00     Y...a...i...q...
      6c:	79 15 00 00 81 15 00 00 89 15 00 00 91 15 00 00     y...............
      7c:	99 15 00 00 a1 15 00 00 a9 15 00 00 b1 15 00 00     ................
      8c:	b9 15 00 00 c1 15 00 00 c9 15 00 00 d1 15 00 00     ................
      9c:	d9 15 00 00 e1 15 00 00 e9 15 00 00 f1 15 00 00     ................
      ac:	f9 15 00 00 01 16 00 00 09 16 00 00 11 16 00 00     ................
      bc:	19 16 00 00 21 16 00 00 29 16 00 00 31 16 00 00     ....!...)...1...
      cc:	39 16 00 00 41 16 00 00 49 16 00 00 51 16 00 00     9...A...I...Q...
      dc:	59 16 00 00 61 16 00 00 69 16 00 00 71 16 00 00     Y...a...i...q...
      ec:	79 16 00 00 81 16 00 00 89 16 00 00 91 16 00 00     y...............
      fc:	99 16 00 00 a1 16 00 00 a9 16 00 00 b1 16 00 00     ................
     10c:	b9 16 00 00 c1 16 00 00 c9 16 00 00 d1 16 00 00     ................
     11c:	d9 16 00 00 e1 16 00 00 e9 16 00 00 f1 16 00 00     ................
     12c:	f9 16 00 00 01 17 00 00 09 17 00 00 11 17 00 00     ................
     13c:	19 17 00 00 21 17 00 00 29 17 00 00 31 17 00 00     ....!...)...1...
     14c:	39 17 00 00 41 17 00 00 49 17 00 00 51 17 00 00     9...A...I...Q...
     15c:	59 17 00 00 61 17 00 00 69 17 00 00 71 17 00 00     Y...a...i...q...
     16c:	79 17 00 00 81 17 00 00 89 17 00 00 91 17 00 00     y...............
     17c:	99 17 00 00 a1 17 00 00 a9 17 00 00 85 1f 01 00     ................
     18c:	0d 1f 01 00 35 1f 01 00 5d 1f 01 00 d1 17 00 00     ....5...].......
     19c:	d9 17 00 00 e1 17 00 00 e9 17 00 00 f1 17 00 00     ................
     1ac:	f9 17 00 00 01 18 00 00 09 18 00 00 11 18 00 00     ................
     1bc:	19 18 00 00 21 18 00 00 29 18 00 00 31 18 00 00     ....!...)...1...
     1cc:	39 18 00 00                                         9...

000001d0 <__data_section_table>:
     1d0:	0001aea0 	.word	0x0001aea0
     1d4:	20000000 	.word	0x20000000
     1d8:	000000c8 	.word	0x000000c8
     1dc:	0001aea0 	.word	0x0001aea0
     1e0:	1fff0000 	.word	0x1fff0000
     1e4:	00000000 	.word	0x00000000
     1e8:	0001aea0 	.word	0x0001aea0
     1ec:	14000000 	.word	0x14000000
     1f0:	00000000 	.word	0x00000000

000001f4 <__bss_section_table>:
     1f4:	200000d0 	.word	0x200000d0
     1f8:	0000d330 	.word	0x0000d330
     1fc:	1fff0000 	.word	0x1fff0000
     200:	00000048 	.word	0x00000048
     204:	14000000 	.word	0x14000000
     208:	00000000 	.word	0x00000000

0000020c <data_init>:
     20c:	2300      	movs	r3, #0
     20e:	4293      	cmp	r3, r2
     210:	d20a      	bcs.n	228 <data_init+0x1c>
     212:	b410      	push	{r4}
     214:	6804      	ldr	r4, [r0, #0]
     216:	600c      	str	r4, [r1, #0]
     218:	3304      	adds	r3, #4
     21a:	3004      	adds	r0, #4
     21c:	3104      	adds	r1, #4
     21e:	4293      	cmp	r3, r2
     220:	d3f8      	bcc.n	214 <data_init+0x8>
     222:	f85d 4b04 	ldr.w	r4, [sp], #4
     226:	4770      	bx	lr
     228:	4770      	bx	lr

0000022a <bss_init>:
     22a:	2300      	movs	r3, #0
     22c:	e003      	b.n	236 <bss_init+0xc>
     22e:	2200      	movs	r2, #0
     230:	6002      	str	r2, [r0, #0]
     232:	3304      	adds	r3, #4
     234:	3004      	adds	r0, #4
     236:	428b      	cmp	r3, r1
     238:	d3f9      	bcc.n	22e <bss_init+0x4>
     23a:	4770      	bx	lr

0000023c <ResetISR>:
     23c:	b510      	push	{r4, lr}
     23e:	b672      	cpsid	i
     240:	f017 f9ee 	bl	17620 <SystemInit>
     244:	4b0d      	ldr	r3, [pc, #52]	; (27c <ResetISR+0x40>)
     246:	e007      	b.n	258 <ResetISR+0x1c>
     248:	f103 040c 	add.w	r4, r3, #12
     24c:	689a      	ldr	r2, [r3, #8]
     24e:	6859      	ldr	r1, [r3, #4]
     250:	6818      	ldr	r0, [r3, #0]
     252:	f7ff ffdb 	bl	20c <data_init>
     256:	4623      	mov	r3, r4
     258:	4a09      	ldr	r2, [pc, #36]	; (280 <ResetISR+0x44>)
     25a:	4293      	cmp	r3, r2
     25c:	d3f4      	bcc.n	248 <ResetISR+0xc>
     25e:	e006      	b.n	26e <ResetISR+0x32>
     260:	461c      	mov	r4, r3
     262:	6859      	ldr	r1, [r3, #4]
     264:	f854 0b08 	ldr.w	r0, [r4], #8
     268:	f7ff ffdf 	bl	22a <bss_init>
     26c:	4623      	mov	r3, r4
     26e:	4a05      	ldr	r2, [pc, #20]	; (284 <ResetISR+0x48>)
     270:	4293      	cmp	r3, r2
     272:	d3f5      	bcc.n	260 <ResetISR+0x24>
     274:	b662      	cpsie	i
     276:	f001 fae9 	bl	184c <main>
     27a:	e7fe      	b.n	27a <ResetISR+0x3e>
     27c:	000001d0 	.word	0x000001d0
     280:	000001f4 	.word	0x000001f4
     284:	0000020c 	.word	0x0000020c

00000288 <NMI_Handler>:
     288:	e7fe      	b.n	288 <NMI_Handler>
     28a:	e7fe      	b.n	28a <NMI_Handler+0x2>

0000028c <MemManage_Handler>:
     28c:	e7fe      	b.n	28c <MemManage_Handler>

0000028e <BusFault_Handler>:
     28e:	e7fe      	b.n	28e <BusFault_Handler>

00000290 <UsageFault_Handler>:
     290:	e7fe      	b.n	290 <UsageFault_Handler>

00000292 <SVC_Handler>:
     292:	e7fe      	b.n	292 <SVC_Handler>

00000294 <DebugMon_Handler>:
     294:	e7fe      	b.n	294 <DebugMon_Handler>

00000296 <PendSV_Handler>:
     296:	e7fe      	b.n	296 <PendSV_Handler>
     298:	e7fe      	b.n	298 <PendSV_Handler+0x2>

0000029a <ADC0_DriverIRQHandler>:
     29a:	e7fe      	b.n	29a <ADC0_DriverIRQHandler>
     29c:	ffff ffff 			; <UNDEFINED> instruction: 0xffffffff
     2a0:	ffff ffff 			; <UNDEFINED> instruction: 0xffffffff
     2a4:	ffff ffff 			; <UNDEFINED> instruction: 0xffffffff
     2a8:	ffff ffff 			; <UNDEFINED> instruction: 0xffffffff
     2ac:	ffff ffff 			; <UNDEFINED> instruction: 0xffffffff
     2b0:	ffff ffff 			; <UNDEFINED> instruction: 0xffffffff
     2b4:	ffff ffff 			; <UNDEFINED> instruction: 0xffffffff
     2b8:	ffff ffff 			; <UNDEFINED> instruction: 0xffffffff
     2bc:	ffff ffff 			; <UNDEFINED> instruction: 0xffffffff
     2c0:	ffff ffff 			; <UNDEFINED> instruction: 0xffffffff
     2c4:	ffff ffff 			; <UNDEFINED> instruction: 0xffffffff
     2c8:	ffff ffff 			; <UNDEFINED> instruction: 0xffffffff
     2cc:	ffff ffff 			; <UNDEFINED> instruction: 0xffffffff
     2d0:	ffff ffff 			; <UNDEFINED> instruction: 0xffffffff
     2d4:	ffff ffff 			; <UNDEFINED> instruction: 0xffffffff
     2d8:	ffff ffff 			; <UNDEFINED> instruction: 0xffffffff
     2dc:	ffff ffff 			; <UNDEFINED> instruction: 0xffffffff
     2e0:	ffff ffff 			; <UNDEFINED> instruction: 0xffffffff
     2e4:	ffff ffff 			; <UNDEFINED> instruction: 0xffffffff
     2e8:	ffff ffff 			; <UNDEFINED> instruction: 0xffffffff
     2ec:	ffff ffff 			; <UNDEFINED> instruction: 0xffffffff
     2f0:	ffff ffff 			; <UNDEFINED> instruction: 0xffffffff
     2f4:	ffff ffff 			; <UNDEFINED> instruction: 0xffffffff
     2f8:	ffff ffff 			; <UNDEFINED> instruction: 0xffffffff
     2fc:	ffff ffff 			; <UNDEFINED> instruction: 0xffffffff
     300:	ffff ffff 			; <UNDEFINED> instruction: 0xffffffff
     304:	ffff ffff 			; <UNDEFINED> instruction: 0xffffffff
     308:	ffff ffff 			; <UNDEFINED> instruction: 0xffffffff
     30c:	ffff ffff 			; <UNDEFINED> instruction: 0xffffffff
     310:	ffff ffff 			; <UNDEFINED> instruction: 0xffffffff
     314:	ffff ffff 			; <UNDEFINED> instruction: 0xffffffff
     318:	ffff ffff 			; <UNDEFINED> instruction: 0xffffffff
     31c:	ffff ffff 			; <UNDEFINED> instruction: 0xffffffff
     320:	ffff ffff 			; <UNDEFINED> instruction: 0xffffffff
     324:	ffff ffff 			; <UNDEFINED> instruction: 0xffffffff
     328:	ffff ffff 			; <UNDEFINED> instruction: 0xffffffff
     32c:	ffff ffff 			; <UNDEFINED> instruction: 0xffffffff
     330:	ffff ffff 			; <UNDEFINED> instruction: 0xffffffff
     334:	ffff ffff 			; <UNDEFINED> instruction: 0xffffffff
     338:	ffff ffff 			; <UNDEFINED> instruction: 0xffffffff
     33c:	ffff ffff 			; <UNDEFINED> instruction: 0xffffffff
     340:	ffff ffff 			; <UNDEFINED> instruction: 0xffffffff
     344:	ffff ffff 			; <UNDEFINED> instruction: 0xffffffff
     348:	ffff ffff 			; <UNDEFINED> instruction: 0xffffffff
     34c:	ffff ffff 			; <UNDEFINED> instruction: 0xffffffff
     350:	ffff ffff 			; <UNDEFINED> instruction: 0xffffffff
     354:	ffff ffff 			; <UNDEFINED> instruction: 0xffffffff
     358:	ffff ffff 			; <UNDEFINED> instruction: 0xffffffff
     35c:	ffff ffff 			; <UNDEFINED> instruction: 0xffffffff
     360:	ffff ffff 			; <UNDEFINED> instruction: 0xffffffff
     364:	ffff ffff 			; <UNDEFINED> instruction: 0xffffffff
     368:	ffff ffff 			; <UNDEFINED> instruction: 0xffffffff
     36c:	ffff ffff 			; <UNDEFINED> instruction: 0xffffffff
     370:	ffff ffff 			; <UNDEFINED> instruction: 0xffffffff
     374:	ffff ffff 			; <UNDEFINED> instruction: 0xffffffff
     378:	ffff ffff 			; <UNDEFINED> instruction: 0xffffffff
     37c:	ffff ffff 			; <UNDEFINED> instruction: 0xffffffff
     380:	ffff ffff 			; <UNDEFINED> instruction: 0xffffffff
     384:	ffff ffff 			; <UNDEFINED> instruction: 0xffffffff
     388:	ffff ffff 			; <UNDEFINED> instruction: 0xffffffff
     38c:	ffff ffff 			; <UNDEFINED> instruction: 0xffffffff
     390:	ffff ffff 			; <UNDEFINED> instruction: 0xffffffff
     394:	ffff ffff 			; <UNDEFINED> instruction: 0xffffffff
     398:	ffff ffff 			; <UNDEFINED> instruction: 0xffffffff
     39c:	ffff ffff 			; <UNDEFINED> instruction: 0xffffffff
     3a0:	ffff ffff 			; <UNDEFINED> instruction: 0xffffffff
     3a4:	ffff ffff 			; <UNDEFINED> instruction: 0xffffffff
     3a8:	ffff ffff 			; <UNDEFINED> instruction: 0xffffffff
     3ac:	ffff ffff 			; <UNDEFINED> instruction: 0xffffffff
     3b0:	ffff ffff 			; <UNDEFINED> instruction: 0xffffffff
     3b4:	ffff ffff 			; <UNDEFINED> instruction: 0xffffffff
     3b8:	ffff ffff 			; <UNDEFINED> instruction: 0xffffffff
     3bc:	ffff ffff 			; <UNDEFINED> instruction: 0xffffffff
     3c0:	ffff ffff 			; <UNDEFINED> instruction: 0xffffffff
     3c4:	ffff ffff 			; <UNDEFINED> instruction: 0xffffffff
     3c8:	ffff ffff 			; <UNDEFINED> instruction: 0xffffffff
     3cc:	ffff ffff 			; <UNDEFINED> instruction: 0xffffffff
     3d0:	ffff ffff 			; <UNDEFINED> instruction: 0xffffffff
     3d4:	ffff ffff 			; <UNDEFINED> instruction: 0xffffffff
     3d8:	ffff ffff 			; <UNDEFINED> instruction: 0xffffffff
     3dc:	ffff ffff 			; <UNDEFINED> instruction: 0xffffffff
     3e0:	ffff ffff 			; <UNDEFINED> instruction: 0xffffffff
     3e4:	ffff ffff 			; <UNDEFINED> instruction: 0xffffffff
     3e8:	ffff ffff 			; <UNDEFINED> instruction: 0xffffffff
     3ec:	ffff ffff 			; <UNDEFINED> instruction: 0xffffffff
     3f0:	ffff ffff 			; <UNDEFINED> instruction: 0xffffffff
     3f4:	ffff ffff 			; <UNDEFINED> instruction: 0xffffffff
     3f8:	ffff ffff 			; <UNDEFINED> instruction: 0xffffffff
     3fc:	ffff ffff 			; <UNDEFINED> instruction: 0xffffffff

00000400 <Flash_Config>:
     400:	ffff ffff ffff ffff ffff ffff fffe ffff     ................

00000410 <__assert_func>:
     410:	b580      	push	{r7, lr}
     412:	b086      	sub	sp, #24
     414:	af02      	add	r7, sp, #8
     416:	60f8      	str	r0, [r7, #12]
     418:	60b9      	str	r1, [r7, #8]
     41a:	607a      	str	r2, [r7, #4]
     41c:	603b      	str	r3, [r7, #0]
     41e:	687b      	ldr	r3, [r7, #4]
     420:	9300      	str	r3, [sp, #0]
     422:	68bb      	ldr	r3, [r7, #8]
     424:	68fa      	ldr	r2, [r7, #12]
     426:	6839      	ldr	r1, [r7, #0]
     428:	4802      	ldr	r0, [pc, #8]	; (434 <__assert_func+0x24>)
     42a:	f000 f835 	bl	498 <DbgConsole_Printf>
     42e:	be00      	bkpt	0x0000
     430:	e7fd      	b.n	42e <__assert_func+0x1e>
     432:	bf00      	nop
     434:	00017ed8 	.word	0x00017ed8

00000438 <DbgConsole_Init>:
     438:	b580      	push	{r7, lr}
     43a:	b084      	sub	sp, #16
     43c:	af00      	add	r7, sp, #0
     43e:	60f8      	str	r0, [r7, #12]
     440:	60b9      	str	r1, [r7, #8]
     442:	603b      	str	r3, [r7, #0]
     444:	4613      	mov	r3, r2
     446:	71fb      	strb	r3, [r7, #7]
     448:	79fb      	ldrb	r3, [r7, #7]
     44a:	2b00      	cmp	r3, #0
     44c:	d105      	bne.n	45a <DbgConsole_Init+0x22>
     44e:	4b08      	ldr	r3, [pc, #32]	; (470 <DbgConsole_Init+0x38>)
     450:	4a08      	ldr	r2, [pc, #32]	; (474 <DbgConsole_Init+0x3c>)
     452:	2169      	movs	r1, #105	; 0x69
     454:	4808      	ldr	r0, [pc, #32]	; (478 <DbgConsole_Init+0x40>)
     456:	f7ff ffdb 	bl	410 <__assert_func>
     45a:	79f9      	ldrb	r1, [r7, #7]
     45c:	683b      	ldr	r3, [r7, #0]
     45e:	68ba      	ldr	r2, [r7, #8]
     460:	68f8      	ldr	r0, [r7, #12]
     462:	f000 fa2b 	bl	8bc <LOG_Init>
     466:	4603      	mov	r3, r0
     468:	4618      	mov	r0, r3
     46a:	3710      	adds	r7, #16
     46c:	46bd      	mov	sp, r7
     46e:	bd80      	pop	{r7, pc}
     470:	00017f18 	.word	0x00017f18
     474:	00017f68 	.word	0x00017f68
     478:	00017f44 	.word	0x00017f44

0000047c <DbgConsole_Deinit>:
     47c:	b580      	push	{r7, lr}
     47e:	af00      	add	r7, sp, #0
     480:	f000 fa34 	bl	8ec <LOG_Deinit>
     484:	2300      	movs	r3, #0
     486:	4618      	mov	r0, r3
     488:	bd80      	pop	{r7, pc}

0000048a <DbgConsole_Flush>:
     48a:	b580      	push	{r7, lr}
     48c:	af00      	add	r7, sp, #0
     48e:	f000 fa33 	bl	8f8 <LOG_WaitIdle>
     492:	4603      	mov	r3, r0
     494:	4618      	mov	r0, r3
     496:	bd80      	pop	{r7, pc}

00000498 <DbgConsole_Printf>:
     498:	b40f      	push	{r0, r1, r2, r3}
     49a:	b580      	push	{r7, lr}
     49c:	b0a4      	sub	sp, #144	; 0x90
     49e:	af00      	add	r7, sp, #0
     4a0:	2300      	movs	r3, #0
     4a2:	f8c7 308c 	str.w	r3, [r7, #140]	; 0x8c
     4a6:	2300      	movs	r3, #0
     4a8:	f8c7 3088 	str.w	r3, [r7, #136]	; 0x88
     4ac:	1d3b      	adds	r3, r7, #4
     4ae:	2280      	movs	r2, #128	; 0x80
     4b0:	2100      	movs	r1, #0
     4b2:	4618      	mov	r0, r3
     4b4:	f017 fc04 	bl	17cc0 <memset>
     4b8:	f107 039c 	add.w	r3, r7, #156	; 0x9c
     4bc:	f8c7 3084 	str.w	r3, [r7, #132]	; 0x84
     4c0:	1d3a      	adds	r2, r7, #4
     4c2:	4b0d      	ldr	r3, [pc, #52]	; (4f8 <DbgConsole_Printf+0x60>)
     4c4:	f8d7 1084 	ldr.w	r1, [r7, #132]	; 0x84
     4c8:	f8d7 0098 	ldr.w	r0, [r7, #152]	; 0x98
     4cc:	f000 fbad 	bl	c2a <StrFormatPrintf>
     4d0:	f8c7 008c 	str.w	r0, [r7, #140]	; 0x8c
     4d4:	f8d7 208c 	ldr.w	r2, [r7, #140]	; 0x8c
     4d8:	1d3b      	adds	r3, r7, #4
     4da:	4611      	mov	r1, r2
     4dc:	4618      	mov	r0, r3
     4de:	f000 fa13 	bl	908 <LOG_Push>
     4e2:	f8c7 0088 	str.w	r0, [r7, #136]	; 0x88
     4e6:	f8d7 3088 	ldr.w	r3, [r7, #136]	; 0x88
     4ea:	4618      	mov	r0, r3
     4ec:	3790      	adds	r7, #144	; 0x90
     4ee:	46bd      	mov	sp, r7
     4f0:	e8bd 4080 	ldmia.w	sp!, {r7, lr}
     4f4:	b004      	add	sp, #16
     4f6:	4770      	bx	lr
     4f8:	00000577 	.word	0x00000577

000004fc <DbgConsole_Putchar>:
     4fc:	b580      	push	{r7, lr}
     4fe:	b082      	sub	sp, #8
     500:	af00      	add	r7, sp, #0
     502:	6078      	str	r0, [r7, #4]
     504:	1d3b      	adds	r3, r7, #4
     506:	2101      	movs	r1, #1
     508:	4618      	mov	r0, r3
     50a:	f000 f9fd 	bl	908 <LOG_Push>
     50e:	4603      	mov	r3, r0
     510:	4618      	mov	r0, r3
     512:	3708      	adds	r7, #8
     514:	46bd      	mov	sp, r7
     516:	bd80      	pop	{r7, pc}

00000518 <DbgConsole_Scanf>:
     518:	b40f      	push	{r0, r1, r2, r3}
     51a:	b580      	push	{r7, lr}
     51c:	b088      	sub	sp, #32
     51e:	af00      	add	r7, sp, #0
     520:	463b      	mov	r3, r7
     522:	2200      	movs	r2, #0
     524:	601a      	str	r2, [r3, #0]
     526:	605a      	str	r2, [r3, #4]
     528:	609a      	str	r2, [r3, #8]
     52a:	60da      	str	r2, [r3, #12]
     52c:	611a      	str	r2, [r3, #16]
     52e:	751a      	strb	r2, [r3, #20]
     530:	463b      	mov	r3, r7
     532:	2114      	movs	r1, #20
     534:	4618      	mov	r0, r3
     536:	f000 fa27 	bl	988 <LOG_ReadLine>
     53a:	f107 032c 	add.w	r3, r7, #44	; 0x2c
     53e:	61bb      	str	r3, [r7, #24]
     540:	463b      	mov	r3, r7
     542:	69ba      	ldr	r2, [r7, #24]
     544:	6ab9      	ldr	r1, [r7, #40]	; 0x28
     546:	4618      	mov	r0, r3
     548:	f000 fcf6 	bl	f38 <StrFormatScanf>
     54c:	61f8      	str	r0, [r7, #28]
     54e:	69fb      	ldr	r3, [r7, #28]
     550:	4618      	mov	r0, r3
     552:	3720      	adds	r7, #32
     554:	46bd      	mov	sp, r7
     556:	e8bd 4080 	ldmia.w	sp!, {r7, lr}
     55a:	b004      	add	sp, #16
     55c:	4770      	bx	lr

0000055e <DbgConsole_Getchar>:
     55e:	b580      	push	{r7, lr}
     560:	b082      	sub	sp, #8
     562:	af00      	add	r7, sp, #0
     564:	1dfb      	adds	r3, r7, #7
     566:	4618      	mov	r0, r3
     568:	f000 fa6a 	bl	a40 <LOG_ReadCharacter>
     56c:	79fb      	ldrb	r3, [r7, #7]
     56e:	4618      	mov	r0, r3
     570:	3708      	adds	r7, #8
     572:	46bd      	mov	sp, r7
     574:	bd80      	pop	{r7, pc}

00000576 <DbgConsole_RelocateLog>:
     576:	b580      	push	{r7, lr}
     578:	b086      	sub	sp, #24
     57a:	af00      	add	r7, sp, #0
     57c:	60f8      	str	r0, [r7, #12]
     57e:	60b9      	str	r1, [r7, #8]
     580:	603b      	str	r3, [r7, #0]
     582:	4613      	mov	r3, r2
     584:	71fb      	strb	r3, [r7, #7]
     586:	2300      	movs	r3, #0
     588:	617b      	str	r3, [r7, #20]
     58a:	2300      	movs	r3, #0
     58c:	617b      	str	r3, [r7, #20]
     58e:	e01c      	b.n	5ca <DbgConsole_RelocateLog+0x54>
     590:	68bb      	ldr	r3, [r7, #8]
     592:	681b      	ldr	r3, [r3, #0]
     594:	3301      	adds	r3, #1
     596:	2b7f      	cmp	r3, #127	; 0x7f
     598:	d908      	bls.n	5ac <DbgConsole_RelocateLog+0x36>
     59a:	68bb      	ldr	r3, [r7, #8]
     59c:	681b      	ldr	r3, [r3, #0]
     59e:	4619      	mov	r1, r3
     5a0:	68f8      	ldr	r0, [r7, #12]
     5a2:	f000 f9b1 	bl	908 <LOG_Push>
     5a6:	68bb      	ldr	r3, [r7, #8]
     5a8:	2200      	movs	r2, #0
     5aa:	601a      	str	r2, [r3, #0]
     5ac:	68bb      	ldr	r3, [r7, #8]
     5ae:	681b      	ldr	r3, [r3, #0]
     5b0:	461a      	mov	r2, r3
     5b2:	68fb      	ldr	r3, [r7, #12]
     5b4:	4413      	add	r3, r2
     5b6:	79fa      	ldrb	r2, [r7, #7]
     5b8:	701a      	strb	r2, [r3, #0]
     5ba:	68bb      	ldr	r3, [r7, #8]
     5bc:	681b      	ldr	r3, [r3, #0]
     5be:	1c5a      	adds	r2, r3, #1
     5c0:	68bb      	ldr	r3, [r7, #8]
     5c2:	601a      	str	r2, [r3, #0]
     5c4:	697b      	ldr	r3, [r7, #20]
     5c6:	3301      	adds	r3, #1
     5c8:	617b      	str	r3, [r7, #20]
     5ca:	697a      	ldr	r2, [r7, #20]
     5cc:	683b      	ldr	r3, [r7, #0]
     5ce:	429a      	cmp	r2, r3
     5d0:	dbde      	blt.n	590 <DbgConsole_RelocateLog+0x1a>
     5d2:	bf00      	nop
     5d4:	3718      	adds	r7, #24
     5d6:	46bd      	mov	sp, r7
     5d8:	bd80      	pop	{r7, pc}

000005da <UART_EnableTx>:
     5da:	b480      	push	{r7}
     5dc:	b083      	sub	sp, #12
     5de:	af00      	add	r7, sp, #0
     5e0:	6078      	str	r0, [r7, #4]
     5e2:	460b      	mov	r3, r1
     5e4:	70fb      	strb	r3, [r7, #3]
     5e6:	78fb      	ldrb	r3, [r7, #3]
     5e8:	2b00      	cmp	r3, #0
     5ea:	d008      	beq.n	5fe <UART_EnableTx+0x24>
     5ec:	687b      	ldr	r3, [r7, #4]
     5ee:	78db      	ldrb	r3, [r3, #3]
     5f0:	b2db      	uxtb	r3, r3
     5f2:	f043 0308 	orr.w	r3, r3, #8
     5f6:	b2da      	uxtb	r2, r3
     5f8:	687b      	ldr	r3, [r7, #4]
     5fa:	70da      	strb	r2, [r3, #3]
     5fc:	e007      	b.n	60e <UART_EnableTx+0x34>
     5fe:	687b      	ldr	r3, [r7, #4]
     600:	78db      	ldrb	r3, [r3, #3]
     602:	b2db      	uxtb	r3, r3
     604:	f023 0308 	bic.w	r3, r3, #8
     608:	b2da      	uxtb	r2, r3
     60a:	687b      	ldr	r3, [r7, #4]
     60c:	70da      	strb	r2, [r3, #3]
     60e:	bf00      	nop
     610:	370c      	adds	r7, #12
     612:	46bd      	mov	sp, r7
     614:	f85d 7b04 	ldr.w	r7, [sp], #4
     618:	4770      	bx	lr

0000061a <UART_EnableRx>:
     61a:	b480      	push	{r7}
     61c:	b083      	sub	sp, #12
     61e:	af00      	add	r7, sp, #0
     620:	6078      	str	r0, [r7, #4]
     622:	460b      	mov	r3, r1
     624:	70fb      	strb	r3, [r7, #3]
     626:	78fb      	ldrb	r3, [r7, #3]
     628:	2b00      	cmp	r3, #0
     62a:	d008      	beq.n	63e <UART_EnableRx+0x24>
     62c:	687b      	ldr	r3, [r7, #4]
     62e:	78db      	ldrb	r3, [r3, #3]
     630:	b2db      	uxtb	r3, r3
     632:	f043 0304 	orr.w	r3, r3, #4
     636:	b2da      	uxtb	r2, r3
     638:	687b      	ldr	r3, [r7, #4]
     63a:	70da      	strb	r2, [r3, #3]
     63c:	e007      	b.n	64e <UART_EnableRx+0x34>
     63e:	687b      	ldr	r3, [r7, #4]
     640:	78db      	ldrb	r3, [r3, #3]
     642:	b2db      	uxtb	r3, r3
     644:	f023 0304 	bic.w	r3, r3, #4
     648:	b2da      	uxtb	r2, r3
     64a:	687b      	ldr	r3, [r7, #4]
     64c:	70da      	strb	r2, [r3, #3]
     64e:	bf00      	nop
     650:	370c      	adds	r7, #12
     652:	46bd      	mov	sp, r7
     654:	f85d 7b04 	ldr.w	r7, [sp], #4
     658:	4770      	bx	lr

0000065a <LPUART_EnableTx>:
     65a:	b480      	push	{r7}
     65c:	b083      	sub	sp, #12
     65e:	af00      	add	r7, sp, #0
     660:	6078      	str	r0, [r7, #4]
     662:	460b      	mov	r3, r1
     664:	70fb      	strb	r3, [r7, #3]
     666:	78fb      	ldrb	r3, [r7, #3]
     668:	2b00      	cmp	r3, #0
     66a:	d006      	beq.n	67a <LPUART_EnableTx+0x20>
     66c:	687b      	ldr	r3, [r7, #4]
     66e:	689b      	ldr	r3, [r3, #8]
     670:	f443 2200 	orr.w	r2, r3, #524288	; 0x80000
     674:	687b      	ldr	r3, [r7, #4]
     676:	609a      	str	r2, [r3, #8]
     678:	e005      	b.n	686 <LPUART_EnableTx+0x2c>
     67a:	687b      	ldr	r3, [r7, #4]
     67c:	689b      	ldr	r3, [r3, #8]
     67e:	f423 2200 	bic.w	r2, r3, #524288	; 0x80000
     682:	687b      	ldr	r3, [r7, #4]
     684:	609a      	str	r2, [r3, #8]
     686:	bf00      	nop
     688:	370c      	adds	r7, #12
     68a:	46bd      	mov	sp, r7
     68c:	f85d 7b04 	ldr.w	r7, [sp], #4
     690:	4770      	bx	lr

00000692 <LPUART_EnableRx>:
     692:	b480      	push	{r7}
     694:	b083      	sub	sp, #12
     696:	af00      	add	r7, sp, #0
     698:	6078      	str	r0, [r7, #4]
     69a:	460b      	mov	r3, r1
     69c:	70fb      	strb	r3, [r7, #3]
     69e:	78fb      	ldrb	r3, [r7, #3]
     6a0:	2b00      	cmp	r3, #0
     6a2:	d006      	beq.n	6b2 <LPUART_EnableRx+0x20>
     6a4:	687b      	ldr	r3, [r7, #4]
     6a6:	689b      	ldr	r3, [r3, #8]
     6a8:	f443 2280 	orr.w	r2, r3, #262144	; 0x40000
     6ac:	687b      	ldr	r3, [r7, #4]
     6ae:	609a      	str	r2, [r3, #8]
     6b0:	e005      	b.n	6be <LPUART_EnableRx+0x2c>
     6b2:	687b      	ldr	r3, [r7, #4]
     6b4:	689b      	ldr	r3, [r3, #8]
     6b6:	f423 2280 	bic.w	r2, r3, #262144	; 0x40000
     6ba:	687b      	ldr	r3, [r7, #4]
     6bc:	609a      	str	r2, [r3, #8]
     6be:	bf00      	nop
     6c0:	370c      	adds	r7, #12
     6c2:	46bd      	mov	sp, r7
     6c4:	f85d 7b04 	ldr.w	r7, [sp], #4
     6c8:	4770      	bx	lr
     6ca:	Address 0x00000000000006ca is out of bounds.


000006cc <IO_Init>:
     6cc:	b580      	push	{r7, lr}
     6ce:	b08c      	sub	sp, #48	; 0x30
     6d0:	af00      	add	r7, sp, #0
     6d2:	60f8      	str	r0, [r7, #12]
     6d4:	60b9      	str	r1, [r7, #8]
     6d6:	607a      	str	r2, [r7, #4]
     6d8:	603b      	str	r3, [r7, #0]
     6da:	68fb      	ldr	r3, [r7, #12]
     6dc:	2b00      	cmp	r3, #0
     6de:	d105      	bne.n	6ec <IO_Init+0x20>
     6e0:	4b29      	ldr	r3, [pc, #164]	; (788 <IO_Init+0xbc>)
     6e2:	4a2a      	ldr	r2, [pc, #168]	; (78c <IO_Init+0xc0>)
     6e4:	21ff      	movs	r1, #255	; 0xff
     6e6:	482a      	ldr	r0, [pc, #168]	; (790 <IO_Init+0xc4>)
     6e8:	f7ff fe92 	bl	410 <__assert_func>
     6ec:	68fb      	ldr	r3, [r7, #12]
     6ee:	791a      	ldrb	r2, [r3, #4]
     6f0:	4b28      	ldr	r3, [pc, #160]	; (794 <IO_Init+0xc8>)
     6f2:	711a      	strb	r2, [r3, #4]
     6f4:	68fb      	ldr	r3, [r7, #12]
     6f6:	681b      	ldr	r3, [r3, #0]
     6f8:	4a26      	ldr	r2, [pc, #152]	; (794 <IO_Init+0xc8>)
     6fa:	6013      	str	r3, [r2, #0]
     6fc:	4b25      	ldr	r3, [pc, #148]	; (794 <IO_Init+0xc8>)
     6fe:	791b      	ldrb	r3, [r3, #4]
     700:	2b02      	cmp	r3, #2
     702:	d020      	beq.n	746 <IO_Init+0x7a>
     704:	2b06      	cmp	r3, #6
     706:	d002      	beq.n	70e <IO_Init+0x42>
     708:	2b01      	cmp	r3, #1
     70a:	d000      	beq.n	70e <IO_Init+0x42>
     70c:	e037      	b.n	77e <IO_Init+0xb2>
     70e:	f107 0320 	add.w	r3, r7, #32
     712:	4618      	mov	r0, r3
     714:	f015 faa6 	bl	15c64 <UART_GetDefaultConfig>
     718:	68bb      	ldr	r3, [r7, #8]
     71a:	623b      	str	r3, [r7, #32]
     71c:	4b1d      	ldr	r3, [pc, #116]	; (794 <IO_Init+0xc8>)
     71e:	681b      	ldr	r3, [r3, #0]
     720:	f107 0120 	add.w	r1, r7, #32
     724:	687a      	ldr	r2, [r7, #4]
     726:	4618      	mov	r0, r3
     728:	f015 f8fa 	bl	15920 <UART_Init>
     72c:	4b19      	ldr	r3, [pc, #100]	; (794 <IO_Init+0xc8>)
     72e:	681b      	ldr	r3, [r3, #0]
     730:	2101      	movs	r1, #1
     732:	4618      	mov	r0, r3
     734:	f7ff ff51 	bl	5da <UART_EnableTx>
     738:	4b16      	ldr	r3, [pc, #88]	; (794 <IO_Init+0xc8>)
     73a:	681b      	ldr	r3, [r3, #0]
     73c:	2101      	movs	r1, #1
     73e:	4618      	mov	r0, r3
     740:	f7ff ff6b 	bl	61a <UART_EnableRx>
     744:	e01b      	b.n	77e <IO_Init+0xb2>
     746:	f107 0310 	add.w	r3, r7, #16
     74a:	4618      	mov	r0, r3
     74c:	f013 ff66 	bl	1461c <LPUART_GetDefaultConfig>
     750:	68bb      	ldr	r3, [r7, #8]
     752:	613b      	str	r3, [r7, #16]
     754:	4b0f      	ldr	r3, [pc, #60]	; (794 <IO_Init+0xc8>)
     756:	681b      	ldr	r3, [r3, #0]
     758:	f107 0110 	add.w	r1, r7, #16
     75c:	687a      	ldr	r2, [r7, #4]
     75e:	4618      	mov	r0, r3
     760:	f013 fddc 	bl	1431c <LPUART_Init>
     764:	4b0b      	ldr	r3, [pc, #44]	; (794 <IO_Init+0xc8>)
     766:	681b      	ldr	r3, [r3, #0]
     768:	2101      	movs	r1, #1
     76a:	4618      	mov	r0, r3
     76c:	f7ff ff75 	bl	65a <LPUART_EnableTx>
     770:	4b08      	ldr	r3, [pc, #32]	; (794 <IO_Init+0xc8>)
     772:	681b      	ldr	r3, [r3, #0]
     774:	2101      	movs	r1, #1
     776:	4618      	mov	r0, r3
     778:	f7ff ff8b 	bl	692 <LPUART_EnableRx>
     77c:	bf00      	nop
     77e:	bf00      	nop
     780:	3730      	adds	r7, #48	; 0x30
     782:	46bd      	mov	sp, r7
     784:	bd80      	pop	{r7, pc}
     786:	bf00      	nop
     788:	00017f78 	.word	0x00017f78
     78c:	00017f9c 	.word	0x00017f9c
     790:	00017f84 	.word	0x00017f84
     794:	200000d0 	.word	0x200000d0

00000798 <IO_Deinit>:
     798:	b580      	push	{r7, lr}
     79a:	af00      	add	r7, sp, #0
     79c:	4b11      	ldr	r3, [pc, #68]	; (7e4 <IO_Deinit+0x4c>)
     79e:	791b      	ldrb	r3, [r3, #4]
     7a0:	2b00      	cmp	r3, #0
     7a2:	d101      	bne.n	7a8 <IO_Deinit+0x10>
     7a4:	2300      	movs	r3, #0
     7a6:	e01b      	b.n	7e0 <IO_Deinit+0x48>
     7a8:	4b0e      	ldr	r3, [pc, #56]	; (7e4 <IO_Deinit+0x4c>)
     7aa:	791b      	ldrb	r3, [r3, #4]
     7ac:	2b02      	cmp	r3, #2
     7ae:	d009      	beq.n	7c4 <IO_Deinit+0x2c>
     7b0:	2b06      	cmp	r3, #6
     7b2:	d001      	beq.n	7b8 <IO_Deinit+0x20>
     7b4:	2b01      	cmp	r3, #1
     7b6:	d10b      	bne.n	7d0 <IO_Deinit+0x38>
     7b8:	4b0a      	ldr	r3, [pc, #40]	; (7e4 <IO_Deinit+0x4c>)
     7ba:	681b      	ldr	r3, [r3, #0]
     7bc:	4618      	mov	r0, r3
     7be:	f015 fa2b 	bl	15c18 <UART_Deinit>
     7c2:	e009      	b.n	7d8 <IO_Deinit+0x40>
     7c4:	4b07      	ldr	r3, [pc, #28]	; (7e4 <IO_Deinit+0x4c>)
     7c6:	681b      	ldr	r3, [r3, #0]
     7c8:	4618      	mov	r0, r3
     7ca:	f013 fef9 	bl	145c0 <LPUART_Deinit>
     7ce:	e003      	b.n	7d8 <IO_Deinit+0x40>
     7d0:	4b04      	ldr	r3, [pc, #16]	; (7e4 <IO_Deinit+0x4c>)
     7d2:	2200      	movs	r2, #0
     7d4:	711a      	strb	r2, [r3, #4]
     7d6:	bf00      	nop
     7d8:	4b02      	ldr	r3, [pc, #8]	; (7e4 <IO_Deinit+0x4c>)
     7da:	2200      	movs	r2, #0
     7dc:	711a      	strb	r2, [r3, #4]
     7de:	2300      	movs	r3, #0
     7e0:	4618      	mov	r0, r3
     7e2:	bd80      	pop	{r7, pc}
     7e4:	200000d0 	.word	0x200000d0

000007e8 <IO_WaitIdle>:
     7e8:	b580      	push	{r7, lr}
     7ea:	af00      	add	r7, sp, #0
     7ec:	4b10      	ldr	r3, [pc, #64]	; (830 <IO_WaitIdle+0x48>)
     7ee:	791b      	ldrb	r3, [r3, #4]
     7f0:	2b01      	cmp	r3, #1
     7f2:	d002      	beq.n	7fa <IO_WaitIdle+0x12>
     7f4:	2b02      	cmp	r3, #2
     7f6:	d00c      	beq.n	812 <IO_WaitIdle+0x2a>
     7f8:	e017      	b.n	82a <IO_WaitIdle+0x42>
     7fa:	bf00      	nop
     7fc:	4b0c      	ldr	r3, [pc, #48]	; (830 <IO_WaitIdle+0x48>)
     7fe:	681b      	ldr	r3, [r3, #0]
     800:	4618      	mov	r0, r3
     802:	f015 fb91 	bl	15f28 <UART_GetStatusFlags>
     806:	4603      	mov	r3, r0
     808:	f003 0340 	and.w	r3, r3, #64	; 0x40
     80c:	2b00      	cmp	r3, #0
     80e:	d0f5      	beq.n	7fc <IO_WaitIdle+0x14>
     810:	e00b      	b.n	82a <IO_WaitIdle+0x42>
     812:	bf00      	nop
     814:	4b06      	ldr	r3, [pc, #24]	; (830 <IO_WaitIdle+0x48>)
     816:	681b      	ldr	r3, [r3, #0]
     818:	4618      	mov	r0, r3
     81a:	f014 f843 	bl	148a4 <LPUART_GetStatusFlags>
     81e:	4603      	mov	r3, r0
     820:	f403 0380 	and.w	r3, r3, #4194304	; 0x400000
     824:	2b00      	cmp	r3, #0
     826:	d0f5      	beq.n	814 <IO_WaitIdle+0x2c>
     828:	bf00      	nop
     82a:	2300      	movs	r3, #0
     82c:	4618      	mov	r0, r3
     82e:	bd80      	pop	{r7, pc}
     830:	200000d0 	.word	0x200000d0

00000834 <IO_Transfer>:
     834:	b580      	push	{r7, lr}
     836:	b086      	sub	sp, #24
     838:	af00      	add	r7, sp, #0
     83a:	60f8      	str	r0, [r7, #12]
     83c:	60b9      	str	r1, [r7, #8]
     83e:	4613      	mov	r3, r2
     840:	71fb      	strb	r3, [r7, #7]
     842:	2300      	movs	r3, #0
     844:	617b      	str	r3, [r7, #20]
     846:	4b1c      	ldr	r3, [pc, #112]	; (8b8 <IO_Transfer+0x84>)
     848:	791b      	ldrb	r3, [r3, #4]
     84a:	2b02      	cmp	r3, #2
     84c:	d017      	beq.n	87e <IO_Transfer+0x4a>
     84e:	2b06      	cmp	r3, #6
     850:	d001      	beq.n	856 <IO_Transfer+0x22>
     852:	2b01      	cmp	r3, #1
     854:	d127      	bne.n	8a6 <IO_Transfer+0x72>
     856:	79fb      	ldrb	r3, [r7, #7]
     858:	2b00      	cmp	r3, #0
     85a:	d007      	beq.n	86c <IO_Transfer+0x38>
     85c:	4b16      	ldr	r3, [pc, #88]	; (8b8 <IO_Transfer+0x84>)
     85e:	681b      	ldr	r3, [r3, #0]
     860:	68ba      	ldr	r2, [r7, #8]
     862:	68f9      	ldr	r1, [r7, #12]
     864:	4618      	mov	r0, r3
     866:	f015 fbc8 	bl	15ffa <UART_WriteBlocking>
     86a:	e01f      	b.n	8ac <IO_Transfer+0x78>
     86c:	4b12      	ldr	r3, [pc, #72]	; (8b8 <IO_Transfer+0x84>)
     86e:	681b      	ldr	r3, [r3, #0]
     870:	68ba      	ldr	r2, [r7, #8]
     872:	68f9      	ldr	r1, [r7, #12]
     874:	4618      	mov	r0, r3
     876:	f015 fc09 	bl	1608c <UART_ReadBlocking>
     87a:	6178      	str	r0, [r7, #20]
     87c:	e016      	b.n	8ac <IO_Transfer+0x78>
     87e:	79fb      	ldrb	r3, [r7, #7]
     880:	2b00      	cmp	r3, #0
     882:	d007      	beq.n	894 <IO_Transfer+0x60>
     884:	4b0c      	ldr	r3, [pc, #48]	; (8b8 <IO_Transfer+0x84>)
     886:	681b      	ldr	r3, [r3, #0]
     888:	68ba      	ldr	r2, [r7, #8]
     88a:	68f9      	ldr	r1, [r7, #12]
     88c:	4618      	mov	r0, r3
     88e:	f014 f857 	bl	14940 <LPUART_WriteBlocking>
     892:	e00b      	b.n	8ac <IO_Transfer+0x78>
     894:	4b08      	ldr	r3, [pc, #32]	; (8b8 <IO_Transfer+0x84>)
     896:	681b      	ldr	r3, [r3, #0]
     898:	68ba      	ldr	r2, [r7, #8]
     89a:	68f9      	ldr	r1, [r7, #12]
     89c:	4618      	mov	r0, r3
     89e:	f014 f87d 	bl	1499c <LPUART_ReadBlocking>
     8a2:	6178      	str	r0, [r7, #20]
     8a4:	e002      	b.n	8ac <IO_Transfer+0x78>
     8a6:	2301      	movs	r3, #1
     8a8:	617b      	str	r3, [r7, #20]
     8aa:	bf00      	nop
     8ac:	697b      	ldr	r3, [r7, #20]
     8ae:	4618      	mov	r0, r3
     8b0:	3718      	adds	r7, #24
     8b2:	46bd      	mov	sp, r7
     8b4:	bd80      	pop	{r7, pc}
     8b6:	bf00      	nop
     8b8:	200000d0 	.word	0x200000d0

000008bc <LOG_Init>:
     8bc:	b580      	push	{r7, lr}
     8be:	b086      	sub	sp, #24
     8c0:	af00      	add	r7, sp, #0
     8c2:	60f8      	str	r0, [r7, #12]
     8c4:	607a      	str	r2, [r7, #4]
     8c6:	603b      	str	r3, [r7, #0]
     8c8:	460b      	mov	r3, r1
     8ca:	72fb      	strb	r3, [r7, #11]
     8cc:	68fb      	ldr	r3, [r7, #12]
     8ce:	613b      	str	r3, [r7, #16]
     8d0:	7afb      	ldrb	r3, [r7, #11]
     8d2:	753b      	strb	r3, [r7, #20]
     8d4:	f107 0010 	add.w	r0, r7, #16
     8d8:	2300      	movs	r3, #0
     8da:	683a      	ldr	r2, [r7, #0]
     8dc:	6879      	ldr	r1, [r7, #4]
     8de:	f7ff fef5 	bl	6cc <IO_Init>
     8e2:	2300      	movs	r3, #0
     8e4:	4618      	mov	r0, r3
     8e6:	3718      	adds	r7, #24
     8e8:	46bd      	mov	sp, r7
     8ea:	bd80      	pop	{r7, pc}

000008ec <LOG_Deinit>:
     8ec:	b580      	push	{r7, lr}
     8ee:	af00      	add	r7, sp, #0
     8f0:	f7ff ff52 	bl	798 <IO_Deinit>
     8f4:	bf00      	nop
     8f6:	bd80      	pop	{r7, pc}

000008f8 <LOG_WaitIdle>:
     8f8:	b580      	push	{r7, lr}
     8fa:	af00      	add	r7, sp, #0
     8fc:	f7ff ff74 	bl	7e8 <IO_WaitIdle>
     900:	2300      	movs	r3, #0
     902:	4618      	mov	r0, r3
     904:	bd80      	pop	{r7, pc}
     906:	Address 0x0000000000000906 is out of bounds.


00000908 <LOG_Push>:
     908:	b580      	push	{r7, lr}
     90a:	b082      	sub	sp, #8
     90c:	af00      	add	r7, sp, #0
     90e:	6078      	str	r0, [r7, #4]
     910:	6039      	str	r1, [r7, #0]
     912:	687b      	ldr	r3, [r7, #4]
     914:	2b00      	cmp	r3, #0
     916:	d106      	bne.n	926 <LOG_Push+0x1e>
     918:	4b07      	ldr	r3, [pc, #28]	; (938 <LOG_Push+0x30>)
     91a:	4a08      	ldr	r2, [pc, #32]	; (93c <LOG_Push+0x34>)
     91c:	f240 113f 	movw	r1, #319	; 0x13f
     920:	4807      	ldr	r0, [pc, #28]	; (940 <LOG_Push+0x38>)
     922:	f7ff fd75 	bl	410 <__assert_func>
     926:	6839      	ldr	r1, [r7, #0]
     928:	6878      	ldr	r0, [r7, #4]
     92a:	f000 f80b 	bl	944 <LOG_Pop>
     92e:	4603      	mov	r3, r0
     930:	4618      	mov	r0, r3
     932:	3708      	adds	r7, #8
     934:	46bd      	mov	sp, r7
     936:	bd80      	pop	{r7, pc}
     938:	00017fa4 	.word	0x00017fa4
     93c:	00017fd4 	.word	0x00017fd4
     940:	00017fb0 	.word	0x00017fb0

00000944 <LOG_Pop>:
     944:	b580      	push	{r7, lr}
     946:	b084      	sub	sp, #16
     948:	af00      	add	r7, sp, #0
     94a:	6078      	str	r0, [r7, #4]
     94c:	6039      	str	r1, [r7, #0]
     94e:	2300      	movs	r3, #0
     950:	73fb      	strb	r3, [r7, #15]
     952:	683b      	ldr	r3, [r7, #0]
     954:	2b00      	cmp	r3, #0
     956:	d011      	beq.n	97c <LOG_Pop+0x38>
     958:	687b      	ldr	r3, [r7, #4]
     95a:	2b00      	cmp	r3, #0
     95c:	d00e      	beq.n	97c <LOG_Pop+0x38>
     95e:	2301      	movs	r3, #1
     960:	73fb      	strb	r3, [r7, #15]
     962:	7bfb      	ldrb	r3, [r7, #15]
     964:	2b00      	cmp	r3, #0
     966:	d009      	beq.n	97c <LOG_Pop+0x38>
     968:	2201      	movs	r2, #1
     96a:	6839      	ldr	r1, [r7, #0]
     96c:	6878      	ldr	r0, [r7, #4]
     96e:	f7ff ff61 	bl	834 <IO_Transfer>
     972:	4603      	mov	r3, r0
     974:	2b00      	cmp	r3, #0
     976:	d001      	beq.n	97c <LOG_Pop+0x38>
     978:	2300      	movs	r3, #0
     97a:	603b      	str	r3, [r7, #0]
     97c:	683b      	ldr	r3, [r7, #0]
     97e:	4618      	mov	r0, r3
     980:	3710      	adds	r7, #16
     982:	46bd      	mov	sp, r7
     984:	bd80      	pop	{r7, pc}
     986:	Address 0x0000000000000986 is out of bounds.


00000988 <LOG_ReadLine>:
     988:	b580      	push	{r7, lr}
     98a:	b084      	sub	sp, #16
     98c:	af00      	add	r7, sp, #0
     98e:	6078      	str	r0, [r7, #4]
     990:	6039      	str	r1, [r7, #0]
     992:	687b      	ldr	r3, [r7, #4]
     994:	2b00      	cmp	r3, #0
     996:	d106      	bne.n	9a6 <LOG_ReadLine+0x1e>
     998:	4b26      	ldr	r3, [pc, #152]	; (a34 <LOG_ReadLine+0xac>)
     99a:	4a27      	ldr	r2, [pc, #156]	; (a38 <LOG_ReadLine+0xb0>)
     99c:	f44f 71b2 	mov.w	r1, #356	; 0x164
     9a0:	4826      	ldr	r0, [pc, #152]	; (a3c <LOG_ReadLine+0xb4>)
     9a2:	f7ff fd35 	bl	410 <__assert_func>
     9a6:	2300      	movs	r3, #0
     9a8:	60fb      	str	r3, [r7, #12]
     9aa:	2300      	movs	r3, #0
     9ac:	60fb      	str	r3, [r7, #12]
     9ae:	e025      	b.n	9fc <LOG_ReadLine+0x74>
     9b0:	68fb      	ldr	r3, [r7, #12]
     9b2:	687a      	ldr	r2, [r7, #4]
     9b4:	4413      	add	r3, r2
     9b6:	4618      	mov	r0, r3
     9b8:	f000 f86a 	bl	a90 <LOG_ReadOneCharacter>
     9bc:	4603      	mov	r3, r0
     9be:	2b00      	cmp	r3, #0
     9c0:	d002      	beq.n	9c8 <LOG_ReadLine+0x40>
     9c2:	f04f 33ff 	mov.w	r3, #4294967295	; 0xffffffff
     9c6:	e030      	b.n	a2a <LOG_ReadLine+0xa2>
     9c8:	68fb      	ldr	r3, [r7, #12]
     9ca:	687a      	ldr	r2, [r7, #4]
     9cc:	4413      	add	r3, r2
     9ce:	781b      	ldrb	r3, [r3, #0]
     9d0:	2b0d      	cmp	r3, #13
     9d2:	d005      	beq.n	9e0 <LOG_ReadLine+0x58>
     9d4:	68fb      	ldr	r3, [r7, #12]
     9d6:	687a      	ldr	r2, [r7, #4]
     9d8:	4413      	add	r3, r2
     9da:	781b      	ldrb	r3, [r3, #0]
     9dc:	2b0a      	cmp	r3, #10
     9de:	d10a      	bne.n	9f6 <LOG_ReadLine+0x6e>
     9e0:	68fb      	ldr	r3, [r7, #12]
     9e2:	2b00      	cmp	r3, #0
     9e4:	d10f      	bne.n	a06 <LOG_ReadLine+0x7e>
     9e6:	68fb      	ldr	r3, [r7, #12]
     9e8:	687a      	ldr	r2, [r7, #4]
     9ea:	4413      	add	r3, r2
     9ec:	2200      	movs	r2, #0
     9ee:	701a      	strb	r2, [r3, #0]
     9f0:	f04f 33ff 	mov.w	r3, #4294967295	; 0xffffffff
     9f4:	60fb      	str	r3, [r7, #12]
     9f6:	68fb      	ldr	r3, [r7, #12]
     9f8:	3301      	adds	r3, #1
     9fa:	60fb      	str	r3, [r7, #12]
     9fc:	68fb      	ldr	r3, [r7, #12]
     9fe:	683a      	ldr	r2, [r7, #0]
     a00:	429a      	cmp	r2, r3
     a02:	d8d5      	bhi.n	9b0 <LOG_ReadLine+0x28>
     a04:	e000      	b.n	a08 <LOG_ReadLine+0x80>
     a06:	bf00      	nop
     a08:	68fb      	ldr	r3, [r7, #12]
     a0a:	683a      	ldr	r2, [r7, #0]
     a0c:	429a      	cmp	r2, r3
     a0e:	d105      	bne.n	a1c <LOG_ReadLine+0x94>
     a10:	68fb      	ldr	r3, [r7, #12]
     a12:	687a      	ldr	r2, [r7, #4]
     a14:	4413      	add	r3, r2
     a16:	2200      	movs	r2, #0
     a18:	701a      	strb	r2, [r3, #0]
     a1a:	e005      	b.n	a28 <LOG_ReadLine+0xa0>
     a1c:	68fb      	ldr	r3, [r7, #12]
     a1e:	3301      	adds	r3, #1
     a20:	687a      	ldr	r2, [r7, #4]
     a22:	4413      	add	r3, r2
     a24:	2200      	movs	r2, #0
     a26:	701a      	strb	r2, [r3, #0]
     a28:	68fb      	ldr	r3, [r7, #12]
     a2a:	4618      	mov	r0, r3
     a2c:	3710      	adds	r7, #16
     a2e:	46bd      	mov	sp, r7
     a30:	bd80      	pop	{r7, pc}
     a32:	bf00      	nop
     a34:	00017fa4 	.word	0x00017fa4
     a38:	00017fe0 	.word	0x00017fe0
     a3c:	00017fb0 	.word	0x00017fb0

00000a40 <LOG_ReadCharacter>:
     a40:	b580      	push	{r7, lr}
     a42:	b084      	sub	sp, #16
     a44:	af00      	add	r7, sp, #0
     a46:	6078      	str	r0, [r7, #4]
     a48:	687b      	ldr	r3, [r7, #4]
     a4a:	2b00      	cmp	r3, #0
     a4c:	d106      	bne.n	a5c <LOG_ReadCharacter+0x1c>
     a4e:	4b0d      	ldr	r3, [pc, #52]	; (a84 <LOG_ReadCharacter+0x44>)
     a50:	4a0d      	ldr	r2, [pc, #52]	; (a88 <LOG_ReadCharacter+0x48>)
     a52:	f44f 71cb 	mov.w	r1, #406	; 0x196
     a56:	480d      	ldr	r0, [pc, #52]	; (a8c <LOG_ReadCharacter+0x4c>)
     a58:	f7ff fcda 	bl	410 <__assert_func>
     a5c:	2300      	movs	r3, #0
     a5e:	60fb      	str	r3, [r7, #12]
     a60:	6878      	ldr	r0, [r7, #4]
     a62:	f000 f815 	bl	a90 <LOG_ReadOneCharacter>
     a66:	4603      	mov	r3, r0
     a68:	2b00      	cmp	r3, #0
     a6a:	d102      	bne.n	a72 <LOG_ReadCharacter+0x32>
     a6c:	2301      	movs	r3, #1
     a6e:	60fb      	str	r3, [r7, #12]
     a70:	e002      	b.n	a78 <LOG_ReadCharacter+0x38>
     a72:	f04f 33ff 	mov.w	r3, #4294967295	; 0xffffffff
     a76:	60fb      	str	r3, [r7, #12]
     a78:	68fb      	ldr	r3, [r7, #12]
     a7a:	4618      	mov	r0, r3
     a7c:	3710      	adds	r7, #16
     a7e:	46bd      	mov	sp, r7
     a80:	bd80      	pop	{r7, pc}
     a82:	bf00      	nop
     a84:	00017fc8 	.word	0x00017fc8
     a88:	00017ff0 	.word	0x00017ff0
     a8c:	00017fb0 	.word	0x00017fb0

00000a90 <LOG_ReadOneCharacter>:
     a90:	b580      	push	{r7, lr}
     a92:	b082      	sub	sp, #8
     a94:	af00      	add	r7, sp, #0
     a96:	6078      	str	r0, [r7, #4]
     a98:	2200      	movs	r2, #0
     a9a:	2101      	movs	r1, #1
     a9c:	6878      	ldr	r0, [r7, #4]
     a9e:	f7ff fec9 	bl	834 <IO_Transfer>
     aa2:	4603      	mov	r3, r0
     aa4:	2b00      	cmp	r3, #0
     aa6:	d001      	beq.n	aac <LOG_ReadOneCharacter+0x1c>
     aa8:	2301      	movs	r3, #1
     aaa:	e000      	b.n	aae <LOG_ReadOneCharacter+0x1e>
     aac:	2300      	movs	r3, #0
     aae:	4618      	mov	r0, r3
     ab0:	3708      	adds	r7, #8
     ab2:	46bd      	mov	sp, r7
     ab4:	bd80      	pop	{r7, pc}

00000ab6 <ScanIgnoreWhiteSpace>:
     ab6:	b480      	push	{r7}
     ab8:	b085      	sub	sp, #20
     aba:	af00      	add	r7, sp, #0
     abc:	6078      	str	r0, [r7, #4]
     abe:	2300      	movs	r3, #0
     ac0:	73fb      	strb	r3, [r7, #15]
     ac2:	687b      	ldr	r3, [r7, #4]
     ac4:	681b      	ldr	r3, [r3, #0]
     ac6:	781b      	ldrb	r3, [r3, #0]
     ac8:	73bb      	strb	r3, [r7, #14]
     aca:	e00b      	b.n	ae4 <ScanIgnoreWhiteSpace+0x2e>
     acc:	7bfb      	ldrb	r3, [r7, #15]
     ace:	3301      	adds	r3, #1
     ad0:	73fb      	strb	r3, [r7, #15]
     ad2:	687b      	ldr	r3, [r7, #4]
     ad4:	681b      	ldr	r3, [r3, #0]
     ad6:	1c5a      	adds	r2, r3, #1
     ad8:	687b      	ldr	r3, [r7, #4]
     ada:	601a      	str	r2, [r3, #0]
     adc:	687b      	ldr	r3, [r7, #4]
     ade:	681b      	ldr	r3, [r3, #0]
     ae0:	781b      	ldrb	r3, [r3, #0]
     ae2:	73bb      	strb	r3, [r7, #14]
     ae4:	7bbb      	ldrb	r3, [r7, #14]
     ae6:	2b20      	cmp	r3, #32
     ae8:	d0f0      	beq.n	acc <ScanIgnoreWhiteSpace+0x16>
     aea:	7bbb      	ldrb	r3, [r7, #14]
     aec:	2b09      	cmp	r3, #9
     aee:	d0ed      	beq.n	acc <ScanIgnoreWhiteSpace+0x16>
     af0:	7bbb      	ldrb	r3, [r7, #14]
     af2:	2b0a      	cmp	r3, #10
     af4:	d0ea      	beq.n	acc <ScanIgnoreWhiteSpace+0x16>
     af6:	7bbb      	ldrb	r3, [r7, #14]
     af8:	2b0d      	cmp	r3, #13
     afa:	d0e7      	beq.n	acc <ScanIgnoreWhiteSpace+0x16>
     afc:	7bbb      	ldrb	r3, [r7, #14]
     afe:	2b0b      	cmp	r3, #11
     b00:	d0e4      	beq.n	acc <ScanIgnoreWhiteSpace+0x16>
     b02:	7bbb      	ldrb	r3, [r7, #14]
     b04:	2b0c      	cmp	r3, #12
     b06:	d0e1      	beq.n	acc <ScanIgnoreWhiteSpace+0x16>
     b08:	7bfb      	ldrb	r3, [r7, #15]
     b0a:	4618      	mov	r0, r3
     b0c:	3714      	adds	r7, #20
     b0e:	46bd      	mov	sp, r7
     b10:	f85d 7b04 	ldr.w	r7, [sp], #4
     b14:	4770      	bx	lr

00000b16 <ConvertRadixNumToString>:
     b16:	b480      	push	{r7}
     b18:	b08d      	sub	sp, #52	; 0x34
     b1a:	af00      	add	r7, sp, #0
     b1c:	60f8      	str	r0, [r7, #12]
     b1e:	60b9      	str	r1, [r7, #8]
     b20:	607a      	str	r2, [r7, #4]
     b22:	603b      	str	r3, [r7, #0]
     b24:	2300      	movs	r3, #0
     b26:	61fb      	str	r3, [r7, #28]
     b28:	68fb      	ldr	r3, [r7, #12]
     b2a:	61bb      	str	r3, [r7, #24]
     b2c:	69bb      	ldr	r3, [r7, #24]
     b2e:	1c5a      	adds	r2, r3, #1
     b30:	61ba      	str	r2, [r7, #24]
     b32:	2200      	movs	r2, #0
     b34:	701a      	strb	r2, [r3, #0]
     b36:	687b      	ldr	r3, [r7, #4]
     b38:	2b00      	cmp	r3, #0
     b3a:	d035      	beq.n	ba8 <ConvertRadixNumToString+0x92>
     b3c:	68bb      	ldr	r3, [r7, #8]
     b3e:	681b      	ldr	r3, [r3, #0]
     b40:	62fb      	str	r3, [r7, #44]	; 0x2c
     b42:	6afb      	ldr	r3, [r7, #44]	; 0x2c
     b44:	2b00      	cmp	r3, #0
     b46:	d12b      	bne.n	ba0 <ConvertRadixNumToString+0x8a>
     b48:	69bb      	ldr	r3, [r7, #24]
     b4a:	2230      	movs	r2, #48	; 0x30
     b4c:	701a      	strb	r2, [r3, #0]
     b4e:	69fb      	ldr	r3, [r7, #28]
     b50:	3301      	adds	r3, #1
     b52:	61fb      	str	r3, [r7, #28]
     b54:	69fb      	ldr	r3, [r7, #28]
     b56:	e062      	b.n	c1e <ConvertRadixNumToString+0x108>
     b58:	6afa      	ldr	r2, [r7, #44]	; 0x2c
     b5a:	683b      	ldr	r3, [r7, #0]
     b5c:	fb92 f3f3 	sdiv	r3, r2, r3
     b60:	613b      	str	r3, [r7, #16]
     b62:	693b      	ldr	r3, [r7, #16]
     b64:	683a      	ldr	r2, [r7, #0]
     b66:	fb02 f303 	mul.w	r3, r2, r3
     b6a:	6afa      	ldr	r2, [r7, #44]	; 0x2c
     b6c:	1ad3      	subs	r3, r2, r3
     b6e:	62bb      	str	r3, [r7, #40]	; 0x28
     b70:	6abb      	ldr	r3, [r7, #40]	; 0x28
     b72:	2b00      	cmp	r3, #0
     b74:	da06      	bge.n	b84 <ConvertRadixNumToString+0x6e>
     b76:	6abb      	ldr	r3, [r7, #40]	; 0x28
     b78:	623b      	str	r3, [r7, #32]
     b7a:	6a3b      	ldr	r3, [r7, #32]
     b7c:	f1c3 0330 	rsb	r3, r3, #48	; 0x30
     b80:	62bb      	str	r3, [r7, #40]	; 0x28
     b82:	e002      	b.n	b8a <ConvertRadixNumToString+0x74>
     b84:	6abb      	ldr	r3, [r7, #40]	; 0x28
     b86:	3330      	adds	r3, #48	; 0x30
     b88:	62bb      	str	r3, [r7, #40]	; 0x28
     b8a:	693b      	ldr	r3, [r7, #16]
     b8c:	62fb      	str	r3, [r7, #44]	; 0x2c
     b8e:	69bb      	ldr	r3, [r7, #24]
     b90:	1c5a      	adds	r2, r3, #1
     b92:	61ba      	str	r2, [r7, #24]
     b94:	6aba      	ldr	r2, [r7, #40]	; 0x28
     b96:	b2d2      	uxtb	r2, r2
     b98:	701a      	strb	r2, [r3, #0]
     b9a:	69fb      	ldr	r3, [r7, #28]
     b9c:	3301      	adds	r3, #1
     b9e:	61fb      	str	r3, [r7, #28]
     ba0:	6afb      	ldr	r3, [r7, #44]	; 0x2c
     ba2:	2b00      	cmp	r3, #0
     ba4:	d1d8      	bne.n	b58 <ConvertRadixNumToString+0x42>
     ba6:	e039      	b.n	c1c <ConvertRadixNumToString+0x106>
     ba8:	68bb      	ldr	r3, [r7, #8]
     baa:	681b      	ldr	r3, [r3, #0]
     bac:	627b      	str	r3, [r7, #36]	; 0x24
     bae:	6a7b      	ldr	r3, [r7, #36]	; 0x24
     bb0:	2b00      	cmp	r3, #0
     bb2:	d130      	bne.n	c16 <ConvertRadixNumToString+0x100>
     bb4:	69bb      	ldr	r3, [r7, #24]
     bb6:	2230      	movs	r2, #48	; 0x30
     bb8:	701a      	strb	r2, [r3, #0]
     bba:	69fb      	ldr	r3, [r7, #28]
     bbc:	3301      	adds	r3, #1
     bbe:	61fb      	str	r3, [r7, #28]
     bc0:	69fb      	ldr	r3, [r7, #28]
     bc2:	e02c      	b.n	c1e <ConvertRadixNumToString+0x108>
     bc4:	683b      	ldr	r3, [r7, #0]
     bc6:	6a7a      	ldr	r2, [r7, #36]	; 0x24
     bc8:	fbb2 f3f3 	udiv	r3, r2, r3
     bcc:	617b      	str	r3, [r7, #20]
     bce:	683b      	ldr	r3, [r7, #0]
     bd0:	697a      	ldr	r2, [r7, #20]
     bd2:	fb02 f303 	mul.w	r3, r2, r3
     bd6:	6a7a      	ldr	r2, [r7, #36]	; 0x24
     bd8:	1ad3      	subs	r3, r2, r3
     bda:	623b      	str	r3, [r7, #32]
     bdc:	6a3b      	ldr	r3, [r7, #32]
     bde:	2b09      	cmp	r3, #9
     be0:	d803      	bhi.n	bea <ConvertRadixNumToString+0xd4>
     be2:	6a3b      	ldr	r3, [r7, #32]
     be4:	3330      	adds	r3, #48	; 0x30
     be6:	623b      	str	r3, [r7, #32]
     be8:	e00a      	b.n	c00 <ConvertRadixNumToString+0xea>
     bea:	f897 3038 	ldrb.w	r3, [r7, #56]	; 0x38
     bee:	2b00      	cmp	r3, #0
     bf0:	d001      	beq.n	bf6 <ConvertRadixNumToString+0xe0>
     bf2:	2241      	movs	r2, #65	; 0x41
     bf4:	e000      	b.n	bf8 <ConvertRadixNumToString+0xe2>
     bf6:	2261      	movs	r2, #97	; 0x61
     bf8:	6a3b      	ldr	r3, [r7, #32]
     bfa:	4413      	add	r3, r2
     bfc:	3b0a      	subs	r3, #10
     bfe:	623b      	str	r3, [r7, #32]
     c00:	697b      	ldr	r3, [r7, #20]
     c02:	627b      	str	r3, [r7, #36]	; 0x24
     c04:	69bb      	ldr	r3, [r7, #24]
     c06:	1c5a      	adds	r2, r3, #1
     c08:	61ba      	str	r2, [r7, #24]
     c0a:	6a3a      	ldr	r2, [r7, #32]
     c0c:	b2d2      	uxtb	r2, r2
     c0e:	701a      	strb	r2, [r3, #0]
     c10:	69fb      	ldr	r3, [r7, #28]
     c12:	3301      	adds	r3, #1
     c14:	61fb      	str	r3, [r7, #28]
     c16:	6a7b      	ldr	r3, [r7, #36]	; 0x24
     c18:	2b00      	cmp	r3, #0
     c1a:	d1d3      	bne.n	bc4 <ConvertRadixNumToString+0xae>
     c1c:	69fb      	ldr	r3, [r7, #28]
     c1e:	4618      	mov	r0, r3
     c20:	3734      	adds	r7, #52	; 0x34
     c22:	46bd      	mov	sp, r7
     c24:	f85d 7b04 	ldr.w	r7, [sp], #4
     c28:	4770      	bx	lr

00000c2a <StrFormatPrintf>:
     c2a:	b590      	push	{r4, r7, lr}
     c2c:	b09d      	sub	sp, #116	; 0x74
     c2e:	af02      	add	r7, sp, #8
     c30:	60f8      	str	r0, [r7, #12]
     c32:	60b9      	str	r1, [r7, #8]
     c34:	607a      	str	r2, [r7, #4]
     c36:	603b      	str	r3, [r7, #0]
     c38:	2300      	movs	r3, #0
     c3a:	663b      	str	r3, [r7, #96]	; 0x60
     c3c:	2300      	movs	r3, #0
     c3e:	65fb      	str	r3, [r7, #92]	; 0x5c
     c40:	2300      	movs	r3, #0
     c42:	61bb      	str	r3, [r7, #24]
     c44:	2300      	movs	r3, #0
     c46:	f887 304a 	strb.w	r3, [r7, #74]	; 0x4a
     c4a:	2300      	movs	r3, #0
     c4c:	613b      	str	r3, [r7, #16]
     c4e:	68fb      	ldr	r3, [r7, #12]
     c50:	667b      	str	r3, [r7, #100]	; 0x64
     c52:	e164      	b.n	f1e <StrFormatPrintf+0x2f4>
     c54:	6c7b      	ldr	r3, [r7, #68]	; 0x44
     c56:	2b25      	cmp	r3, #37	; 0x25
     c58:	d008      	beq.n	c6c <StrFormatPrintf+0x42>
     c5a:	6c7b      	ldr	r3, [r7, #68]	; 0x44
     c5c:	b2da      	uxtb	r2, r3
     c5e:	f107 0118 	add.w	r1, r7, #24
     c62:	683c      	ldr	r4, [r7, #0]
     c64:	2301      	movs	r3, #1
     c66:	6878      	ldr	r0, [r7, #4]
     c68:	47a0      	blx	r4
     c6a:	e155      	b.n	f18 <StrFormatPrintf+0x2ee>
     c6c:	2301      	movs	r3, #1
     c6e:	f887 304b 	strb.w	r3, [r7, #75]	; 0x4b
     c72:	2300      	movs	r3, #0
     c74:	657b      	str	r3, [r7, #84]	; 0x54
     c76:	2300      	movs	r3, #0
     c78:	65bb      	str	r3, [r7, #88]	; 0x58
     c7a:	e01b      	b.n	cb4 <StrFormatPrintf+0x8a>
     c7c:	6e7b      	ldr	r3, [r7, #100]	; 0x64
     c7e:	3301      	adds	r3, #1
     c80:	667b      	str	r3, [r7, #100]	; 0x64
     c82:	6e7b      	ldr	r3, [r7, #100]	; 0x64
     c84:	781b      	ldrb	r3, [r3, #0]
     c86:	647b      	str	r3, [r7, #68]	; 0x44
     c88:	6c7b      	ldr	r3, [r7, #68]	; 0x44
     c8a:	2b2f      	cmp	r3, #47	; 0x2f
     c8c:	dd0d      	ble.n	caa <StrFormatPrintf+0x80>
     c8e:	6c7b      	ldr	r3, [r7, #68]	; 0x44
     c90:	2b39      	cmp	r3, #57	; 0x39
     c92:	dc0a      	bgt.n	caa <StrFormatPrintf+0x80>
     c94:	6d7a      	ldr	r2, [r7, #84]	; 0x54
     c96:	4613      	mov	r3, r2
     c98:	009b      	lsls	r3, r3, #2
     c9a:	4413      	add	r3, r2
     c9c:	005b      	lsls	r3, r3, #1
     c9e:	461a      	mov	r2, r3
     ca0:	6c7b      	ldr	r3, [r7, #68]	; 0x44
     ca2:	4413      	add	r3, r2
     ca4:	3b30      	subs	r3, #48	; 0x30
     ca6:	657b      	str	r3, [r7, #84]	; 0x54
     ca8:	e004      	b.n	cb4 <StrFormatPrintf+0x8a>
     caa:	6e7b      	ldr	r3, [r7, #100]	; 0x64
     cac:	3b01      	subs	r3, #1
     cae:	667b      	str	r3, [r7, #100]	; 0x64
     cb0:	2301      	movs	r3, #1
     cb2:	65bb      	str	r3, [r7, #88]	; 0x58
     cb4:	6dbb      	ldr	r3, [r7, #88]	; 0x58
     cb6:	2b00      	cmp	r3, #0
     cb8:	d0e0      	beq.n	c7c <StrFormatPrintf+0x52>
     cba:	2306      	movs	r3, #6
     cbc:	653b      	str	r3, [r7, #80]	; 0x50
     cbe:	6e7b      	ldr	r3, [r7, #100]	; 0x64
     cc0:	3301      	adds	r3, #1
     cc2:	667b      	str	r3, [r7, #100]	; 0x64
     cc4:	6e7b      	ldr	r3, [r7, #100]	; 0x64
     cc6:	781b      	ldrb	r3, [r3, #0]
     cc8:	2b2e      	cmp	r3, #46	; 0x2e
     cca:	d124      	bne.n	d16 <StrFormatPrintf+0xec>
     ccc:	2300      	movs	r3, #0
     cce:	653b      	str	r3, [r7, #80]	; 0x50
     cd0:	2300      	movs	r3, #0
     cd2:	65bb      	str	r3, [r7, #88]	; 0x58
     cd4:	e01b      	b.n	d0e <StrFormatPrintf+0xe4>
     cd6:	6e7b      	ldr	r3, [r7, #100]	; 0x64
     cd8:	3301      	adds	r3, #1
     cda:	667b      	str	r3, [r7, #100]	; 0x64
     cdc:	6e7b      	ldr	r3, [r7, #100]	; 0x64
     cde:	781b      	ldrb	r3, [r3, #0]
     ce0:	647b      	str	r3, [r7, #68]	; 0x44
     ce2:	6c7b      	ldr	r3, [r7, #68]	; 0x44
     ce4:	2b2f      	cmp	r3, #47	; 0x2f
     ce6:	dd0d      	ble.n	d04 <StrFormatPrintf+0xda>
     ce8:	6c7b      	ldr	r3, [r7, #68]	; 0x44
     cea:	2b39      	cmp	r3, #57	; 0x39
     cec:	dc0a      	bgt.n	d04 <StrFormatPrintf+0xda>
     cee:	6d3a      	ldr	r2, [r7, #80]	; 0x50
     cf0:	4613      	mov	r3, r2
     cf2:	009b      	lsls	r3, r3, #2
     cf4:	4413      	add	r3, r2
     cf6:	005b      	lsls	r3, r3, #1
     cf8:	461a      	mov	r2, r3
     cfa:	6c7b      	ldr	r3, [r7, #68]	; 0x44
     cfc:	4413      	add	r3, r2
     cfe:	3b30      	subs	r3, #48	; 0x30
     d00:	653b      	str	r3, [r7, #80]	; 0x50
     d02:	e004      	b.n	d0e <StrFormatPrintf+0xe4>
     d04:	6e7b      	ldr	r3, [r7, #100]	; 0x64
     d06:	3b01      	subs	r3, #1
     d08:	667b      	str	r3, [r7, #100]	; 0x64
     d0a:	2301      	movs	r3, #1
     d0c:	65bb      	str	r3, [r7, #88]	; 0x58
     d0e:	6dbb      	ldr	r3, [r7, #88]	; 0x58
     d10:	2b00      	cmp	r3, #0
     d12:	d0e0      	beq.n	cd6 <StrFormatPrintf+0xac>
     d14:	e002      	b.n	d1c <StrFormatPrintf+0xf2>
     d16:	6e7b      	ldr	r3, [r7, #100]	; 0x64
     d18:	3b01      	subs	r3, #1
     d1a:	667b      	str	r3, [r7, #100]	; 0x64
     d1c:	6e7b      	ldr	r3, [r7, #100]	; 0x64
     d1e:	3301      	adds	r3, #1
     d20:	667b      	str	r3, [r7, #100]	; 0x64
     d22:	6e7b      	ldr	r3, [r7, #100]	; 0x64
     d24:	781b      	ldrb	r3, [r3, #0]
     d26:	647b      	str	r3, [r7, #68]	; 0x44
     d28:	6c7b      	ldr	r3, [r7, #68]	; 0x44
     d2a:	2b64      	cmp	r3, #100	; 0x64
     d2c:	d01b      	beq.n	d66 <StrFormatPrintf+0x13c>
     d2e:	6c7b      	ldr	r3, [r7, #68]	; 0x44
     d30:	2b69      	cmp	r3, #105	; 0x69
     d32:	d018      	beq.n	d66 <StrFormatPrintf+0x13c>
     d34:	6c7b      	ldr	r3, [r7, #68]	; 0x44
     d36:	2b66      	cmp	r3, #102	; 0x66
     d38:	d015      	beq.n	d66 <StrFormatPrintf+0x13c>
     d3a:	6c7b      	ldr	r3, [r7, #68]	; 0x44
     d3c:	2b46      	cmp	r3, #70	; 0x46
     d3e:	d012      	beq.n	d66 <StrFormatPrintf+0x13c>
     d40:	6c7b      	ldr	r3, [r7, #68]	; 0x44
     d42:	2b78      	cmp	r3, #120	; 0x78
     d44:	d00f      	beq.n	d66 <StrFormatPrintf+0x13c>
     d46:	6c7b      	ldr	r3, [r7, #68]	; 0x44
     d48:	2b58      	cmp	r3, #88	; 0x58
     d4a:	d00c      	beq.n	d66 <StrFormatPrintf+0x13c>
     d4c:	6c7b      	ldr	r3, [r7, #68]	; 0x44
     d4e:	2b6f      	cmp	r3, #111	; 0x6f
     d50:	d009      	beq.n	d66 <StrFormatPrintf+0x13c>
     d52:	6c7b      	ldr	r3, [r7, #68]	; 0x44
     d54:	2b62      	cmp	r3, #98	; 0x62
     d56:	d006      	beq.n	d66 <StrFormatPrintf+0x13c>
     d58:	6c7b      	ldr	r3, [r7, #68]	; 0x44
     d5a:	2b70      	cmp	r3, #112	; 0x70
     d5c:	d003      	beq.n	d66 <StrFormatPrintf+0x13c>
     d5e:	6c7b      	ldr	r3, [r7, #68]	; 0x44
     d60:	2b75      	cmp	r3, #117	; 0x75
     d62:	f040 8096 	bne.w	e92 <StrFormatPrintf+0x268>
     d66:	6c7b      	ldr	r3, [r7, #68]	; 0x44
     d68:	2b64      	cmp	r3, #100	; 0x64
     d6a:	d002      	beq.n	d72 <StrFormatPrintf+0x148>
     d6c:	6c7b      	ldr	r3, [r7, #68]	; 0x44
     d6e:	2b69      	cmp	r3, #105	; 0x69
     d70:	d115      	bne.n	d9e <StrFormatPrintf+0x174>
     d72:	68bb      	ldr	r3, [r7, #8]
     d74:	1d1a      	adds	r2, r3, #4
     d76:	60ba      	str	r2, [r7, #8]
     d78:	681b      	ldr	r3, [r3, #0]
     d7a:	617b      	str	r3, [r7, #20]
     d7c:	f107 0114 	add.w	r1, r7, #20
     d80:	f107 001c 	add.w	r0, r7, #28
     d84:	f897 304b 	ldrb.w	r3, [r7, #75]	; 0x4b
     d88:	9300      	str	r3, [sp, #0]
     d8a:	230a      	movs	r3, #10
     d8c:	2201      	movs	r2, #1
     d8e:	f7ff fec2 	bl	b16 <ConvertRadixNumToString>
     d92:	65f8      	str	r0, [r7, #92]	; 0x5c
     d94:	f107 021c 	add.w	r2, r7, #28
     d98:	6dfb      	ldr	r3, [r7, #92]	; 0x5c
     d9a:	4413      	add	r3, r2
     d9c:	663b      	str	r3, [r7, #96]	; 0x60
     d9e:	6c7b      	ldr	r3, [r7, #68]	; 0x44
     da0:	2b58      	cmp	r3, #88	; 0x58
     da2:	d002      	beq.n	daa <StrFormatPrintf+0x180>
     da4:	6c7b      	ldr	r3, [r7, #68]	; 0x44
     da6:	2b78      	cmp	r3, #120	; 0x78
     da8:	d11b      	bne.n	de2 <StrFormatPrintf+0x1b8>
     daa:	6c7b      	ldr	r3, [r7, #68]	; 0x44
     dac:	2b78      	cmp	r3, #120	; 0x78
     dae:	d102      	bne.n	db6 <StrFormatPrintf+0x18c>
     db0:	2300      	movs	r3, #0
     db2:	f887 304b 	strb.w	r3, [r7, #75]	; 0x4b
     db6:	68bb      	ldr	r3, [r7, #8]
     db8:	1d1a      	adds	r2, r3, #4
     dba:	60ba      	str	r2, [r7, #8]
     dbc:	681b      	ldr	r3, [r3, #0]
     dbe:	613b      	str	r3, [r7, #16]
     dc0:	f107 0110 	add.w	r1, r7, #16
     dc4:	f107 001c 	add.w	r0, r7, #28
     dc8:	f897 304b 	ldrb.w	r3, [r7, #75]	; 0x4b
     dcc:	9300      	str	r3, [sp, #0]
     dce:	2310      	movs	r3, #16
     dd0:	2200      	movs	r2, #0
     dd2:	f7ff fea0 	bl	b16 <ConvertRadixNumToString>
     dd6:	65f8      	str	r0, [r7, #92]	; 0x5c
     dd8:	f107 021c 	add.w	r2, r7, #28
     ddc:	6dfb      	ldr	r3, [r7, #92]	; 0x5c
     dde:	4413      	add	r3, r2
     de0:	663b      	str	r3, [r7, #96]	; 0x60
     de2:	6c7b      	ldr	r3, [r7, #68]	; 0x44
     de4:	2b6f      	cmp	r3, #111	; 0x6f
     de6:	d008      	beq.n	dfa <StrFormatPrintf+0x1d0>
     de8:	6c7b      	ldr	r3, [r7, #68]	; 0x44
     dea:	2b62      	cmp	r3, #98	; 0x62
     dec:	d005      	beq.n	dfa <StrFormatPrintf+0x1d0>
     dee:	6c7b      	ldr	r3, [r7, #68]	; 0x44
     df0:	2b70      	cmp	r3, #112	; 0x70
     df2:	d002      	beq.n	dfa <StrFormatPrintf+0x1d0>
     df4:	6c7b      	ldr	r3, [r7, #68]	; 0x44
     df6:	2b75      	cmp	r3, #117	; 0x75
     df8:	d12f      	bne.n	e5a <StrFormatPrintf+0x230>
     dfa:	68bb      	ldr	r3, [r7, #8]
     dfc:	1d1a      	adds	r2, r3, #4
     dfe:	60ba      	str	r2, [r7, #8]
     e00:	681b      	ldr	r3, [r3, #0]
     e02:	613b      	str	r3, [r7, #16]
     e04:	6c7b      	ldr	r3, [r7, #68]	; 0x44
     e06:	2b6f      	cmp	r3, #111	; 0x6f
     e08:	d103      	bne.n	e12 <StrFormatPrintf+0x1e8>
     e0a:	2308      	movs	r3, #8
     e0c:	f887 304a 	strb.w	r3, [r7, #74]	; 0x4a
     e10:	e010      	b.n	e34 <StrFormatPrintf+0x20a>
     e12:	6c7b      	ldr	r3, [r7, #68]	; 0x44
     e14:	2b62      	cmp	r3, #98	; 0x62
     e16:	d103      	bne.n	e20 <StrFormatPrintf+0x1f6>
     e18:	2302      	movs	r3, #2
     e1a:	f887 304a 	strb.w	r3, [r7, #74]	; 0x4a
     e1e:	e009      	b.n	e34 <StrFormatPrintf+0x20a>
     e20:	6c7b      	ldr	r3, [r7, #68]	; 0x44
     e22:	2b70      	cmp	r3, #112	; 0x70
     e24:	d103      	bne.n	e2e <StrFormatPrintf+0x204>
     e26:	2310      	movs	r3, #16
     e28:	f887 304a 	strb.w	r3, [r7, #74]	; 0x4a
     e2c:	e002      	b.n	e34 <StrFormatPrintf+0x20a>
     e2e:	230a      	movs	r3, #10
     e30:	f887 304a 	strb.w	r3, [r7, #74]	; 0x4a
     e34:	f897 204a 	ldrb.w	r2, [r7, #74]	; 0x4a
     e38:	f107 0110 	add.w	r1, r7, #16
     e3c:	f107 001c 	add.w	r0, r7, #28
     e40:	f897 304b 	ldrb.w	r3, [r7, #75]	; 0x4b
     e44:	9300      	str	r3, [sp, #0]
     e46:	4613      	mov	r3, r2
     e48:	2200      	movs	r2, #0
     e4a:	f7ff fe64 	bl	b16 <ConvertRadixNumToString>
     e4e:	65f8      	str	r0, [r7, #92]	; 0x5c
     e50:	f107 021c 	add.w	r2, r7, #28
     e54:	6dfb      	ldr	r3, [r7, #92]	; 0x5c
     e56:	4413      	add	r3, r2
     e58:	663b      	str	r3, [r7, #96]	; 0x60
     e5a:	6dfb      	ldr	r3, [r7, #92]	; 0x5c
     e5c:	6d7a      	ldr	r2, [r7, #84]	; 0x54
     e5e:	1ad3      	subs	r3, r2, r3
     e60:	f107 0118 	add.w	r1, r7, #24
     e64:	683c      	ldr	r4, [r7, #0]
     e66:	2220      	movs	r2, #32
     e68:	6878      	ldr	r0, [r7, #4]
     e6a:	47a0      	blx	r4
     e6c:	6e3b      	ldr	r3, [r7, #96]	; 0x60
     e6e:	2b00      	cmp	r3, #0
     e70:	d052      	beq.n	f18 <StrFormatPrintf+0x2ee>
     e72:	e009      	b.n	e88 <StrFormatPrintf+0x25e>
     e74:	6e3b      	ldr	r3, [r7, #96]	; 0x60
     e76:	1e5a      	subs	r2, r3, #1
     e78:	663a      	str	r2, [r7, #96]	; 0x60
     e7a:	781a      	ldrb	r2, [r3, #0]
     e7c:	f107 0118 	add.w	r1, r7, #24
     e80:	683c      	ldr	r4, [r7, #0]
     e82:	2301      	movs	r3, #1
     e84:	6878      	ldr	r0, [r7, #4]
     e86:	47a0      	blx	r4
     e88:	6e3b      	ldr	r3, [r7, #96]	; 0x60
     e8a:	781b      	ldrb	r3, [r3, #0]
     e8c:	2b00      	cmp	r3, #0
     e8e:	d1f1      	bne.n	e74 <StrFormatPrintf+0x24a>
     e90:	e042      	b.n	f18 <StrFormatPrintf+0x2ee>
     e92:	6c7b      	ldr	r3, [r7, #68]	; 0x44
     e94:	2b63      	cmp	r3, #99	; 0x63
     e96:	d10e      	bne.n	eb6 <StrFormatPrintf+0x28c>
     e98:	68bb      	ldr	r3, [r7, #8]
     e9a:	1d1a      	adds	r2, r3, #4
     e9c:	60ba      	str	r2, [r7, #8]
     e9e:	681b      	ldr	r3, [r3, #0]
     ea0:	b2db      	uxtb	r3, r3
     ea2:	643b      	str	r3, [r7, #64]	; 0x40
     ea4:	6c3b      	ldr	r3, [r7, #64]	; 0x40
     ea6:	b2da      	uxtb	r2, r3
     ea8:	f107 0118 	add.w	r1, r7, #24
     eac:	683c      	ldr	r4, [r7, #0]
     eae:	2301      	movs	r3, #1
     eb0:	6878      	ldr	r0, [r7, #4]
     eb2:	47a0      	blx	r4
     eb4:	e030      	b.n	f18 <StrFormatPrintf+0x2ee>
     eb6:	6c7b      	ldr	r3, [r7, #68]	; 0x44
     eb8:	2b73      	cmp	r3, #115	; 0x73
     eba:	d125      	bne.n	f08 <StrFormatPrintf+0x2de>
     ebc:	68bb      	ldr	r3, [r7, #8]
     ebe:	1d1a      	adds	r2, r3, #4
     ec0:	60ba      	str	r2, [r7, #8]
     ec2:	681b      	ldr	r3, [r3, #0]
     ec4:	64fb      	str	r3, [r7, #76]	; 0x4c
     ec6:	6cfb      	ldr	r3, [r7, #76]	; 0x4c
     ec8:	2b00      	cmp	r3, #0
     eca:	d025      	beq.n	f18 <StrFormatPrintf+0x2ee>
     ecc:	6cf8      	ldr	r0, [r7, #76]	; 0x4c
     ece:	f016 ffb7 	bl	17e40 <strlen>
     ed2:	4603      	mov	r3, r0
     ed4:	65fb      	str	r3, [r7, #92]	; 0x5c
     ed6:	6dfb      	ldr	r3, [r7, #92]	; 0x5c
     ed8:	6d7a      	ldr	r2, [r7, #84]	; 0x54
     eda:	1ad3      	subs	r3, r2, r3
     edc:	f107 0118 	add.w	r1, r7, #24
     ee0:	683c      	ldr	r4, [r7, #0]
     ee2:	2220      	movs	r2, #32
     ee4:	6878      	ldr	r0, [r7, #4]
     ee6:	47a0      	blx	r4
     ee8:	e009      	b.n	efe <StrFormatPrintf+0x2d4>
     eea:	6cfb      	ldr	r3, [r7, #76]	; 0x4c
     eec:	1c5a      	adds	r2, r3, #1
     eee:	64fa      	str	r2, [r7, #76]	; 0x4c
     ef0:	781a      	ldrb	r2, [r3, #0]
     ef2:	f107 0118 	add.w	r1, r7, #24
     ef6:	683c      	ldr	r4, [r7, #0]
     ef8:	2301      	movs	r3, #1
     efa:	6878      	ldr	r0, [r7, #4]
     efc:	47a0      	blx	r4
     efe:	6cfb      	ldr	r3, [r7, #76]	; 0x4c
     f00:	781b      	ldrb	r3, [r3, #0]
     f02:	2b00      	cmp	r3, #0
     f04:	d1f1      	bne.n	eea <StrFormatPrintf+0x2c0>
     f06:	e007      	b.n	f18 <StrFormatPrintf+0x2ee>
     f08:	6c7b      	ldr	r3, [r7, #68]	; 0x44
     f0a:	b2da      	uxtb	r2, r3
     f0c:	f107 0118 	add.w	r1, r7, #24
     f10:	683c      	ldr	r4, [r7, #0]
     f12:	2301      	movs	r3, #1
     f14:	6878      	ldr	r0, [r7, #4]
     f16:	47a0      	blx	r4
     f18:	6e7b      	ldr	r3, [r7, #100]	; 0x64
     f1a:	3301      	adds	r3, #1
     f1c:	667b      	str	r3, [r7, #100]	; 0x64
     f1e:	6e7b      	ldr	r3, [r7, #100]	; 0x64
     f20:	781b      	ldrb	r3, [r3, #0]
     f22:	647b      	str	r3, [r7, #68]	; 0x44
     f24:	6c7b      	ldr	r3, [r7, #68]	; 0x44
     f26:	2b00      	cmp	r3, #0
     f28:	f47f ae94 	bne.w	c54 <StrFormatPrintf+0x2a>
     f2c:	69bb      	ldr	r3, [r7, #24]
     f2e:	4618      	mov	r0, r3
     f30:	376c      	adds	r7, #108	; 0x6c
     f32:	46bd      	mov	sp, r7
     f34:	bd90      	pop	{r4, r7, pc}
     f36:	Address 0x0000000000000f36 is out of bounds.


00000f38 <StrFormatScanf>:
     f38:	b580      	push	{r7, lr}
     f3a:	b08e      	sub	sp, #56	; 0x38
     f3c:	af00      	add	r7, sp, #0
     f3e:	60f8      	str	r0, [r7, #12]
     f40:	60b9      	str	r1, [r7, #8]
     f42:	607a      	str	r2, [r7, #4]
     f44:	68bb      	ldr	r3, [r7, #8]
     f46:	617b      	str	r3, [r7, #20]
     f48:	2300      	movs	r3, #0
     f4a:	62fb      	str	r3, [r7, #44]	; 0x2c
     f4c:	2300      	movs	r3, #0
     f4e:	627b      	str	r3, [r7, #36]	; 0x24
     f50:	2300      	movs	r3, #0
     f52:	623b      	str	r3, [r7, #32]
     f54:	68fb      	ldr	r3, [r7, #12]
     f56:	613b      	str	r3, [r7, #16]
     f58:	693b      	ldr	r3, [r7, #16]
     f5a:	781b      	ldrb	r3, [r3, #0]
     f5c:	2b00      	cmp	r3, #0
     f5e:	f040 82cf 	bne.w	1500 <_HeapSize+0x500>
     f62:	f04f 33ff 	mov.w	r3, #4294967295	; 0xffffffff
     f66:	e2d7      	b.n	1518 <_HeapSize+0x518>
     f68:	f107 0314 	add.w	r3, r7, #20
     f6c:	4618      	mov	r0, r3
     f6e:	f7ff fda2 	bl	ab6 <ScanIgnoreWhiteSpace>
     f72:	4603      	mov	r3, r0
     f74:	2b00      	cmp	r3, #0
     f76:	d009      	beq.n	f8c <StrFormatScanf+0x54>
     f78:	f107 0310 	add.w	r3, r7, #16
     f7c:	4618      	mov	r0, r3
     f7e:	f7ff fd9a 	bl	ab6 <ScanIgnoreWhiteSpace>
     f82:	4602      	mov	r2, r0
     f84:	6a3b      	ldr	r3, [r7, #32]
     f86:	4413      	add	r3, r2
     f88:	623b      	str	r3, [r7, #32]
     f8a:	e2b9      	b.n	1500 <_HeapSize+0x500>
     f8c:	697b      	ldr	r3, [r7, #20]
     f8e:	781b      	ldrb	r3, [r3, #0]
     f90:	2b25      	cmp	r3, #37	; 0x25
     f92:	d108      	bne.n	fa6 <StrFormatScanf+0x6e>
     f94:	697b      	ldr	r3, [r7, #20]
     f96:	781b      	ldrb	r3, [r3, #0]
     f98:	2b25      	cmp	r3, #37	; 0x25
     f9a:	d118      	bne.n	fce <StrFormatScanf+0x96>
     f9c:	697b      	ldr	r3, [r7, #20]
     f9e:	3301      	adds	r3, #1
     fa0:	781b      	ldrb	r3, [r3, #0]
     fa2:	2b25      	cmp	r3, #37	; 0x25
     fa4:	d113      	bne.n	fce <StrFormatScanf+0x96>
     fa6:	697b      	ldr	r3, [r7, #20]
     fa8:	3301      	adds	r3, #1
     faa:	617b      	str	r3, [r7, #20]
     fac:	693b      	ldr	r3, [r7, #16]
     fae:	781a      	ldrb	r2, [r3, #0]
     fb0:	697b      	ldr	r3, [r7, #20]
     fb2:	781b      	ldrb	r3, [r3, #0]
     fb4:	429a      	cmp	r2, r3
     fb6:	f040 82ad 	bne.w	1514 <_HeapSize+0x514>
     fba:	6a3b      	ldr	r3, [r7, #32]
     fbc:	3301      	adds	r3, #1
     fbe:	623b      	str	r3, [r7, #32]
     fc0:	693b      	ldr	r3, [r7, #16]
     fc2:	3301      	adds	r3, #1
     fc4:	613b      	str	r3, [r7, #16]
     fc6:	697b      	ldr	r3, [r7, #20]
     fc8:	3301      	adds	r3, #1
     fca:	617b      	str	r3, [r7, #20]
     fcc:	e298      	b.n	1500 <_HeapSize+0x500>
     fce:	697b      	ldr	r3, [r7, #20]
     fd0:	3301      	adds	r3, #1
     fd2:	617b      	str	r3, [r7, #20]
     fd4:	2300      	movs	r3, #0
     fd6:	62fb      	str	r3, [r7, #44]	; 0x2c
     fd8:	2300      	movs	r3, #0
     fda:	62bb      	str	r3, [r7, #40]	; 0x28
     fdc:	2300      	movs	r3, #0
     fde:	f887 3037 	strb.w	r3, [r7, #55]	; 0x37
     fe2:	e109      	b.n	11f8 <_HeapSize+0x1f8>
     fe4:	697b      	ldr	r3, [r7, #20]
     fe6:	781b      	ldrb	r3, [r3, #0]
     fe8:	3b30      	subs	r3, #48	; 0x30
     fea:	2b48      	cmp	r3, #72	; 0x48
     fec:	f200 8102 	bhi.w	11f4 <_HeapSize+0x1f4>
     ff0:	a201      	add	r2, pc, #4	; (adr r2, ff8 <StrFormatScanf+0xc0>)
     ff2:	f852 f023 	ldr.w	pc, [r2, r3, lsl #2]
     ff6:	bf00      	nop
     ff8:	0000111d 	.word	0x0000111d
     ffc:	0000111d 	.word	0x0000111d
    1000:	0000111d 	.word	0x0000111d
    1004:	0000111d 	.word	0x0000111d
    1008:	0000111d 	.word	0x0000111d
    100c:	0000111d 	.word	0x0000111d
    1010:	0000111d 	.word	0x0000111d
    1014:	0000111d 	.word	0x0000111d
    1018:	0000111d 	.word	0x0000111d
    101c:	0000111d 	.word	0x0000111d
    1020:	000011f5 	.word	0x000011f5
    1024:	000011f5 	.word	0x000011f5
    1028:	000011f5 	.word	0x000011f5
    102c:	000011f5 	.word	0x000011f5
    1030:	000011f5 	.word	0x000011f5
    1034:	000011f5 	.word	0x000011f5
    1038:	000011f5 	.word	0x000011f5
    103c:	000011f5 	.word	0x000011f5
    1040:	000011f5 	.word	0x000011f5
    1044:	000011f5 	.word	0x000011f5
    1048:	000011f5 	.word	0x000011f5
    104c:	000011f5 	.word	0x000011f5
    1050:	000011f5 	.word	0x000011f5
    1054:	000011f5 	.word	0x000011f5
    1058:	000011f5 	.word	0x000011f5
    105c:	000011f5 	.word	0x000011f5
    1060:	000011f5 	.word	0x000011f5
    1064:	000011f5 	.word	0x000011f5
    1068:	000011f5 	.word	0x000011f5
    106c:	000011f5 	.word	0x000011f5
    1070:	000011f5 	.word	0x000011f5
    1074:	000011f5 	.word	0x000011f5
    1078:	000011f5 	.word	0x000011f5
    107c:	000011f5 	.word	0x000011f5
    1080:	000011f5 	.word	0x000011f5
    1084:	000011f5 	.word	0x000011f5
    1088:	000011f5 	.word	0x000011f5
    108c:	000011f5 	.word	0x000011f5
    1090:	000011f5 	.word	0x000011f5
    1094:	000011f5 	.word	0x000011f5
    1098:	0000119f 	.word	0x0000119f
    109c:	000011f5 	.word	0x000011f5
    10a0:	000011f5 	.word	0x000011f5
    10a4:	000011f5 	.word	0x000011f5
    10a8:	000011f5 	.word	0x000011f5
    10ac:	000011f5 	.word	0x000011f5
    10b0:	000011f5 	.word	0x000011f5
    10b4:	000011f5 	.word	0x000011f5
    10b8:	000011f5 	.word	0x000011f5
    10bc:	000011f5 	.word	0x000011f5
    10c0:	000011f5 	.word	0x000011f5
    10c4:	000011cb 	.word	0x000011cb
    10c8:	00001155 	.word	0x00001155
    10cc:	000011f5 	.word	0x000011f5
    10d0:	000011f5 	.word	0x000011f5
    10d4:	000011f5 	.word	0x000011f5
    10d8:	000011f5 	.word	0x000011f5
    10dc:	000011b5 	.word	0x000011b5
    10e0:	000011f5 	.word	0x000011f5
    10e4:	000011f5 	.word	0x000011f5
    10e8:	000011f5 	.word	0x000011f5
    10ec:	000011f5 	.word	0x000011f5
    10f0:	000011f5 	.word	0x000011f5
    10f4:	00001189 	.word	0x00001189
    10f8:	000011f5 	.word	0x000011f5
    10fc:	000011f5 	.word	0x000011f5
    1100:	000011f5 	.word	0x000011f5
    1104:	000011e5 	.word	0x000011e5
    1108:	000011f5 	.word	0x000011f5
    110c:	00001173 	.word	0x00001173
    1110:	000011f5 	.word	0x000011f5
    1114:	000011f5 	.word	0x000011f5
    1118:	0000119f 	.word	0x0000119f
    111c:	6abb      	ldr	r3, [r7, #40]	; 0x28
    111e:	2b00      	cmp	r3, #0
    1120:	d001      	beq.n	1126 <_HeapSize+0x126>
    1122:	6a7b      	ldr	r3, [r7, #36]	; 0x24
    1124:	e1f8      	b.n	1518 <_HeapSize+0x518>
    1126:	6aba      	ldr	r2, [r7, #40]	; 0x28
    1128:	4613      	mov	r3, r2
    112a:	009b      	lsls	r3, r3, #2
    112c:	4413      	add	r3, r2
    112e:	005b      	lsls	r3, r3, #1
    1130:	461a      	mov	r2, r3
    1132:	697b      	ldr	r3, [r7, #20]
    1134:	781b      	ldrb	r3, [r3, #0]
    1136:	4413      	add	r3, r2
    1138:	3b30      	subs	r3, #48	; 0x30
    113a:	62bb      	str	r3, [r7, #40]	; 0x28
    113c:	697b      	ldr	r3, [r7, #20]
    113e:	3301      	adds	r3, #1
    1140:	617b      	str	r3, [r7, #20]
    1142:	697b      	ldr	r3, [r7, #20]
    1144:	781b      	ldrb	r3, [r3, #0]
    1146:	2b2f      	cmp	r3, #47	; 0x2f
    1148:	d956      	bls.n	11f8 <_HeapSize+0x1f8>
    114a:	697b      	ldr	r3, [r7, #20]
    114c:	781b      	ldrb	r3, [r3, #0]
    114e:	2b39      	cmp	r3, #57	; 0x39
    1150:	d9e9      	bls.n	1126 <_HeapSize+0x126>
    1152:	e051      	b.n	11f8 <_HeapSize+0x1f8>
    1154:	230a      	movs	r3, #10
    1156:	f887 3037 	strb.w	r3, [r7, #55]	; 0x37
    115a:	6afb      	ldr	r3, [r7, #44]	; 0x2c
    115c:	f443 5300 	orr.w	r3, r3, #8192	; 0x2000
    1160:	62fb      	str	r3, [r7, #44]	; 0x2c
    1162:	6afb      	ldr	r3, [r7, #44]	; 0x2c
    1164:	f043 0320 	orr.w	r3, r3, #32
    1168:	62fb      	str	r3, [r7, #44]	; 0x2c
    116a:	697b      	ldr	r3, [r7, #20]
    116c:	3301      	adds	r3, #1
    116e:	617b      	str	r3, [r7, #20]
    1170:	e042      	b.n	11f8 <_HeapSize+0x1f8>
    1172:	230a      	movs	r3, #10
    1174:	f887 3037 	strb.w	r3, [r7, #55]	; 0x37
    1178:	6afb      	ldr	r3, [r7, #44]	; 0x2c
    117a:	f043 0320 	orr.w	r3, r3, #32
    117e:	62fb      	str	r3, [r7, #44]	; 0x2c
    1180:	697b      	ldr	r3, [r7, #20]
    1182:	3301      	adds	r3, #1
    1184:	617b      	str	r3, [r7, #20]
    1186:	e037      	b.n	11f8 <_HeapSize+0x1f8>
    1188:	2308      	movs	r3, #8
    118a:	f887 3037 	strb.w	r3, [r7, #55]	; 0x37
    118e:	6afb      	ldr	r3, [r7, #44]	; 0x2c
    1190:	f043 0320 	orr.w	r3, r3, #32
    1194:	62fb      	str	r3, [r7, #44]	; 0x2c
    1196:	697b      	ldr	r3, [r7, #20]
    1198:	3301      	adds	r3, #1
    119a:	617b      	str	r3, [r7, #20]
    119c:	e02c      	b.n	11f8 <_HeapSize+0x1f8>
    119e:	2310      	movs	r3, #16
    11a0:	f887 3037 	strb.w	r3, [r7, #55]	; 0x37
    11a4:	6afb      	ldr	r3, [r7, #44]	; 0x2c
    11a6:	f043 0320 	orr.w	r3, r3, #32
    11aa:	62fb      	str	r3, [r7, #44]	; 0x2c
    11ac:	697b      	ldr	r3, [r7, #20]
    11ae:	3301      	adds	r3, #1
    11b0:	617b      	str	r3, [r7, #20]
    11b2:	e021      	b.n	11f8 <_HeapSize+0x1f8>
    11b4:	2300      	movs	r3, #0
    11b6:	f887 3037 	strb.w	r3, [r7, #55]	; 0x37
    11ba:	6afb      	ldr	r3, [r7, #44]	; 0x2c
    11bc:	f043 0320 	orr.w	r3, r3, #32
    11c0:	62fb      	str	r3, [r7, #44]	; 0x2c
    11c2:	697b      	ldr	r3, [r7, #20]
    11c4:	3301      	adds	r3, #1
    11c6:	617b      	str	r3, [r7, #20]
    11c8:	e016      	b.n	11f8 <_HeapSize+0x1f8>
    11ca:	6afb      	ldr	r3, [r7, #44]	; 0x2c
    11cc:	f043 0304 	orr.w	r3, r3, #4
    11d0:	62fb      	str	r3, [r7, #44]	; 0x2c
    11d2:	6abb      	ldr	r3, [r7, #40]	; 0x28
    11d4:	2b00      	cmp	r3, #0
    11d6:	d101      	bne.n	11dc <_HeapSize+0x1dc>
    11d8:	2301      	movs	r3, #1
    11da:	62bb      	str	r3, [r7, #40]	; 0x28
    11dc:	697b      	ldr	r3, [r7, #20]
    11de:	3301      	adds	r3, #1
    11e0:	617b      	str	r3, [r7, #20]
    11e2:	e009      	b.n	11f8 <_HeapSize+0x1f8>
    11e4:	6afb      	ldr	r3, [r7, #44]	; 0x2c
    11e6:	f043 0308 	orr.w	r3, r3, #8
    11ea:	62fb      	str	r3, [r7, #44]	; 0x2c
    11ec:	697b      	ldr	r3, [r7, #20]
    11ee:	3301      	adds	r3, #1
    11f0:	617b      	str	r3, [r7, #20]
    11f2:	e001      	b.n	11f8 <_HeapSize+0x1f8>
    11f4:	6a7b      	ldr	r3, [r7, #36]	; 0x24
    11f6:	e18f      	b.n	1518 <_HeapSize+0x518>
    11f8:	697b      	ldr	r3, [r7, #20]
    11fa:	781b      	ldrb	r3, [r3, #0]
    11fc:	2b00      	cmp	r3, #0
    11fe:	d005      	beq.n	120c <_HeapSize+0x20c>
    1200:	6afb      	ldr	r3, [r7, #44]	; 0x2c
    1202:	f003 037c 	and.w	r3, r3, #124	; 0x7c
    1206:	2b00      	cmp	r3, #0
    1208:	f43f aeec 	beq.w	fe4 <StrFormatScanf+0xac>
    120c:	6afb      	ldr	r3, [r7, #44]	; 0x2c
    120e:	f003 037c 	and.w	r3, r3, #124	; 0x7c
    1212:	2b00      	cmp	r3, #0
    1214:	d101      	bne.n	121a <_HeapSize+0x21a>
    1216:	6a7b      	ldr	r3, [r7, #36]	; 0x24
    1218:	e17e      	b.n	1518 <_HeapSize+0x518>
    121a:	6abb      	ldr	r3, [r7, #40]	; 0x28
    121c:	2b00      	cmp	r3, #0
    121e:	d101      	bne.n	1224 <_HeapSize+0x224>
    1220:	2363      	movs	r3, #99	; 0x63
    1222:	62bb      	str	r3, [r7, #40]	; 0x28
    1224:	6afb      	ldr	r3, [r7, #44]	; 0x2c
    1226:	f003 037c 	and.w	r3, r3, #124	; 0x7c
    122a:	2b08      	cmp	r3, #8
    122c:	d039      	beq.n	12a2 <_HeapSize+0x2a2>
    122e:	2b20      	cmp	r3, #32
    1230:	f000 808f 	beq.w	1352 <_HeapSize+0x352>
    1234:	2b04      	cmp	r3, #4
    1236:	f040 8161 	bne.w	14fc <_HeapSize+0x4fc>
    123a:	693b      	ldr	r3, [r7, #16]
    123c:	61bb      	str	r3, [r7, #24]
    123e:	687b      	ldr	r3, [r7, #4]
    1240:	1d1a      	adds	r2, r3, #4
    1242:	607a      	str	r2, [r7, #4]
    1244:	681b      	ldr	r3, [r3, #0]
    1246:	633b      	str	r3, [r7, #48]	; 0x30
    1248:	e013      	b.n	1272 <_HeapSize+0x272>
    124a:	6afb      	ldr	r3, [r7, #44]	; 0x2c
    124c:	f003 0302 	and.w	r3, r3, #2
    1250:	2b00      	cmp	r3, #0
    1252:	d108      	bne.n	1266 <_HeapSize+0x266>
    1254:	693a      	ldr	r2, [r7, #16]
    1256:	1c53      	adds	r3, r2, #1
    1258:	613b      	str	r3, [r7, #16]
    125a:	6b3b      	ldr	r3, [r7, #48]	; 0x30
    125c:	1c59      	adds	r1, r3, #1
    125e:	6339      	str	r1, [r7, #48]	; 0x30
    1260:	7812      	ldrb	r2, [r2, #0]
    1262:	701a      	strb	r2, [r3, #0]
    1264:	e002      	b.n	126c <_HeapSize+0x26c>
    1266:	693b      	ldr	r3, [r7, #16]
    1268:	3301      	adds	r3, #1
    126a:	613b      	str	r3, [r7, #16]
    126c:	6a3b      	ldr	r3, [r7, #32]
    126e:	3301      	adds	r3, #1
    1270:	623b      	str	r3, [r7, #32]
    1272:	6abb      	ldr	r3, [r7, #40]	; 0x28
    1274:	1e5a      	subs	r2, r3, #1
    1276:	62ba      	str	r2, [r7, #40]	; 0x28
    1278:	2b00      	cmp	r3, #0
    127a:	d003      	beq.n	1284 <_HeapSize+0x284>
    127c:	693b      	ldr	r3, [r7, #16]
    127e:	781b      	ldrb	r3, [r3, #0]
    1280:	2b00      	cmp	r3, #0
    1282:	d1e2      	bne.n	124a <_HeapSize+0x24a>
    1284:	6afb      	ldr	r3, [r7, #44]	; 0x2c
    1286:	f003 0302 	and.w	r3, r3, #2
    128a:	2b00      	cmp	r3, #0
    128c:	f040 8138 	bne.w	1500 <_HeapSize+0x500>
    1290:	693b      	ldr	r3, [r7, #16]
    1292:	69ba      	ldr	r2, [r7, #24]
    1294:	429a      	cmp	r2, r3
    1296:	f000 8133 	beq.w	1500 <_HeapSize+0x500>
    129a:	6a7b      	ldr	r3, [r7, #36]	; 0x24
    129c:	3301      	adds	r3, #1
    129e:	627b      	str	r3, [r7, #36]	; 0x24
    12a0:	e12e      	b.n	1500 <_HeapSize+0x500>
    12a2:	f107 0310 	add.w	r3, r7, #16
    12a6:	4618      	mov	r0, r3
    12a8:	f7ff fc05 	bl	ab6 <ScanIgnoreWhiteSpace>
    12ac:	4602      	mov	r2, r0
    12ae:	6a3b      	ldr	r3, [r7, #32]
    12b0:	4413      	add	r3, r2
    12b2:	623b      	str	r3, [r7, #32]
    12b4:	693b      	ldr	r3, [r7, #16]
    12b6:	61bb      	str	r3, [r7, #24]
    12b8:	687b      	ldr	r3, [r7, #4]
    12ba:	1d1a      	adds	r2, r3, #4
    12bc:	607a      	str	r2, [r7, #4]
    12be:	681b      	ldr	r3, [r3, #0]
    12c0:	633b      	str	r3, [r7, #48]	; 0x30
    12c2:	e013      	b.n	12ec <_HeapSize+0x2ec>
    12c4:	6afb      	ldr	r3, [r7, #44]	; 0x2c
    12c6:	f003 0302 	and.w	r3, r3, #2
    12ca:	2b00      	cmp	r3, #0
    12cc:	d003      	beq.n	12d6 <_HeapSize+0x2d6>
    12ce:	693b      	ldr	r3, [r7, #16]
    12d0:	3301      	adds	r3, #1
    12d2:	613b      	str	r3, [r7, #16]
    12d4:	e007      	b.n	12e6 <_HeapSize+0x2e6>
    12d6:	693a      	ldr	r2, [r7, #16]
    12d8:	1c53      	adds	r3, r2, #1
    12da:	613b      	str	r3, [r7, #16]
    12dc:	6b3b      	ldr	r3, [r7, #48]	; 0x30
    12de:	1c59      	adds	r1, r3, #1
    12e0:	6339      	str	r1, [r7, #48]	; 0x30
    12e2:	7812      	ldrb	r2, [r2, #0]
    12e4:	701a      	strb	r2, [r3, #0]
    12e6:	6a3b      	ldr	r3, [r7, #32]
    12e8:	3301      	adds	r3, #1
    12ea:	623b      	str	r3, [r7, #32]
    12ec:	6abb      	ldr	r3, [r7, #40]	; 0x28
    12ee:	1e5a      	subs	r2, r3, #1
    12f0:	62ba      	str	r2, [r7, #40]	; 0x28
    12f2:	2b00      	cmp	r3, #0
    12f4:	d01b      	beq.n	132e <_HeapSize+0x32e>
    12f6:	693b      	ldr	r3, [r7, #16]
    12f8:	781b      	ldrb	r3, [r3, #0]
    12fa:	2b00      	cmp	r3, #0
    12fc:	d017      	beq.n	132e <_HeapSize+0x32e>
    12fe:	693b      	ldr	r3, [r7, #16]
    1300:	781b      	ldrb	r3, [r3, #0]
    1302:	2b20      	cmp	r3, #32
    1304:	d013      	beq.n	132e <_HeapSize+0x32e>
    1306:	693b      	ldr	r3, [r7, #16]
    1308:	781b      	ldrb	r3, [r3, #0]
    130a:	2b09      	cmp	r3, #9
    130c:	d00f      	beq.n	132e <_HeapSize+0x32e>
    130e:	693b      	ldr	r3, [r7, #16]
    1310:	781b      	ldrb	r3, [r3, #0]
    1312:	2b0a      	cmp	r3, #10
    1314:	d00b      	beq.n	132e <_HeapSize+0x32e>
    1316:	693b      	ldr	r3, [r7, #16]
    1318:	781b      	ldrb	r3, [r3, #0]
    131a:	2b0d      	cmp	r3, #13
    131c:	d007      	beq.n	132e <_HeapSize+0x32e>
    131e:	693b      	ldr	r3, [r7, #16]
    1320:	781b      	ldrb	r3, [r3, #0]
    1322:	2b0b      	cmp	r3, #11
    1324:	d003      	beq.n	132e <_HeapSize+0x32e>
    1326:	693b      	ldr	r3, [r7, #16]
    1328:	781b      	ldrb	r3, [r3, #0]
    132a:	2b0c      	cmp	r3, #12
    132c:	d1ca      	bne.n	12c4 <_HeapSize+0x2c4>
    132e:	6afb      	ldr	r3, [r7, #44]	; 0x2c
    1330:	f003 0302 	and.w	r3, r3, #2
    1334:	2b00      	cmp	r3, #0
    1336:	f040 80e3 	bne.w	1500 <_HeapSize+0x500>
    133a:	693b      	ldr	r3, [r7, #16]
    133c:	69ba      	ldr	r2, [r7, #24]
    133e:	429a      	cmp	r2, r3
    1340:	f000 80de 	beq.w	1500 <_HeapSize+0x500>
    1344:	6b3b      	ldr	r3, [r7, #48]	; 0x30
    1346:	2200      	movs	r2, #0
    1348:	701a      	strb	r2, [r3, #0]
    134a:	6a7b      	ldr	r3, [r7, #36]	; 0x24
    134c:	3301      	adds	r3, #1
    134e:	627b      	str	r3, [r7, #36]	; 0x24
    1350:	e0d6      	b.n	1500 <_HeapSize+0x500>
    1352:	f107 0310 	add.w	r3, r7, #16
    1356:	4618      	mov	r0, r3
    1358:	f7ff fbad 	bl	ab6 <ScanIgnoreWhiteSpace>
    135c:	4602      	mov	r2, r0
    135e:	6a3b      	ldr	r3, [r7, #32]
    1360:	4413      	add	r3, r2
    1362:	623b      	str	r3, [r7, #32]
    1364:	693b      	ldr	r3, [r7, #16]
    1366:	61bb      	str	r3, [r7, #24]
    1368:	2300      	movs	r3, #0
    136a:	61fb      	str	r3, [r7, #28]
    136c:	f897 3037 	ldrb.w	r3, [r7, #55]	; 0x37
    1370:	2b00      	cmp	r3, #0
    1372:	d003      	beq.n	137c <_HeapSize+0x37c>
    1374:	f897 3037 	ldrb.w	r3, [r7, #55]	; 0x37
    1378:	2b10      	cmp	r3, #16
    137a:	d11c      	bne.n	13b6 <_HeapSize+0x3b6>
    137c:	69bb      	ldr	r3, [r7, #24]
    137e:	781b      	ldrb	r3, [r3, #0]
    1380:	2b30      	cmp	r3, #48	; 0x30
    1382:	d118      	bne.n	13b6 <_HeapSize+0x3b6>
    1384:	69bb      	ldr	r3, [r7, #24]
    1386:	3301      	adds	r3, #1
    1388:	781b      	ldrb	r3, [r3, #0]
    138a:	2b78      	cmp	r3, #120	; 0x78
    138c:	d004      	beq.n	1398 <_HeapSize+0x398>
    138e:	69bb      	ldr	r3, [r7, #24]
    1390:	3301      	adds	r3, #1
    1392:	781b      	ldrb	r3, [r3, #0]
    1394:	2b58      	cmp	r3, #88	; 0x58
    1396:	d10e      	bne.n	13b6 <_HeapSize+0x3b6>
    1398:	2310      	movs	r3, #16
    139a:	f887 3037 	strb.w	r3, [r7, #55]	; 0x37
    139e:	6abb      	ldr	r3, [r7, #40]	; 0x28
    13a0:	2b00      	cmp	r3, #0
    13a2:	d008      	beq.n	13b6 <_HeapSize+0x3b6>
    13a4:	693b      	ldr	r3, [r7, #16]
    13a6:	3302      	adds	r3, #2
    13a8:	613b      	str	r3, [r7, #16]
    13aa:	6a3b      	ldr	r3, [r7, #32]
    13ac:	3302      	adds	r3, #2
    13ae:	623b      	str	r3, [r7, #32]
    13b0:	6abb      	ldr	r3, [r7, #40]	; 0x28
    13b2:	3b02      	subs	r3, #2
    13b4:	62bb      	str	r3, [r7, #40]	; 0x28
    13b6:	f897 3037 	ldrb.w	r3, [r7, #55]	; 0x37
    13ba:	2b00      	cmp	r3, #0
    13bc:	d10a      	bne.n	13d4 <_HeapSize+0x3d4>
    13be:	69bb      	ldr	r3, [r7, #24]
    13c0:	781b      	ldrb	r3, [r3, #0]
    13c2:	2b30      	cmp	r3, #48	; 0x30
    13c4:	d103      	bne.n	13ce <_HeapSize+0x3ce>
    13c6:	2308      	movs	r3, #8
    13c8:	f887 3037 	strb.w	r3, [r7, #55]	; 0x37
    13cc:	e002      	b.n	13d4 <_HeapSize+0x3d4>
    13ce:	230a      	movs	r3, #10
    13d0:	f887 3037 	strb.w	r3, [r7, #55]	; 0x37
    13d4:	2301      	movs	r3, #1
    13d6:	f887 3036 	strb.w	r3, [r7, #54]	; 0x36
    13da:	693b      	ldr	r3, [r7, #16]
    13dc:	781b      	ldrb	r3, [r3, #0]
    13de:	2b2b      	cmp	r3, #43	; 0x2b
    13e0:	d00f      	beq.n	1402 <_HeapSize+0x402>
    13e2:	2b2d      	cmp	r3, #45	; 0x2d
    13e4:	d000      	beq.n	13e8 <_HeapSize+0x3e8>
    13e6:	e019      	b.n	141c <_HeapSize+0x41c>
    13e8:	23ff      	movs	r3, #255	; 0xff
    13ea:	f887 3036 	strb.w	r3, [r7, #54]	; 0x36
    13ee:	6a3b      	ldr	r3, [r7, #32]
    13f0:	3301      	adds	r3, #1
    13f2:	623b      	str	r3, [r7, #32]
    13f4:	693b      	ldr	r3, [r7, #16]
    13f6:	3301      	adds	r3, #1
    13f8:	613b      	str	r3, [r7, #16]
    13fa:	6abb      	ldr	r3, [r7, #40]	; 0x28
    13fc:	3b01      	subs	r3, #1
    13fe:	62bb      	str	r3, [r7, #40]	; 0x28
    1400:	e00c      	b.n	141c <_HeapSize+0x41c>
    1402:	2301      	movs	r3, #1
    1404:	f887 3036 	strb.w	r3, [r7, #54]	; 0x36
    1408:	6a3b      	ldr	r3, [r7, #32]
    140a:	3301      	adds	r3, #1
    140c:	623b      	str	r3, [r7, #32]
    140e:	693b      	ldr	r3, [r7, #16]
    1410:	3301      	adds	r3, #1
    1412:	613b      	str	r3, [r7, #16]
    1414:	6abb      	ldr	r3, [r7, #40]	; 0x28
    1416:	3b01      	subs	r3, #1
    1418:	62bb      	str	r3, [r7, #40]	; 0x28
    141a:	bf00      	nop
    141c:	e042      	b.n	14a4 <_HeapSize+0x4a4>
    141e:	693b      	ldr	r3, [r7, #16]
    1420:	781b      	ldrb	r3, [r3, #0]
    1422:	2b39      	cmp	r3, #57	; 0x39
    1424:	d809      	bhi.n	143a <_HeapSize+0x43a>
    1426:	693b      	ldr	r3, [r7, #16]
    1428:	781b      	ldrb	r3, [r3, #0]
    142a:	2b2f      	cmp	r3, #47	; 0x2f
    142c:	d905      	bls.n	143a <_HeapSize+0x43a>
    142e:	693b      	ldr	r3, [r7, #16]
    1430:	781b      	ldrb	r3, [r3, #0]
    1432:	3b30      	subs	r3, #48	; 0x30
    1434:	f887 3035 	strb.w	r3, [r7, #53]	; 0x35
    1438:	e01f      	b.n	147a <_HeapSize+0x47a>
    143a:	693b      	ldr	r3, [r7, #16]
    143c:	781b      	ldrb	r3, [r3, #0]
    143e:	2b66      	cmp	r3, #102	; 0x66
    1440:	d809      	bhi.n	1456 <_HeapSize+0x456>
    1442:	693b      	ldr	r3, [r7, #16]
    1444:	781b      	ldrb	r3, [r3, #0]
    1446:	2b60      	cmp	r3, #96	; 0x60
    1448:	d905      	bls.n	1456 <_HeapSize+0x456>
    144a:	693b      	ldr	r3, [r7, #16]
    144c:	781b      	ldrb	r3, [r3, #0]
    144e:	3b57      	subs	r3, #87	; 0x57
    1450:	f887 3035 	strb.w	r3, [r7, #53]	; 0x35
    1454:	e011      	b.n	147a <_HeapSize+0x47a>
    1456:	693b      	ldr	r3, [r7, #16]
    1458:	781b      	ldrb	r3, [r3, #0]
    145a:	2b46      	cmp	r3, #70	; 0x46
    145c:	d809      	bhi.n	1472 <_HeapSize+0x472>
    145e:	693b      	ldr	r3, [r7, #16]
    1460:	781b      	ldrb	r3, [r3, #0]
    1462:	2b40      	cmp	r3, #64	; 0x40
    1464:	d905      	bls.n	1472 <_HeapSize+0x472>
    1466:	693b      	ldr	r3, [r7, #16]
    1468:	781b      	ldrb	r3, [r3, #0]
    146a:	3b37      	subs	r3, #55	; 0x37
    146c:	f887 3035 	strb.w	r3, [r7, #53]	; 0x35
    1470:	e003      	b.n	147a <_HeapSize+0x47a>
    1472:	f897 3037 	ldrb.w	r3, [r7, #55]	; 0x37
    1476:	f887 3035 	strb.w	r3, [r7, #53]	; 0x35
    147a:	f897 2035 	ldrb.w	r2, [r7, #53]	; 0x35
    147e:	f897 3037 	ldrb.w	r3, [r7, #55]	; 0x37
    1482:	429a      	cmp	r2, r3
    1484:	d218      	bcs.n	14b8 <_HeapSize+0x4b8>
    1486:	f897 3037 	ldrb.w	r3, [r7, #55]	; 0x37
    148a:	69fa      	ldr	r2, [r7, #28]
    148c:	fb02 f203 	mul.w	r2, r2, r3
    1490:	f897 3035 	ldrb.w	r3, [r7, #53]	; 0x35
    1494:	4413      	add	r3, r2
    1496:	61fb      	str	r3, [r7, #28]
    1498:	693b      	ldr	r3, [r7, #16]
    149a:	3301      	adds	r3, #1
    149c:	613b      	str	r3, [r7, #16]
    149e:	6a3b      	ldr	r3, [r7, #32]
    14a0:	3301      	adds	r3, #1
    14a2:	623b      	str	r3, [r7, #32]
    14a4:	693b      	ldr	r3, [r7, #16]
    14a6:	781b      	ldrb	r3, [r3, #0]
    14a8:	2b00      	cmp	r3, #0
    14aa:	d006      	beq.n	14ba <_HeapSize+0x4ba>
    14ac:	6abb      	ldr	r3, [r7, #40]	; 0x28
    14ae:	1e5a      	subs	r2, r3, #1
    14b0:	62ba      	str	r2, [r7, #40]	; 0x28
    14b2:	2b00      	cmp	r3, #0
    14b4:	d1b3      	bne.n	141e <_HeapSize+0x41e>
    14b6:	e000      	b.n	14ba <_HeapSize+0x4ba>
    14b8:	bf00      	nop
    14ba:	f997 2036 	ldrsb.w	r2, [r7, #54]	; 0x36
    14be:	69fb      	ldr	r3, [r7, #28]
    14c0:	fb02 f303 	mul.w	r3, r2, r3
    14c4:	61fb      	str	r3, [r7, #28]
    14c6:	6afb      	ldr	r3, [r7, #44]	; 0x2c
    14c8:	f003 0302 	and.w	r3, r3, #2
    14cc:	2b00      	cmp	r3, #0
    14ce:	d117      	bne.n	1500 <_HeapSize+0x500>
    14d0:	6afb      	ldr	r3, [r7, #44]	; 0x2c
    14d2:	f403 5300 	and.w	r3, r3, #8192	; 0x2000
    14d6:	2b00      	cmp	r3, #0
    14d8:	d006      	beq.n	14e8 <_HeapSize+0x4e8>
    14da:	687b      	ldr	r3, [r7, #4]
    14dc:	1d1a      	adds	r2, r3, #4
    14de:	607a      	str	r2, [r7, #4]
    14e0:	681b      	ldr	r3, [r3, #0]
    14e2:	69fa      	ldr	r2, [r7, #28]
    14e4:	601a      	str	r2, [r3, #0]
    14e6:	e005      	b.n	14f4 <_HeapSize+0x4f4>
    14e8:	687b      	ldr	r3, [r7, #4]
    14ea:	1d1a      	adds	r2, r3, #4
    14ec:	607a      	str	r2, [r7, #4]
    14ee:	681b      	ldr	r3, [r3, #0]
    14f0:	69fa      	ldr	r2, [r7, #28]
    14f2:	601a      	str	r2, [r3, #0]
    14f4:	6a7b      	ldr	r3, [r7, #36]	; 0x24
    14f6:	3301      	adds	r3, #1
    14f8:	627b      	str	r3, [r7, #36]	; 0x24
    14fa:	e001      	b.n	1500 <_HeapSize+0x500>
    14fc:	6a7b      	ldr	r3, [r7, #36]	; 0x24
    14fe:	e00b      	b.n	1518 <_HeapSize+0x518>
    1500:	697b      	ldr	r3, [r7, #20]
    1502:	781b      	ldrb	r3, [r3, #0]
    1504:	2b00      	cmp	r3, #0
    1506:	d006      	beq.n	1516 <_HeapSize+0x516>
    1508:	693b      	ldr	r3, [r7, #16]
    150a:	781b      	ldrb	r3, [r3, #0]
    150c:	2b00      	cmp	r3, #0
    150e:	f47f ad2b 	bne.w	f68 <StrFormatScanf+0x30>
    1512:	e000      	b.n	1516 <_HeapSize+0x516>
    1514:	bf00      	nop
    1516:	6a7b      	ldr	r3, [r7, #36]	; 0x24
    1518:	4618      	mov	r0, r3
    151a:	3738      	adds	r7, #56	; 0x38
    151c:	46bd      	mov	sp, r7
    151e:	bd80      	pop	{r7, pc}

00001520 <DMA0_DMA16_IRQHandler>:
    1520:	b508      	push	{r3, lr}
    1522:	f7fe feba 	bl	29a <ADC0_DriverIRQHandler>
    1526:	bd08      	pop	{r3, pc}

00001528 <DMA1_DMA17_IRQHandler>:
    1528:	b508      	push	{r3, lr}
    152a:	f7fe feb6 	bl	29a <ADC0_DriverIRQHandler>
    152e:	bd08      	pop	{r3, pc}

00001530 <DMA2_DMA18_IRQHandler>:
    1530:	b508      	push	{r3, lr}
    1532:	f7fe feb2 	bl	29a <ADC0_DriverIRQHandler>
    1536:	bd08      	pop	{r3, pc}

00001538 <DMA3_DMA19_IRQHandler>:
    1538:	b508      	push	{r3, lr}
    153a:	f7fe feae 	bl	29a <ADC0_DriverIRQHandler>
    153e:	bd08      	pop	{r3, pc}

00001540 <DMA4_DMA20_IRQHandler>:
    1540:	b508      	push	{r3, lr}
    1542:	f7fe feaa 	bl	29a <ADC0_DriverIRQHandler>
    1546:	bd08      	pop	{r3, pc}

00001548 <DMA5_DMA21_IRQHandler>:
    1548:	b508      	push	{r3, lr}
    154a:	f7fe fea6 	bl	29a <ADC0_DriverIRQHandler>
    154e:	bd08      	pop	{r3, pc}

00001550 <DMA6_DMA22_IRQHandler>:
    1550:	b508      	push	{r3, lr}
    1552:	f7fe fea2 	bl	29a <ADC0_DriverIRQHandler>
    1556:	bd08      	pop	{r3, pc}

00001558 <DMA7_DMA23_IRQHandler>:
    1558:	b508      	push	{r3, lr}
    155a:	f7fe fe9e 	bl	29a <ADC0_DriverIRQHandler>
    155e:	bd08      	pop	{r3, pc}

00001560 <DMA8_DMA24_IRQHandler>:
    1560:	b508      	push	{r3, lr}
    1562:	f7fe fe9a 	bl	29a <ADC0_DriverIRQHandler>
    1566:	bd08      	pop	{r3, pc}

00001568 <DMA9_DMA25_IRQHandler>:
    1568:	b508      	push	{r3, lr}
    156a:	f7fe fe96 	bl	29a <ADC0_DriverIRQHandler>
    156e:	bd08      	pop	{r3, pc}

00001570 <DMA10_DMA26_IRQHandler>:
    1570:	b508      	push	{r3, lr}
    1572:	f7fe fe92 	bl	29a <ADC0_DriverIRQHandler>
    1576:	bd08      	pop	{r3, pc}

00001578 <DMA11_DMA27_IRQHandler>:
    1578:	b508      	push	{r3, lr}
    157a:	f7fe fe8e 	bl	29a <ADC0_DriverIRQHandler>
    157e:	bd08      	pop	{r3, pc}

00001580 <DMA12_DMA28_IRQHandler>:
    1580:	b508      	push	{r3, lr}
    1582:	f7fe fe8a 	bl	29a <ADC0_DriverIRQHandler>
    1586:	bd08      	pop	{r3, pc}

00001588 <DMA13_DMA29_IRQHandler>:
    1588:	b508      	push	{r3, lr}
    158a:	f7fe fe86 	bl	29a <ADC0_DriverIRQHandler>
    158e:	bd08      	pop	{r3, pc}

00001590 <DMA14_DMA30_IRQHandler>:
    1590:	b508      	push	{r3, lr}
    1592:	f7fe fe82 	bl	29a <ADC0_DriverIRQHandler>
    1596:	bd08      	pop	{r3, pc}

00001598 <DMA15_DMA31_IRQHandler>:
    1598:	b508      	push	{r3, lr}
    159a:	f7fe fe7e 	bl	29a <ADC0_DriverIRQHandler>
    159e:	bd08      	pop	{r3, pc}

000015a0 <DMA_Error_IRQHandler>:
    15a0:	b508      	push	{r3, lr}
    15a2:	f7fe fe7a 	bl	29a <ADC0_DriverIRQHandler>
    15a6:	bd08      	pop	{r3, pc}

000015a8 <MCM_IRQHandler>:
    15a8:	b508      	push	{r3, lr}
    15aa:	f7fe fe76 	bl	29a <ADC0_DriverIRQHandler>
    15ae:	bd08      	pop	{r3, pc}

000015b0 <FTFE_IRQHandler>:
    15b0:	b508      	push	{r3, lr}
    15b2:	f7fe fe72 	bl	29a <ADC0_DriverIRQHandler>
    15b6:	bd08      	pop	{r3, pc}

000015b8 <Read_Collision_IRQHandler>:
    15b8:	b508      	push	{r3, lr}
    15ba:	f7fe fe6e 	bl	29a <ADC0_DriverIRQHandler>
    15be:	bd08      	pop	{r3, pc}

000015c0 <LVD_LVW_IRQHandler>:
    15c0:	b508      	push	{r3, lr}
    15c2:	f7fe fe6a 	bl	29a <ADC0_DriverIRQHandler>
    15c6:	bd08      	pop	{r3, pc}

000015c8 <LLWU_IRQHandler>:
    15c8:	b508      	push	{r3, lr}
    15ca:	f7fe fe66 	bl	29a <ADC0_DriverIRQHandler>
    15ce:	bd08      	pop	{r3, pc}

000015d0 <WDOG_EWM_IRQHandler>:
    15d0:	b508      	push	{r3, lr}
    15d2:	f7fe fe62 	bl	29a <ADC0_DriverIRQHandler>
    15d6:	bd08      	pop	{r3, pc}

000015d8 <RNG_IRQHandler>:
    15d8:	b508      	push	{r3, lr}
    15da:	f7fe fe5e 	bl	29a <ADC0_DriverIRQHandler>
    15de:	bd08      	pop	{r3, pc}

000015e0 <I2C0_IRQHandler>:
    15e0:	b508      	push	{r3, lr}
    15e2:	f7fe fe5a 	bl	29a <ADC0_DriverIRQHandler>
    15e6:	bd08      	pop	{r3, pc}

000015e8 <I2C1_IRQHandler>:
    15e8:	b508      	push	{r3, lr}
    15ea:	f7fe fe56 	bl	29a <ADC0_DriverIRQHandler>
    15ee:	bd08      	pop	{r3, pc}

000015f0 <SPI0_IRQHandler>:
    15f0:	b508      	push	{r3, lr}
    15f2:	f7fe fe52 	bl	29a <ADC0_DriverIRQHandler>
    15f6:	bd08      	pop	{r3, pc}

000015f8 <SPI1_IRQHandler>:
    15f8:	b508      	push	{r3, lr}
    15fa:	f7fe fe4e 	bl	29a <ADC0_DriverIRQHandler>
    15fe:	bd08      	pop	{r3, pc}

00001600 <I2S0_Tx_IRQHandler>:
    1600:	b508      	push	{r3, lr}
    1602:	f7fe fe4a 	bl	29a <ADC0_DriverIRQHandler>
    1606:	bd08      	pop	{r3, pc}

00001608 <I2S0_Rx_IRQHandler>:
    1608:	b508      	push	{r3, lr}
    160a:	f7fe fe46 	bl	29a <ADC0_DriverIRQHandler>
    160e:	bd08      	pop	{r3, pc}

00001610 <Reserved46_IRQHandler>:
    1610:	b508      	push	{r3, lr}
    1612:	f7fe fe42 	bl	29a <ADC0_DriverIRQHandler>
    1616:	bd08      	pop	{r3, pc}

00001618 <UART0_RX_TX_IRQHandler>:
    1618:	b508      	push	{r3, lr}
    161a:	f015 fb4d 	bl	16cb8 <UART0_RX_TX_DriverIRQHandler>
    161e:	bd08      	pop	{r3, pc}

00001620 <UART0_ERR_IRQHandler>:
    1620:	b508      	push	{r3, lr}
    1622:	f7fe fe3a 	bl	29a <ADC0_DriverIRQHandler>
    1626:	bd08      	pop	{r3, pc}

00001628 <UART1_RX_TX_IRQHandler>:
    1628:	b508      	push	{r3, lr}
    162a:	f015 fb61 	bl	16cf0 <UART1_RX_TX_DriverIRQHandler>
    162e:	bd08      	pop	{r3, pc}

00001630 <UART1_ERR_IRQHandler>:
    1630:	b508      	push	{r3, lr}
    1632:	f7fe fe32 	bl	29a <ADC0_DriverIRQHandler>
    1636:	bd08      	pop	{r3, pc}

00001638 <UART2_RX_TX_IRQHandler>:
    1638:	b508      	push	{r3, lr}
    163a:	f015 fb75 	bl	16d28 <UART2_RX_TX_DriverIRQHandler>
    163e:	bd08      	pop	{r3, pc}

00001640 <UART2_ERR_IRQHandler>:
    1640:	b508      	push	{r3, lr}
    1642:	f7fe fe2a 	bl	29a <ADC0_DriverIRQHandler>
    1646:	bd08      	pop	{r3, pc}

00001648 <UART3_RX_TX_IRQHandler>:
    1648:	b508      	push	{r3, lr}
    164a:	f015 fb89 	bl	16d60 <UART3_RX_TX_DriverIRQHandler>
    164e:	bd08      	pop	{r3, pc}

00001650 <UART3_ERR_IRQHandler>:
    1650:	b508      	push	{r3, lr}
    1652:	f7fe fe22 	bl	29a <ADC0_DriverIRQHandler>
    1656:	bd08      	pop	{r3, pc}

00001658 <ADC0_IRQHandler>:
    1658:	b508      	push	{r3, lr}
    165a:	f7fe fe1e 	bl	29a <ADC0_DriverIRQHandler>
    165e:	bd08      	pop	{r3, pc}

00001660 <CMP0_IRQHandler>:
    1660:	b508      	push	{r3, lr}
    1662:	f7fe fe1a 	bl	29a <ADC0_DriverIRQHandler>
    1666:	bd08      	pop	{r3, pc}

00001668 <CMP1_IRQHandler>:
    1668:	b508      	push	{r3, lr}
    166a:	f7fe fe16 	bl	29a <ADC0_DriverIRQHandler>
    166e:	bd08      	pop	{r3, pc}

00001670 <FTM0_IRQHandler>:
    1670:	b508      	push	{r3, lr}
    1672:	f7fe fe12 	bl	29a <ADC0_DriverIRQHandler>
    1676:	bd08      	pop	{r3, pc}

00001678 <FTM1_IRQHandler>:
    1678:	b508      	push	{r3, lr}
    167a:	f7fe fe0e 	bl	29a <ADC0_DriverIRQHandler>
    167e:	bd08      	pop	{r3, pc}

00001680 <FTM2_IRQHandler>:
    1680:	b508      	push	{r3, lr}
    1682:	f7fe fe0a 	bl	29a <ADC0_DriverIRQHandler>
    1686:	bd08      	pop	{r3, pc}

00001688 <CMT_IRQHandler>:
    1688:	b508      	push	{r3, lr}
    168a:	f7fe fe06 	bl	29a <ADC0_DriverIRQHandler>
    168e:	bd08      	pop	{r3, pc}

00001690 <RTC_IRQHandler>:
    1690:	b508      	push	{r3, lr}
    1692:	f7fe fe02 	bl	29a <ADC0_DriverIRQHandler>
    1696:	bd08      	pop	{r3, pc}

00001698 <RTC_Seconds_IRQHandler>:
    1698:	b508      	push	{r3, lr}
    169a:	f7fe fdfe 	bl	29a <ADC0_DriverIRQHandler>
    169e:	bd08      	pop	{r3, pc}

000016a0 <PIT0_IRQHandler>:
    16a0:	b508      	push	{r3, lr}
    16a2:	f7fe fdfa 	bl	29a <ADC0_DriverIRQHandler>
    16a6:	bd08      	pop	{r3, pc}

000016a8 <PIT1_IRQHandler>:
    16a8:	b508      	push	{r3, lr}
    16aa:	f7fe fdf6 	bl	29a <ADC0_DriverIRQHandler>
    16ae:	bd08      	pop	{r3, pc}

000016b0 <PIT2_IRQHandler>:
    16b0:	b508      	push	{r3, lr}
    16b2:	f7fe fdf2 	bl	29a <ADC0_DriverIRQHandler>
    16b6:	bd08      	pop	{r3, pc}

000016b8 <PIT3_IRQHandler>:
    16b8:	b508      	push	{r3, lr}
    16ba:	f7fe fdee 	bl	29a <ADC0_DriverIRQHandler>
    16be:	bd08      	pop	{r3, pc}

000016c0 <PDB0_IRQHandler>:
    16c0:	b508      	push	{r3, lr}
    16c2:	f7fe fdea 	bl	29a <ADC0_DriverIRQHandler>
    16c6:	bd08      	pop	{r3, pc}

000016c8 <USB0_IRQHandler>:
    16c8:	b508      	push	{r3, lr}
    16ca:	f7fe fde6 	bl	29a <ADC0_DriverIRQHandler>
    16ce:	bd08      	pop	{r3, pc}

000016d0 <USBDCD_IRQHandler>:
    16d0:	b508      	push	{r3, lr}
    16d2:	f7fe fde2 	bl	29a <ADC0_DriverIRQHandler>
    16d6:	bd08      	pop	{r3, pc}

000016d8 <Reserved71_IRQHandler>:
    16d8:	b508      	push	{r3, lr}
    16da:	f7fe fdde 	bl	29a <ADC0_DriverIRQHandler>
    16de:	bd08      	pop	{r3, pc}

000016e0 <DAC0_IRQHandler>:
    16e0:	b508      	push	{r3, lr}
    16e2:	f7fe fdda 	bl	29a <ADC0_DriverIRQHandler>
    16e6:	bd08      	pop	{r3, pc}

000016e8 <MCG_IRQHandler>:
    16e8:	b508      	push	{r3, lr}
    16ea:	f7fe fdd6 	bl	29a <ADC0_DriverIRQHandler>
    16ee:	bd08      	pop	{r3, pc}

000016f0 <LPTMR0_IRQHandler>:
    16f0:	b508      	push	{r3, lr}
    16f2:	f7fe fdd2 	bl	29a <ADC0_DriverIRQHandler>
    16f6:	bd08      	pop	{r3, pc}

000016f8 <PORTA_IRQHandler>:
    16f8:	b508      	push	{r3, lr}
    16fa:	f7fe fdce 	bl	29a <ADC0_DriverIRQHandler>
    16fe:	bd08      	pop	{r3, pc}

00001700 <PORTB_IRQHandler>:
    1700:	b508      	push	{r3, lr}
    1702:	f7fe fdca 	bl	29a <ADC0_DriverIRQHandler>
    1706:	bd08      	pop	{r3, pc}

00001708 <PORTC_IRQHandler>:
    1708:	b508      	push	{r3, lr}
    170a:	f7fe fdc6 	bl	29a <ADC0_DriverIRQHandler>
    170e:	bd08      	pop	{r3, pc}

00001710 <PORTD_IRQHandler>:
    1710:	b508      	push	{r3, lr}
    1712:	f7fe fdc2 	bl	29a <ADC0_DriverIRQHandler>
    1716:	bd08      	pop	{r3, pc}

00001718 <PORTE_IRQHandler>:
    1718:	b508      	push	{r3, lr}
    171a:	f7fe fdbe 	bl	29a <ADC0_DriverIRQHandler>
    171e:	bd08      	pop	{r3, pc}

00001720 <SWI_IRQHandler>:
    1720:	b508      	push	{r3, lr}
    1722:	f7fe fdba 	bl	29a <ADC0_DriverIRQHandler>
    1726:	bd08      	pop	{r3, pc}

00001728 <SPI2_IRQHandler>:
    1728:	b508      	push	{r3, lr}
    172a:	f7fe fdb6 	bl	29a <ADC0_DriverIRQHandler>
    172e:	bd08      	pop	{r3, pc}

00001730 <UART4_RX_TX_IRQHandler>:
    1730:	b508      	push	{r3, lr}
    1732:	f015 fb31 	bl	16d98 <UART4_RX_TX_DriverIRQHandler>
    1736:	bd08      	pop	{r3, pc}

00001738 <UART4_ERR_IRQHandler>:
    1738:	b508      	push	{r3, lr}
    173a:	f7fe fdae 	bl	29a <ADC0_DriverIRQHandler>
    173e:	bd08      	pop	{r3, pc}

00001740 <Reserved84_IRQHandler>:
    1740:	b508      	push	{r3, lr}
    1742:	f7fe fdaa 	bl	29a <ADC0_DriverIRQHandler>
    1746:	bd08      	pop	{r3, pc}

00001748 <Reserved85_IRQHandler>:
    1748:	b508      	push	{r3, lr}
    174a:	f7fe fda6 	bl	29a <ADC0_DriverIRQHandler>
    174e:	bd08      	pop	{r3, pc}

00001750 <CMP2_IRQHandler>:
    1750:	b508      	push	{r3, lr}
    1752:	f7fe fda2 	bl	29a <ADC0_DriverIRQHandler>
    1756:	bd08      	pop	{r3, pc}

00001758 <FTM3_IRQHandler>:
    1758:	b508      	push	{r3, lr}
    175a:	f7fe fd9e 	bl	29a <ADC0_DriverIRQHandler>
    175e:	bd08      	pop	{r3, pc}

00001760 <DAC1_IRQHandler>:
    1760:	b508      	push	{r3, lr}
    1762:	f7fe fd9a 	bl	29a <ADC0_DriverIRQHandler>
    1766:	bd08      	pop	{r3, pc}

00001768 <ADC1_IRQHandler>:
    1768:	b508      	push	{r3, lr}
    176a:	f7fe fd96 	bl	29a <ADC0_DriverIRQHandler>
    176e:	bd08      	pop	{r3, pc}

00001770 <I2C2_IRQHandler>:
    1770:	b508      	push	{r3, lr}
    1772:	f7fe fd92 	bl	29a <ADC0_DriverIRQHandler>
    1776:	bd08      	pop	{r3, pc}

00001778 <CAN0_ORed_Message_buffer_IRQHandler>:
    1778:	b508      	push	{r3, lr}
    177a:	f7fe fd8e 	bl	29a <ADC0_DriverIRQHandler>
    177e:	bd08      	pop	{r3, pc}

00001780 <CAN0_Bus_Off_IRQHandler>:
    1780:	b508      	push	{r3, lr}
    1782:	f7fe fd8a 	bl	29a <ADC0_DriverIRQHandler>
    1786:	bd08      	pop	{r3, pc}

00001788 <CAN0_Error_IRQHandler>:
    1788:	b508      	push	{r3, lr}
    178a:	f7fe fd86 	bl	29a <ADC0_DriverIRQHandler>
    178e:	bd08      	pop	{r3, pc}

00001790 <CAN0_Tx_Warning_IRQHandler>:
    1790:	b508      	push	{r3, lr}
    1792:	f7fe fd82 	bl	29a <ADC0_DriverIRQHandler>
    1796:	bd08      	pop	{r3, pc}

00001798 <CAN0_Rx_Warning_IRQHandler>:
    1798:	b508      	push	{r3, lr}
    179a:	f7fe fd7e 	bl	29a <ADC0_DriverIRQHandler>
    179e:	bd08      	pop	{r3, pc}

000017a0 <CAN0_Wake_Up_IRQHandler>:
    17a0:	b508      	push	{r3, lr}
    17a2:	f7fe fd7a 	bl	29a <ADC0_DriverIRQHandler>
    17a6:	bd08      	pop	{r3, pc}

000017a8 <SDHC_IRQHandler>:
    17a8:	b508      	push	{r3, lr}
    17aa:	f7fe fd76 	bl	29a <ADC0_DriverIRQHandler>
    17ae:	bd08      	pop	{r3, pc}
    17b0:	b508      	push	{r3, lr}
    17b2:	f7fe fd72 	bl	29a <ADC0_DriverIRQHandler>
    17b6:	bd08      	pop	{r3, pc}
    17b8:	b508      	push	{r3, lr}
    17ba:	f7fe fd6e 	bl	29a <ADC0_DriverIRQHandler>
    17be:	bd08      	pop	{r3, pc}
    17c0:	b508      	push	{r3, lr}
    17c2:	f7fe fd6a 	bl	29a <ADC0_DriverIRQHandler>
    17c6:	bd08      	pop	{r3, pc}
    17c8:	b508      	push	{r3, lr}
    17ca:	f7fe fd66 	bl	29a <ADC0_DriverIRQHandler>
    17ce:	bd08      	pop	{r3, pc}

000017d0 <LPUART0_IRQHandler>:
    17d0:	b508      	push	{r3, lr}
    17d2:	f013 fd51 	bl	15278 <LPUART0_DriverIRQHandler>
    17d6:	bd08      	pop	{r3, pc}

000017d8 <TSI0_IRQHandler>:
    17d8:	b508      	push	{r3, lr}
    17da:	f7fe fd5e 	bl	29a <ADC0_DriverIRQHandler>
    17de:	bd08      	pop	{r3, pc}

000017e0 <TPM1_IRQHandler>:
    17e0:	b508      	push	{r3, lr}
    17e2:	f7fe fd5a 	bl	29a <ADC0_DriverIRQHandler>
    17e6:	bd08      	pop	{r3, pc}

000017e8 <TPM2_IRQHandler>:
    17e8:	b508      	push	{r3, lr}
    17ea:	f7fe fd56 	bl	29a <ADC0_DriverIRQHandler>
    17ee:	bd08      	pop	{r3, pc}

000017f0 <USBHSDCD_IRQHandler>:
    17f0:	b508      	push	{r3, lr}
    17f2:	f7fe fd52 	bl	29a <ADC0_DriverIRQHandler>
    17f6:	bd08      	pop	{r3, pc}

000017f8 <I2C3_IRQHandler>:
    17f8:	b508      	push	{r3, lr}
    17fa:	f7fe fd4e 	bl	29a <ADC0_DriverIRQHandler>
    17fe:	bd08      	pop	{r3, pc}

00001800 <CMP3_IRQHandler>:
    1800:	b508      	push	{r3, lr}
    1802:	f7fe fd4a 	bl	29a <ADC0_DriverIRQHandler>
    1806:	bd08      	pop	{r3, pc}

00001808 <USBHS_IRQHandler>:
    1808:	b508      	push	{r3, lr}
    180a:	f7fe fd46 	bl	29a <ADC0_DriverIRQHandler>
    180e:	bd08      	pop	{r3, pc}

00001810 <CAN1_ORed_Message_buffer_IRQHandler>:
    1810:	b508      	push	{r3, lr}
    1812:	f7fe fd42 	bl	29a <ADC0_DriverIRQHandler>
    1816:	bd08      	pop	{r3, pc}

00001818 <CAN1_Bus_Off_IRQHandler>:
    1818:	b508      	push	{r3, lr}
    181a:	f7fe fd3e 	bl	29a <ADC0_DriverIRQHandler>
    181e:	bd08      	pop	{r3, pc}

00001820 <CAN1_Error_IRQHandler>:
    1820:	b508      	push	{r3, lr}
    1822:	f7fe fd3a 	bl	29a <ADC0_DriverIRQHandler>
    1826:	bd08      	pop	{r3, pc}

00001828 <CAN1_Tx_Warning_IRQHandler>:
    1828:	b508      	push	{r3, lr}
    182a:	f7fe fd36 	bl	29a <ADC0_DriverIRQHandler>
    182e:	bd08      	pop	{r3, pc}

00001830 <CAN1_Rx_Warning_IRQHandler>:
    1830:	b508      	push	{r3, lr}
    1832:	f7fe fd32 	bl	29a <ADC0_DriverIRQHandler>
    1836:	bd08      	pop	{r3, pc}

00001838 <CAN1_Wake_Up_IRQHandler>:
    1838:	b508      	push	{r3, lr}
    183a:	f7fe fd2e 	bl	29a <ADC0_DriverIRQHandler>
    183e:	bd08      	pop	{r3, pc}

00001840 <SysTick_Handler>:
    1840:	b580      	push	{r7, lr}
    1842:	af00      	add	r7, sp, #0
    1844:	f00c fec4 	bl	e5d0 <time_isr>
    1848:	bf00      	nop
    184a:	bd80      	pop	{r7, pc}

0000184c <main>:
    184c:	b590      	push	{r4, r7, lr}
    184e:	b099      	sub	sp, #100	; 0x64
    1850:	af04      	add	r7, sp, #16
    1852:	4a50      	ldr	r2, [pc, #320]	; (1994 <main+0x148>)
    1854:	463b      	mov	r3, r7
    1856:	ca07      	ldmia	r2, {r0, r1, r2}
    1858:	e883 0007 	stmia.w	r3, {r0, r1, r2}
    185c:	4b4e      	ldr	r3, [pc, #312]	; (1998 <main+0x14c>)
    185e:	64fb      	str	r3, [r7, #76]	; 0x4c
    1860:	f015 fe6c 	bl	1753c <BOARD_InitPins>
    1864:	f015 fb88 	bl	16f78 <BOARD_BootClockRUN>
    1868:	f015 fa9e 	bl	16da8 <BOARD_InitDebugConsole>
    186c:	6cfb      	ldr	r3, [r7, #76]	; 0x4c
    186e:	681b      	ldr	r3, [r3, #0]
    1870:	f023 0201 	bic.w	r2, r3, #1
    1874:	6cfb      	ldr	r3, [r7, #76]	; 0x4c
    1876:	601a      	str	r2, [r3, #0]
    1878:	4b48      	ldr	r3, [pc, #288]	; (199c <main+0x150>)
    187a:	f503 5380 	add.w	r3, r3, #4096	; 0x1000
    187e:	3304      	adds	r3, #4
    1880:	681b      	ldr	r3, [r3, #0]
    1882:	4946      	ldr	r1, [pc, #280]	; (199c <main+0x150>)
    1884:	f443 2200 	orr.w	r2, r3, #524288	; 0x80000
    1888:	f501 5380 	add.w	r3, r1, #4096	; 0x1000
    188c:	3304      	adds	r3, #4
    188e:	601a      	str	r2, [r3, #0]
    1890:	f00c feac 	bl	e5ec <time_init>
    1894:	4b42      	ldr	r3, [pc, #264]	; (19a0 <main+0x154>)
    1896:	617b      	str	r3, [r7, #20]
    1898:	f06f 437f 	mvn.w	r3, #4278190080	; 0xff000000
    189c:	613b      	str	r3, [r7, #16]
    189e:	4b41      	ldr	r3, [pc, #260]	; (19a4 <main+0x158>)
    18a0:	60fb      	str	r3, [r7, #12]
    18a2:	f005 f803 	bl	68ac <lwip_init>
    18a6:	f107 040c 	add.w	r4, r7, #12
    18aa:	f107 0210 	add.w	r2, r7, #16
    18ae:	f107 0114 	add.w	r1, r7, #20
    18b2:	f107 0018 	add.w	r0, r7, #24
    18b6:	4b3c      	ldr	r3, [pc, #240]	; (19a8 <main+0x15c>)
    18b8:	9302      	str	r3, [sp, #8]
    18ba:	4b3c      	ldr	r3, [pc, #240]	; (19ac <main+0x160>)
    18bc:	9301      	str	r3, [sp, #4]
    18be:	463b      	mov	r3, r7
    18c0:	9300      	str	r3, [sp, #0]
    18c2:	4623      	mov	r3, r4
    18c4:	f005 fc1c 	bl	7100 <netif_add>
    18c8:	f107 0318 	add.w	r3, r7, #24
    18cc:	4618      	mov	r0, r3
    18ce:	f005 fd83 	bl	73d8 <netif_set_default>
    18d2:	f107 0318 	add.w	r3, r7, #24
    18d6:	4618      	mov	r0, r3
    18d8:	f005 fd8e 	bl	73f8 <netif_set_up>
    18dc:	f00c ff00 	bl	e6e0 <udpecho_raw_init>
    18e0:	4833      	ldr	r0, [pc, #204]	; (19b0 <main+0x164>)
    18e2:	f7fe fdd9 	bl	498 <DbgConsole_Printf>
    18e6:	4833      	ldr	r0, [pc, #204]	; (19b4 <main+0x168>)
    18e8:	f7fe fdd6 	bl	498 <DbgConsole_Printf>
    18ec:	4832      	ldr	r0, [pc, #200]	; (19b8 <main+0x16c>)
    18ee:	f7fe fdd3 	bl	498 <DbgConsole_Printf>
    18f2:	f107 0314 	add.w	r3, r7, #20
    18f6:	781b      	ldrb	r3, [r3, #0]
    18f8:	4619      	mov	r1, r3
    18fa:	f107 0314 	add.w	r3, r7, #20
    18fe:	3301      	adds	r3, #1
    1900:	781b      	ldrb	r3, [r3, #0]
    1902:	461a      	mov	r2, r3
    1904:	f107 0314 	add.w	r3, r7, #20
    1908:	3302      	adds	r3, #2
    190a:	781b      	ldrb	r3, [r3, #0]
    190c:	4618      	mov	r0, r3
    190e:	f107 0314 	add.w	r3, r7, #20
    1912:	3303      	adds	r3, #3
    1914:	781b      	ldrb	r3, [r3, #0]
    1916:	9300      	str	r3, [sp, #0]
    1918:	4603      	mov	r3, r0
    191a:	4828      	ldr	r0, [pc, #160]	; (19bc <main+0x170>)
    191c:	f7fe fdbc 	bl	498 <DbgConsole_Printf>
    1920:	f107 0310 	add.w	r3, r7, #16
    1924:	781b      	ldrb	r3, [r3, #0]
    1926:	4619      	mov	r1, r3
    1928:	f107 0310 	add.w	r3, r7, #16
    192c:	3301      	adds	r3, #1
    192e:	781b      	ldrb	r3, [r3, #0]
    1930:	461a      	mov	r2, r3
    1932:	f107 0310 	add.w	r3, r7, #16
    1936:	3302      	adds	r3, #2
    1938:	781b      	ldrb	r3, [r3, #0]
    193a:	4618      	mov	r0, r3
    193c:	f107 0310 	add.w	r3, r7, #16
    1940:	3303      	adds	r3, #3
    1942:	781b      	ldrb	r3, [r3, #0]
    1944:	9300      	str	r3, [sp, #0]
    1946:	4603      	mov	r3, r0
    1948:	481d      	ldr	r0, [pc, #116]	; (19c0 <main+0x174>)
    194a:	f7fe fda5 	bl	498 <DbgConsole_Printf>
    194e:	f107 030c 	add.w	r3, r7, #12
    1952:	781b      	ldrb	r3, [r3, #0]
    1954:	4619      	mov	r1, r3
    1956:	f107 030c 	add.w	r3, r7, #12
    195a:	3301      	adds	r3, #1
    195c:	781b      	ldrb	r3, [r3, #0]
    195e:	461a      	mov	r2, r3
    1960:	f107 030c 	add.w	r3, r7, #12
    1964:	3302      	adds	r3, #2
    1966:	781b      	ldrb	r3, [r3, #0]
    1968:	4618      	mov	r0, r3
    196a:	f107 030c 	add.w	r3, r7, #12
    196e:	3303      	adds	r3, #3
    1970:	781b      	ldrb	r3, [r3, #0]
    1972:	9300      	str	r3, [sp, #0]
    1974:	4603      	mov	r3, r0
    1976:	4813      	ldr	r0, [pc, #76]	; (19c4 <main+0x178>)
    1978:	f7fe fd8e 	bl	498 <DbgConsole_Printf>
    197c:	480e      	ldr	r0, [pc, #56]	; (19b8 <main+0x16c>)
    197e:	f7fe fd8b 	bl	498 <DbgConsole_Printf>
    1982:	f107 0318 	add.w	r3, r7, #24
    1986:	4618      	mov	r0, r3
    1988:	f00c fcc6 	bl	e318 <ethernetif_input>
    198c:	f00b fe0a 	bl	d5a4 <sys_check_timeouts>
    1990:	e7f7      	b.n	1982 <main+0x136>
    1992:	bf00      	nop
    1994:	000180f0 	.word	0x000180f0
    1998:	4000d000 	.word	0x4000d000
    199c:	40047000 	.word	0x40047000
    19a0:	6600a8c0 	.word	0x6600a8c0
    19a4:	6400a8c0 	.word	0x6400a8c0
    19a8:	000019f5 	.word	0x000019f5
    19ac:	0000e45d 	.word	0x0000e45d
    19b0:	00018004 	.word	0x00018004
    19b4:	0001803c 	.word	0x0001803c
    19b8:	00018050 	.word	0x00018050
    19bc:	00018084 	.word	0x00018084
    19c0:	000180a8 	.word	0x000180a8
    19c4:	000180cc 	.word	0x000180cc

000019c8 <HardFault_Handler>:
    19c8:	2004      	movs	r0, #4
    19ca:	4671      	mov	r1, lr
    19cc:	4208      	tst	r0, r1
    19ce:	d002      	beq.n	19d6 <_MSP>
    19d0:	f3ef 8009 	mrs	r0, PSP
    19d4:	e001      	b.n	19da <_process>

000019d6 <_MSP>:
    19d6:	f3ef 8008 	mrs	r0, MSP

000019da <_process>:
    19da:	6981      	ldr	r1, [r0, #24]
    19dc:	880a      	ldrh	r2, [r1, #0]
    19de:	f64b 63ab 	movw	r3, #48811	; 0xbeab
    19e2:	429a      	cmp	r2, r3
    19e4:	d000      	beq.n	19e8 <_semihost_return>
    19e6:	e7fe      	b.n	19e6 <_process+0xc>

000019e8 <_semihost_return>:
    19e8:	3102      	adds	r1, #2
    19ea:	6181      	str	r1, [r0, #24]
    19ec:	2120      	movs	r1, #32
    19ee:	6001      	str	r1, [r0, #0]
    19f0:	4770      	bx	lr
    19f2:	bf00      	nop

000019f4 <ethernet_input>:
    19f4:	b580      	push	{r7, lr}
    19f6:	b086      	sub	sp, #24
    19f8:	af00      	add	r7, sp, #0
    19fa:	6078      	str	r0, [r7, #4]
    19fc:	6039      	str	r1, [r7, #0]
    19fe:	230e      	movs	r3, #14
    1a00:	82fb      	strh	r3, [r7, #22]
    1a02:	687b      	ldr	r3, [r7, #4]
    1a04:	895b      	ldrh	r3, [r3, #10]
    1a06:	2b0e      	cmp	r3, #14
    1a08:	d977      	bls.n	1afa <ethernet_input+0x106>
    1a0a:	687b      	ldr	r3, [r7, #4]
    1a0c:	685b      	ldr	r3, [r3, #4]
    1a0e:	613b      	str	r3, [r7, #16]
    1a10:	693b      	ldr	r3, [r7, #16]
    1a12:	7b1a      	ldrb	r2, [r3, #12]
    1a14:	7b5b      	ldrb	r3, [r3, #13]
    1a16:	021b      	lsls	r3, r3, #8
    1a18:	4313      	orrs	r3, r2
    1a1a:	81fb      	strh	r3, [r7, #14]
    1a1c:	693b      	ldr	r3, [r7, #16]
    1a1e:	781b      	ldrb	r3, [r3, #0]
    1a20:	f003 0301 	and.w	r3, r3, #1
    1a24:	2b00      	cmp	r3, #0
    1a26:	d023      	beq.n	1a70 <ethernet_input+0x7c>
    1a28:	693b      	ldr	r3, [r7, #16]
    1a2a:	781b      	ldrb	r3, [r3, #0]
    1a2c:	2b01      	cmp	r3, #1
    1a2e:	d10f      	bne.n	1a50 <ethernet_input+0x5c>
    1a30:	693b      	ldr	r3, [r7, #16]
    1a32:	785b      	ldrb	r3, [r3, #1]
    1a34:	2b00      	cmp	r3, #0
    1a36:	d11b      	bne.n	1a70 <ethernet_input+0x7c>
    1a38:	693b      	ldr	r3, [r7, #16]
    1a3a:	789b      	ldrb	r3, [r3, #2]
    1a3c:	2b5e      	cmp	r3, #94	; 0x5e
    1a3e:	d117      	bne.n	1a70 <ethernet_input+0x7c>
    1a40:	687b      	ldr	r3, [r7, #4]
    1a42:	7b5b      	ldrb	r3, [r3, #13]
    1a44:	f043 0310 	orr.w	r3, r3, #16
    1a48:	b2da      	uxtb	r2, r3
    1a4a:	687b      	ldr	r3, [r7, #4]
    1a4c:	735a      	strb	r2, [r3, #13]
    1a4e:	e00f      	b.n	1a70 <ethernet_input+0x7c>
    1a50:	693b      	ldr	r3, [r7, #16]
    1a52:	2206      	movs	r2, #6
    1a54:	4931      	ldr	r1, [pc, #196]	; (1b1c <ethernet_input+0x128>)
    1a56:	4618      	mov	r0, r3
    1a58:	f016 f918 	bl	17c8c <memcmp>
    1a5c:	4603      	mov	r3, r0
    1a5e:	2b00      	cmp	r3, #0
    1a60:	d106      	bne.n	1a70 <ethernet_input+0x7c>
    1a62:	687b      	ldr	r3, [r7, #4]
    1a64:	7b5b      	ldrb	r3, [r3, #13]
    1a66:	f043 0308 	orr.w	r3, r3, #8
    1a6a:	b2da      	uxtb	r2, r3
    1a6c:	687b      	ldr	r3, [r7, #4]
    1a6e:	735a      	strb	r2, [r3, #13]
    1a70:	89fb      	ldrh	r3, [r7, #14]
    1a72:	2b08      	cmp	r3, #8
    1a74:	d003      	beq.n	1a7e <ethernet_input+0x8a>
    1a76:	f5b3 6fc1 	cmp.w	r3, #1544	; 0x608
    1a7a:	d01e      	beq.n	1aba <ethernet_input+0xc6>
    1a7c:	e046      	b.n	1b0c <ethernet_input+0x118>
    1a7e:	683b      	ldr	r3, [r7, #0]
    1a80:	f893 302f 	ldrb.w	r3, [r3, #47]	; 0x2f
    1a84:	f003 0308 	and.w	r3, r3, #8
    1a88:	2b00      	cmp	r3, #0
    1a8a:	d038      	beq.n	1afe <ethernet_input+0x10a>
    1a8c:	687b      	ldr	r3, [r7, #4]
    1a8e:	895b      	ldrh	r3, [r3, #10]
    1a90:	461a      	mov	r2, r3
    1a92:	f9b7 3016 	ldrsh.w	r3, [r7, #22]
    1a96:	429a      	cmp	r2, r3
    1a98:	db33      	blt.n	1b02 <ethernet_input+0x10e>
    1a9a:	8afb      	ldrh	r3, [r7, #22]
    1a9c:	425b      	negs	r3, r3
    1a9e:	b29b      	uxth	r3, r3
    1aa0:	b21b      	sxth	r3, r3
    1aa2:	4619      	mov	r1, r3
    1aa4:	6878      	ldr	r0, [r7, #4]
    1aa6:	f006 f841 	bl	7b2c <pbuf_header>
    1aaa:	4603      	mov	r3, r0
    1aac:	2b00      	cmp	r3, #0
    1aae:	d128      	bne.n	1b02 <ethernet_input+0x10e>
    1ab0:	6839      	ldr	r1, [r7, #0]
    1ab2:	6878      	ldr	r0, [r7, #4]
    1ab4:	f003 f8fa 	bl	4cac <ip4_input>
    1ab8:	e01d      	b.n	1af6 <ethernet_input+0x102>
    1aba:	683b      	ldr	r3, [r7, #0]
    1abc:	f893 302f 	ldrb.w	r3, [r3, #47]	; 0x2f
    1ac0:	f003 0308 	and.w	r3, r3, #8
    1ac4:	2b00      	cmp	r3, #0
    1ac6:	d01e      	beq.n	1b06 <ethernet_input+0x112>
    1ac8:	687b      	ldr	r3, [r7, #4]
    1aca:	895b      	ldrh	r3, [r3, #10]
    1acc:	461a      	mov	r2, r3
    1ace:	f9b7 3016 	ldrsh.w	r3, [r7, #22]
    1ad2:	429a      	cmp	r2, r3
    1ad4:	db19      	blt.n	1b0a <ethernet_input+0x116>
    1ad6:	8afb      	ldrh	r3, [r7, #22]
    1ad8:	425b      	negs	r3, r3
    1ada:	b29b      	uxth	r3, r3
    1adc:	b21b      	sxth	r3, r3
    1ade:	4619      	mov	r1, r3
    1ae0:	6878      	ldr	r0, [r7, #4]
    1ae2:	f006 f823 	bl	7b2c <pbuf_header>
    1ae6:	4603      	mov	r3, r0
    1ae8:	2b00      	cmp	r3, #0
    1aea:	d10e      	bne.n	1b0a <ethernet_input+0x116>
    1aec:	6839      	ldr	r1, [r7, #0]
    1aee:	6878      	ldr	r0, [r7, #4]
    1af0:	f002 fad4 	bl	409c <etharp_input>
    1af4:	bf00      	nop
    1af6:	2300      	movs	r3, #0
    1af8:	e00c      	b.n	1b14 <ethernet_input+0x120>
    1afa:	bf00      	nop
    1afc:	e006      	b.n	1b0c <ethernet_input+0x118>
    1afe:	bf00      	nop
    1b00:	e004      	b.n	1b0c <ethernet_input+0x118>
    1b02:	bf00      	nop
    1b04:	e002      	b.n	1b0c <ethernet_input+0x118>
    1b06:	bf00      	nop
    1b08:	e000      	b.n	1b0c <ethernet_input+0x118>
    1b0a:	bf00      	nop
    1b0c:	6878      	ldr	r0, [r7, #4]
    1b0e:	f006 f831 	bl	7b74 <pbuf_free>
    1b12:	2300      	movs	r3, #0
    1b14:	4618      	mov	r0, r3
    1b16:	3718      	adds	r7, #24
    1b18:	46bd      	mov	sp, r7
    1b1a:	bd80      	pop	{r7, pc}
    1b1c:	000180fc 	.word	0x000180fc

00001b20 <ethernet_output>:
    1b20:	b580      	push	{r7, lr}
    1b22:	b086      	sub	sp, #24
    1b24:	af00      	add	r7, sp, #0
    1b26:	60f8      	str	r0, [r7, #12]
    1b28:	60b9      	str	r1, [r7, #8]
    1b2a:	607a      	str	r2, [r7, #4]
    1b2c:	603b      	str	r3, [r7, #0]
    1b2e:	8c3b      	ldrh	r3, [r7, #32]
    1b30:	4618      	mov	r0, r3
    1b32:	f004 fb49 	bl	61c8 <lwip_htons>
    1b36:	4603      	mov	r3, r0
    1b38:	82fb      	strh	r3, [r7, #22]
    1b3a:	210e      	movs	r1, #14
    1b3c:	68b8      	ldr	r0, [r7, #8]
    1b3e:	f005 fff5 	bl	7b2c <pbuf_header>
    1b42:	4603      	mov	r3, r0
    1b44:	2b00      	cmp	r3, #0
    1b46:	d121      	bne.n	1b8c <ethernet_output+0x6c>
    1b48:	68bb      	ldr	r3, [r7, #8]
    1b4a:	685b      	ldr	r3, [r3, #4]
    1b4c:	613b      	str	r3, [r7, #16]
    1b4e:	693b      	ldr	r3, [r7, #16]
    1b50:	8afa      	ldrh	r2, [r7, #22]
    1b52:	819a      	strh	r2, [r3, #12]
    1b54:	693b      	ldr	r3, [r7, #16]
    1b56:	2206      	movs	r2, #6
    1b58:	6839      	ldr	r1, [r7, #0]
    1b5a:	4618      	mov	r0, r3
    1b5c:	f016 f8a5 	bl	17caa <memcpy>
    1b60:	693b      	ldr	r3, [r7, #16]
    1b62:	3306      	adds	r3, #6
    1b64:	2206      	movs	r2, #6
    1b66:	6879      	ldr	r1, [r7, #4]
    1b68:	4618      	mov	r0, r3
    1b6a:	f016 f89e 	bl	17caa <memcpy>
    1b6e:	68fb      	ldr	r3, [r7, #12]
    1b70:	f893 3028 	ldrb.w	r3, [r3, #40]	; 0x28
    1b74:	2b06      	cmp	r3, #6
    1b76:	d002      	beq.n	1b7e <ethernet_output+0x5e>
    1b78:	4808      	ldr	r0, [pc, #32]	; (1b9c <ethernet_output+0x7c>)
    1b7a:	f00c fd01 	bl	e580 <sys_assert>
    1b7e:	68fb      	ldr	r3, [r7, #12]
    1b80:	699b      	ldr	r3, [r3, #24]
    1b82:	68b9      	ldr	r1, [r7, #8]
    1b84:	68f8      	ldr	r0, [r7, #12]
    1b86:	4798      	blx	r3
    1b88:	4603      	mov	r3, r0
    1b8a:	e002      	b.n	1b92 <ethernet_output+0x72>
    1b8c:	bf00      	nop
    1b8e:	f06f 0301 	mvn.w	r3, #1
    1b92:	4618      	mov	r0, r3
    1b94:	3718      	adds	r7, #24
    1b96:	46bd      	mov	sp, r7
    1b98:	bd80      	pop	{r7, pc}
    1b9a:	bf00      	nop
    1b9c:	0001810c 	.word	0x0001810c

00001ba0 <dhcp_inc_pcb_refcount>:
    1ba0:	b580      	push	{r7, lr}
    1ba2:	af00      	add	r7, sp, #0
    1ba4:	4b1e      	ldr	r3, [pc, #120]	; (1c20 <dhcp_inc_pcb_refcount+0x80>)
    1ba6:	781b      	ldrb	r3, [r3, #0]
    1ba8:	2b00      	cmp	r3, #0
    1baa:	d130      	bne.n	1c0e <dhcp_inc_pcb_refcount+0x6e>
    1bac:	4b1d      	ldr	r3, [pc, #116]	; (1c24 <dhcp_inc_pcb_refcount+0x84>)
    1bae:	681b      	ldr	r3, [r3, #0]
    1bb0:	2b00      	cmp	r3, #0
    1bb2:	d002      	beq.n	1bba <dhcp_inc_pcb_refcount+0x1a>
    1bb4:	481c      	ldr	r0, [pc, #112]	; (1c28 <dhcp_inc_pcb_refcount+0x88>)
    1bb6:	f00c fce3 	bl	e580 <sys_assert>
    1bba:	f00c f92f 	bl	de1c <udp_new>
    1bbe:	4602      	mov	r2, r0
    1bc0:	4b18      	ldr	r3, [pc, #96]	; (1c24 <dhcp_inc_pcb_refcount+0x84>)
    1bc2:	601a      	str	r2, [r3, #0]
    1bc4:	4b17      	ldr	r3, [pc, #92]	; (1c24 <dhcp_inc_pcb_refcount+0x84>)
    1bc6:	681b      	ldr	r3, [r3, #0]
    1bc8:	2b00      	cmp	r3, #0
    1bca:	d102      	bne.n	1bd2 <dhcp_inc_pcb_refcount+0x32>
    1bcc:	f04f 33ff 	mov.w	r3, #4294967295	; 0xffffffff
    1bd0:	e024      	b.n	1c1c <dhcp_inc_pcb_refcount+0x7c>
    1bd2:	4b14      	ldr	r3, [pc, #80]	; (1c24 <dhcp_inc_pcb_refcount+0x84>)
    1bd4:	681b      	ldr	r3, [r3, #0]
    1bd6:	7a1a      	ldrb	r2, [r3, #8]
    1bd8:	4b12      	ldr	r3, [pc, #72]	; (1c24 <dhcp_inc_pcb_refcount+0x84>)
    1bda:	681b      	ldr	r3, [r3, #0]
    1bdc:	f042 0220 	orr.w	r2, r2, #32
    1be0:	b2d2      	uxtb	r2, r2
    1be2:	721a      	strb	r2, [r3, #8]
    1be4:	4b0f      	ldr	r3, [pc, #60]	; (1c24 <dhcp_inc_pcb_refcount+0x84>)
    1be6:	681b      	ldr	r3, [r3, #0]
    1be8:	2244      	movs	r2, #68	; 0x44
    1bea:	4910      	ldr	r1, [pc, #64]	; (1c2c <dhcp_inc_pcb_refcount+0x8c>)
    1bec:	4618      	mov	r0, r3
    1bee:	f00b fff3 	bl	dbd8 <udp_bind>
    1bf2:	4b0c      	ldr	r3, [pc, #48]	; (1c24 <dhcp_inc_pcb_refcount+0x84>)
    1bf4:	681b      	ldr	r3, [r3, #0]
    1bf6:	2243      	movs	r2, #67	; 0x43
    1bf8:	490c      	ldr	r1, [pc, #48]	; (1c2c <dhcp_inc_pcb_refcount+0x8c>)
    1bfa:	4618      	mov	r0, r3
    1bfc:	f00c f85c 	bl	dcb8 <udp_connect>
    1c00:	4b08      	ldr	r3, [pc, #32]	; (1c24 <dhcp_inc_pcb_refcount+0x84>)
    1c02:	681b      	ldr	r3, [r3, #0]
    1c04:	2200      	movs	r2, #0
    1c06:	490a      	ldr	r1, [pc, #40]	; (1c30 <dhcp_inc_pcb_refcount+0x90>)
    1c08:	4618      	mov	r0, r3
    1c0a:	f00c f8c2 	bl	dd92 <udp_recv>
    1c0e:	4b04      	ldr	r3, [pc, #16]	; (1c20 <dhcp_inc_pcb_refcount+0x80>)
    1c10:	781b      	ldrb	r3, [r3, #0]
    1c12:	3301      	adds	r3, #1
    1c14:	b2da      	uxtb	r2, r3
    1c16:	4b02      	ldr	r3, [pc, #8]	; (1c20 <dhcp_inc_pcb_refcount+0x80>)
    1c18:	701a      	strb	r2, [r3, #0]
    1c1a:	2300      	movs	r3, #0
    1c1c:	4618      	mov	r0, r3
    1c1e:	bd80      	pop	{r7, pc}
    1c20:	20000104 	.word	0x20000104
    1c24:	20000100 	.word	0x20000100
    1c28:	00018140 	.word	0x00018140
    1c2c:	000188bc 	.word	0x000188bc
    1c30:	000033cd 	.word	0x000033cd

00001c34 <dhcp_dec_pcb_refcount>:
    1c34:	b580      	push	{r7, lr}
    1c36:	af00      	add	r7, sp, #0
    1c38:	4b0d      	ldr	r3, [pc, #52]	; (1c70 <dhcp_dec_pcb_refcount+0x3c>)
    1c3a:	781b      	ldrb	r3, [r3, #0]
    1c3c:	2b00      	cmp	r3, #0
    1c3e:	d102      	bne.n	1c46 <dhcp_dec_pcb_refcount+0x12>
    1c40:	480c      	ldr	r0, [pc, #48]	; (1c74 <dhcp_dec_pcb_refcount+0x40>)
    1c42:	f00c fc9d 	bl	e580 <sys_assert>
    1c46:	4b0a      	ldr	r3, [pc, #40]	; (1c70 <dhcp_dec_pcb_refcount+0x3c>)
    1c48:	781b      	ldrb	r3, [r3, #0]
    1c4a:	3b01      	subs	r3, #1
    1c4c:	b2da      	uxtb	r2, r3
    1c4e:	4b08      	ldr	r3, [pc, #32]	; (1c70 <dhcp_dec_pcb_refcount+0x3c>)
    1c50:	701a      	strb	r2, [r3, #0]
    1c52:	4b07      	ldr	r3, [pc, #28]	; (1c70 <dhcp_dec_pcb_refcount+0x3c>)
    1c54:	781b      	ldrb	r3, [r3, #0]
    1c56:	2b00      	cmp	r3, #0
    1c58:	d107      	bne.n	1c6a <dhcp_dec_pcb_refcount+0x36>
    1c5a:	4b07      	ldr	r3, [pc, #28]	; (1c78 <dhcp_dec_pcb_refcount+0x44>)
    1c5c:	681b      	ldr	r3, [r3, #0]
    1c5e:	4618      	mov	r0, r3
    1c60:	f00c f8aa 	bl	ddb8 <udp_remove>
    1c64:	4b04      	ldr	r3, [pc, #16]	; (1c78 <dhcp_dec_pcb_refcount+0x44>)
    1c66:	2200      	movs	r2, #0
    1c68:	601a      	str	r2, [r3, #0]
    1c6a:	bf00      	nop
    1c6c:	bd80      	pop	{r7, pc}
    1c6e:	bf00      	nop
    1c70:	20000104 	.word	0x20000104
    1c74:	00018168 	.word	0x00018168
    1c78:	20000100 	.word	0x20000100

00001c7c <dhcp_handle_nak>:
    1c7c:	b580      	push	{r7, lr}
    1c7e:	b084      	sub	sp, #16
    1c80:	af00      	add	r7, sp, #0
    1c82:	6078      	str	r0, [r7, #4]
    1c84:	687b      	ldr	r3, [r7, #4]
    1c86:	6a1b      	ldr	r3, [r3, #32]
    1c88:	60fb      	str	r3, [r7, #12]
    1c8a:	210c      	movs	r1, #12
    1c8c:	68f8      	ldr	r0, [r7, #12]
    1c8e:	f001 f83b 	bl	2d08 <dhcp_set_state>
    1c92:	4b06      	ldr	r3, [pc, #24]	; (1cac <dhcp_handle_nak+0x30>)
    1c94:	4a05      	ldr	r2, [pc, #20]	; (1cac <dhcp_handle_nak+0x30>)
    1c96:	4905      	ldr	r1, [pc, #20]	; (1cac <dhcp_handle_nak+0x30>)
    1c98:	6878      	ldr	r0, [r7, #4]
    1c9a:	f005 fa85 	bl	71a8 <netif_set_addr>
    1c9e:	6878      	ldr	r0, [r7, #4]
    1ca0:	f000 fc84 	bl	25ac <dhcp_discover>
    1ca4:	bf00      	nop
    1ca6:	3710      	adds	r7, #16
    1ca8:	46bd      	mov	sp, r7
    1caa:	bd80      	pop	{r7, pc}
    1cac:	000188bc 	.word	0x000188bc

00001cb0 <dhcp_check>:
    1cb0:	b580      	push	{r7, lr}
    1cb2:	b084      	sub	sp, #16
    1cb4:	af00      	add	r7, sp, #0
    1cb6:	6078      	str	r0, [r7, #4]
    1cb8:	687b      	ldr	r3, [r7, #4]
    1cba:	6a1b      	ldr	r3, [r3, #32]
    1cbc:	60fb      	str	r3, [r7, #12]
    1cbe:	2108      	movs	r1, #8
    1cc0:	68f8      	ldr	r0, [r7, #12]
    1cc2:	f001 f821 	bl	2d08 <dhcp_set_state>
    1cc6:	68fb      	ldr	r3, [r7, #12]
    1cc8:	3328      	adds	r3, #40	; 0x28
    1cca:	2200      	movs	r2, #0
    1ccc:	4619      	mov	r1, r3
    1cce:	6878      	ldr	r0, [r7, #4]
    1cd0:	f002 fbe4 	bl	449c <etharp_query>
    1cd4:	4603      	mov	r3, r0
    1cd6:	72fb      	strb	r3, [r7, #11]
    1cd8:	68fb      	ldr	r3, [r7, #12]
    1cda:	7a9b      	ldrb	r3, [r3, #10]
    1cdc:	2bff      	cmp	r3, #255	; 0xff
    1cde:	d005      	beq.n	1cec <dhcp_check+0x3c>
    1ce0:	68fb      	ldr	r3, [r7, #12]
    1ce2:	7a9b      	ldrb	r3, [r3, #10]
    1ce4:	3301      	adds	r3, #1
    1ce6:	b2da      	uxtb	r2, r3
    1ce8:	68fb      	ldr	r3, [r7, #12]
    1cea:	729a      	strb	r2, [r3, #10]
    1cec:	f44f 73fa 	mov.w	r3, #500	; 0x1f4
    1cf0:	813b      	strh	r3, [r7, #8]
    1cf2:	893b      	ldrh	r3, [r7, #8]
    1cf4:	f203 13f3 	addw	r3, r3, #499	; 0x1f3
    1cf8:	4a06      	ldr	r2, [pc, #24]	; (1d14 <dhcp_check+0x64>)
    1cfa:	fb82 1203 	smull	r1, r2, r2, r3
    1cfe:	1152      	asrs	r2, r2, #5
    1d00:	17db      	asrs	r3, r3, #31
    1d02:	1ad3      	subs	r3, r2, r3
    1d04:	b29a      	uxth	r2, r3
    1d06:	68fb      	ldr	r3, [r7, #12]
    1d08:	82da      	strh	r2, [r3, #22]
    1d0a:	bf00      	nop
    1d0c:	3710      	adds	r7, #16
    1d0e:	46bd      	mov	sp, r7
    1d10:	bd80      	pop	{r7, pc}
    1d12:	bf00      	nop
    1d14:	10624dd3 	.word	0x10624dd3

00001d18 <dhcp_handle_offer>:
    1d18:	b580      	push	{r7, lr}
    1d1a:	b084      	sub	sp, #16
    1d1c:	af00      	add	r7, sp, #0
    1d1e:	6078      	str	r0, [r7, #4]
    1d20:	687b      	ldr	r3, [r7, #4]
    1d22:	6a1b      	ldr	r3, [r3, #32]
    1d24:	60fb      	str	r3, [r7, #12]
    1d26:	4b0c      	ldr	r3, [pc, #48]	; (1d58 <dhcp_handle_offer+0x40>)
    1d28:	789b      	ldrb	r3, [r3, #2]
    1d2a:	2b00      	cmp	r3, #0
    1d2c:	d00f      	beq.n	1d4e <dhcp_handle_offer+0x36>
    1d2e:	4b0b      	ldr	r3, [pc, #44]	; (1d5c <dhcp_handle_offer+0x44>)
    1d30:	689b      	ldr	r3, [r3, #8]
    1d32:	4618      	mov	r0, r3
    1d34:	f004 fa56 	bl	61e4 <lwip_htonl>
    1d38:	4602      	mov	r2, r0
    1d3a:	68fb      	ldr	r3, [r7, #12]
    1d3c:	625a      	str	r2, [r3, #36]	; 0x24
    1d3e:	68fb      	ldr	r3, [r7, #12]
    1d40:	685b      	ldr	r3, [r3, #4]
    1d42:	691a      	ldr	r2, [r3, #16]
    1d44:	68fb      	ldr	r3, [r7, #12]
    1d46:	629a      	str	r2, [r3, #40]	; 0x28
    1d48:	6878      	ldr	r0, [r7, #4]
    1d4a:	f000 f809 	bl	1d60 <dhcp_select>
    1d4e:	bf00      	nop
    1d50:	3710      	adds	r7, #16
    1d52:	46bd      	mov	sp, r7
    1d54:	bd80      	pop	{r7, pc}
    1d56:	bf00      	nop
    1d58:	200000f8 	.word	0x200000f8
    1d5c:	200000d8 	.word	0x200000d8

00001d60 <dhcp_select>:
    1d60:	b580      	push	{r7, lr}
    1d62:	b088      	sub	sp, #32
    1d64:	af02      	add	r7, sp, #8
    1d66:	6078      	str	r0, [r7, #4]
    1d68:	687b      	ldr	r3, [r7, #4]
    1d6a:	6a1b      	ldr	r3, [r3, #32]
    1d6c:	613b      	str	r3, [r7, #16]
    1d6e:	2101      	movs	r1, #1
    1d70:	6938      	ldr	r0, [r7, #16]
    1d72:	f000 ffc9 	bl	2d08 <dhcp_set_state>
    1d76:	2203      	movs	r2, #3
    1d78:	6939      	ldr	r1, [r7, #16]
    1d7a:	6878      	ldr	r0, [r7, #4]
    1d7c:	f001 fbf8 	bl	3570 <dhcp_create_msg>
    1d80:	4603      	mov	r3, r0
    1d82:	73fb      	strb	r3, [r7, #15]
    1d84:	f997 300f 	ldrsb.w	r3, [r7, #15]
    1d88:	2b00      	cmp	r3, #0
    1d8a:	d159      	bne.n	1e40 <dhcp_select+0xe0>
    1d8c:	2202      	movs	r2, #2
    1d8e:	2139      	movs	r1, #57	; 0x39
    1d90:	6938      	ldr	r0, [r7, #16]
    1d92:	f000 ffd3 	bl	2d3c <dhcp_option>
    1d96:	687b      	ldr	r3, [r7, #4]
    1d98:	8cdb      	ldrh	r3, [r3, #38]	; 0x26
    1d9a:	4619      	mov	r1, r3
    1d9c:	6938      	ldr	r0, [r7, #16]
    1d9e:	f001 f81f 	bl	2de0 <dhcp_option_short>
    1da2:	2204      	movs	r2, #4
    1da4:	2132      	movs	r1, #50	; 0x32
    1da6:	6938      	ldr	r0, [r7, #16]
    1da8:	f000 ffc8 	bl	2d3c <dhcp_option>
    1dac:	693b      	ldr	r3, [r7, #16]
    1dae:	6a9b      	ldr	r3, [r3, #40]	; 0x28
    1db0:	4618      	mov	r0, r3
    1db2:	f004 fa17 	bl	61e4 <lwip_htonl>
    1db6:	4603      	mov	r3, r0
    1db8:	4619      	mov	r1, r3
    1dba:	6938      	ldr	r0, [r7, #16]
    1dbc:	f001 f842 	bl	2e44 <dhcp_option_long>
    1dc0:	2204      	movs	r2, #4
    1dc2:	2136      	movs	r1, #54	; 0x36
    1dc4:	6938      	ldr	r0, [r7, #16]
    1dc6:	f000 ffb9 	bl	2d3c <dhcp_option>
    1dca:	693b      	ldr	r3, [r7, #16]
    1dcc:	6a5b      	ldr	r3, [r3, #36]	; 0x24
    1dce:	4618      	mov	r0, r3
    1dd0:	f004 fa08 	bl	61e4 <lwip_htonl>
    1dd4:	4603      	mov	r3, r0
    1dd6:	4619      	mov	r1, r3
    1dd8:	6938      	ldr	r0, [r7, #16]
    1dda:	f001 f833 	bl	2e44 <dhcp_option_long>
    1dde:	2203      	movs	r2, #3
    1de0:	2137      	movs	r1, #55	; 0x37
    1de2:	6938      	ldr	r0, [r7, #16]
    1de4:	f000 ffaa 	bl	2d3c <dhcp_option>
    1de8:	2300      	movs	r3, #0
    1dea:	75fb      	strb	r3, [r7, #23]
    1dec:	e009      	b.n	1e02 <dhcp_select+0xa2>
    1dee:	7dfb      	ldrb	r3, [r7, #23]
    1df0:	4a29      	ldr	r2, [pc, #164]	; (1e98 <dhcp_select+0x138>)
    1df2:	5cd3      	ldrb	r3, [r2, r3]
    1df4:	4619      	mov	r1, r3
    1df6:	6938      	ldr	r0, [r7, #16]
    1df8:	f000 ffd2 	bl	2da0 <dhcp_option_byte>
    1dfc:	7dfb      	ldrb	r3, [r7, #23]
    1dfe:	3301      	adds	r3, #1
    1e00:	75fb      	strb	r3, [r7, #23]
    1e02:	7dfb      	ldrb	r3, [r7, #23]
    1e04:	2b02      	cmp	r3, #2
    1e06:	d9f2      	bls.n	1dee <dhcp_select+0x8e>
    1e08:	6938      	ldr	r0, [r7, #16]
    1e0a:	f001 fd2b 	bl	3864 <dhcp_option_trailer>
    1e0e:	693b      	ldr	r3, [r7, #16]
    1e10:	68da      	ldr	r2, [r3, #12]
    1e12:	693b      	ldr	r3, [r7, #16]
    1e14:	8a9b      	ldrh	r3, [r3, #20]
    1e16:	33f0      	adds	r3, #240	; 0xf0
    1e18:	b29b      	uxth	r3, r3
    1e1a:	4619      	mov	r1, r3
    1e1c:	4610      	mov	r0, r2
    1e1e:	f005 fd5d 	bl	78dc <pbuf_realloc>
    1e22:	4b1e      	ldr	r3, [pc, #120]	; (1e9c <dhcp_select+0x13c>)
    1e24:	6818      	ldr	r0, [r3, #0]
    1e26:	693b      	ldr	r3, [r7, #16]
    1e28:	68d9      	ldr	r1, [r3, #12]
    1e2a:	4b1d      	ldr	r3, [pc, #116]	; (1ea0 <dhcp_select+0x140>)
    1e2c:	9301      	str	r3, [sp, #4]
    1e2e:	687b      	ldr	r3, [r7, #4]
    1e30:	9300      	str	r3, [sp, #0]
    1e32:	2343      	movs	r3, #67	; 0x43
    1e34:	4a1b      	ldr	r2, [pc, #108]	; (1ea4 <dhcp_select+0x144>)
    1e36:	f00b fe23 	bl	da80 <udp_sendto_if_src>
    1e3a:	6938      	ldr	r0, [r7, #16]
    1e3c:	f001 fce0 	bl	3800 <dhcp_delete_msg>
    1e40:	693b      	ldr	r3, [r7, #16]
    1e42:	7a9b      	ldrb	r3, [r3, #10]
    1e44:	2bff      	cmp	r3, #255	; 0xff
    1e46:	d005      	beq.n	1e54 <dhcp_select+0xf4>
    1e48:	693b      	ldr	r3, [r7, #16]
    1e4a:	7a9b      	ldrb	r3, [r3, #10]
    1e4c:	3301      	adds	r3, #1
    1e4e:	b2da      	uxtb	r2, r3
    1e50:	693b      	ldr	r3, [r7, #16]
    1e52:	729a      	strb	r2, [r3, #10]
    1e54:	693b      	ldr	r3, [r7, #16]
    1e56:	7a9b      	ldrb	r3, [r3, #10]
    1e58:	2b05      	cmp	r3, #5
    1e5a:	d807      	bhi.n	1e6c <dhcp_select+0x10c>
    1e5c:	693b      	ldr	r3, [r7, #16]
    1e5e:	7a9b      	ldrb	r3, [r3, #10]
    1e60:	461a      	mov	r2, r3
    1e62:	f44f 737a 	mov.w	r3, #1000	; 0x3e8
    1e66:	4093      	lsls	r3, r2
    1e68:	b29b      	uxth	r3, r3
    1e6a:	e001      	b.n	1e70 <dhcp_select+0x110>
    1e6c:	f64e 2360 	movw	r3, #60000	; 0xea60
    1e70:	81bb      	strh	r3, [r7, #12]
    1e72:	89bb      	ldrh	r3, [r7, #12]
    1e74:	f203 13f3 	addw	r3, r3, #499	; 0x1f3
    1e78:	4a0b      	ldr	r2, [pc, #44]	; (1ea8 <dhcp_select+0x148>)
    1e7a:	fb82 1203 	smull	r1, r2, r2, r3
    1e7e:	1152      	asrs	r2, r2, #5
    1e80:	17db      	asrs	r3, r3, #31
    1e82:	1ad3      	subs	r3, r2, r3
    1e84:	b29a      	uxth	r2, r3
    1e86:	693b      	ldr	r3, [r7, #16]
    1e88:	82da      	strh	r2, [r3, #22]
    1e8a:	f997 300f 	ldrsb.w	r3, [r7, #15]
    1e8e:	4618      	mov	r0, r3
    1e90:	3718      	adds	r7, #24
    1e92:	46bd      	mov	sp, r7
    1e94:	bd80      	pop	{r7, pc}
    1e96:	bf00      	nop
    1e98:	20000000 	.word	0x20000000
    1e9c:	20000100 	.word	0x20000100
    1ea0:	000188bc 	.word	0x000188bc
    1ea4:	000188c0 	.word	0x000188c0
    1ea8:	10624dd3 	.word	0x10624dd3

00001eac <dhcp_coarse_tmr>:
    1eac:	b580      	push	{r7, lr}
    1eae:	b082      	sub	sp, #8
    1eb0:	af00      	add	r7, sp, #0
    1eb2:	4b27      	ldr	r3, [pc, #156]	; (1f50 <dhcp_coarse_tmr+0xa4>)
    1eb4:	681b      	ldr	r3, [r3, #0]
    1eb6:	607b      	str	r3, [r7, #4]
    1eb8:	e042      	b.n	1f40 <dhcp_coarse_tmr+0x94>
    1eba:	687b      	ldr	r3, [r7, #4]
    1ebc:	6a1b      	ldr	r3, [r3, #32]
    1ebe:	603b      	str	r3, [r7, #0]
    1ec0:	683b      	ldr	r3, [r7, #0]
    1ec2:	2b00      	cmp	r3, #0
    1ec4:	d039      	beq.n	1f3a <dhcp_coarse_tmr+0x8e>
    1ec6:	683b      	ldr	r3, [r7, #0]
    1ec8:	7a5b      	ldrb	r3, [r3, #9]
    1eca:	2b00      	cmp	r3, #0
    1ecc:	d035      	beq.n	1f3a <dhcp_coarse_tmr+0x8e>
    1ece:	683b      	ldr	r3, [r7, #0]
    1ed0:	8c5b      	ldrh	r3, [r3, #34]	; 0x22
    1ed2:	2b00      	cmp	r3, #0
    1ed4:	d012      	beq.n	1efc <dhcp_coarse_tmr+0x50>
    1ed6:	683b      	ldr	r3, [r7, #0]
    1ed8:	8c1b      	ldrh	r3, [r3, #32]
    1eda:	3301      	adds	r3, #1
    1edc:	b29a      	uxth	r2, r3
    1ede:	683b      	ldr	r3, [r7, #0]
    1ee0:	841a      	strh	r2, [r3, #32]
    1ee2:	683b      	ldr	r3, [r7, #0]
    1ee4:	8c1a      	ldrh	r2, [r3, #32]
    1ee6:	683b      	ldr	r3, [r7, #0]
    1ee8:	8c5b      	ldrh	r3, [r3, #34]	; 0x22
    1eea:	429a      	cmp	r2, r3
    1eec:	d106      	bne.n	1efc <dhcp_coarse_tmr+0x50>
    1eee:	6878      	ldr	r0, [r7, #4]
    1ef0:	f000 fe56 	bl	2ba0 <dhcp_release>
    1ef4:	6878      	ldr	r0, [r7, #4]
    1ef6:	f000 fb59 	bl	25ac <dhcp_discover>
    1efa:	e01e      	b.n	1f3a <dhcp_coarse_tmr+0x8e>
    1efc:	683b      	ldr	r3, [r7, #0]
    1efe:	8bdb      	ldrh	r3, [r3, #30]
    1f00:	2b00      	cmp	r3, #0
    1f02:	d00b      	beq.n	1f1c <dhcp_coarse_tmr+0x70>
    1f04:	683b      	ldr	r3, [r7, #0]
    1f06:	8bdb      	ldrh	r3, [r3, #30]
    1f08:	1e5a      	subs	r2, r3, #1
    1f0a:	b291      	uxth	r1, r2
    1f0c:	683a      	ldr	r2, [r7, #0]
    1f0e:	83d1      	strh	r1, [r2, #30]
    1f10:	2b01      	cmp	r3, #1
    1f12:	d103      	bne.n	1f1c <dhcp_coarse_tmr+0x70>
    1f14:	6878      	ldr	r0, [r7, #4]
    1f16:	f000 f8c6 	bl	20a6 <dhcp_t2_timeout>
    1f1a:	e00e      	b.n	1f3a <dhcp_coarse_tmr+0x8e>
    1f1c:	683b      	ldr	r3, [r7, #0]
    1f1e:	8b9b      	ldrh	r3, [r3, #28]
    1f20:	2b00      	cmp	r3, #0
    1f22:	d00a      	beq.n	1f3a <dhcp_coarse_tmr+0x8e>
    1f24:	683b      	ldr	r3, [r7, #0]
    1f26:	8b9b      	ldrh	r3, [r3, #28]
    1f28:	1e5a      	subs	r2, r3, #1
    1f2a:	b291      	uxth	r1, r2
    1f2c:	683a      	ldr	r2, [r7, #0]
    1f2e:	8391      	strh	r1, [r2, #28]
    1f30:	2b01      	cmp	r3, #1
    1f32:	d102      	bne.n	1f3a <dhcp_coarse_tmr+0x8e>
    1f34:	6878      	ldr	r0, [r7, #4]
    1f36:	f000 f888 	bl	204a <dhcp_t1_timeout>
    1f3a:	687b      	ldr	r3, [r7, #4]
    1f3c:	681b      	ldr	r3, [r3, #0]
    1f3e:	607b      	str	r3, [r7, #4]
    1f40:	687b      	ldr	r3, [r7, #4]
    1f42:	2b00      	cmp	r3, #0
    1f44:	d1b9      	bne.n	1eba <dhcp_coarse_tmr+0xe>
    1f46:	bf00      	nop
    1f48:	3708      	adds	r7, #8
    1f4a:	46bd      	mov	sp, r7
    1f4c:	bd80      	pop	{r7, pc}
    1f4e:	bf00      	nop
    1f50:	20009d08 	.word	0x20009d08

00001f54 <dhcp_fine_tmr>:
    1f54:	b580      	push	{r7, lr}
    1f56:	b082      	sub	sp, #8
    1f58:	af00      	add	r7, sp, #0
    1f5a:	4b16      	ldr	r3, [pc, #88]	; (1fb4 <dhcp_fine_tmr+0x60>)
    1f5c:	681b      	ldr	r3, [r3, #0]
    1f5e:	607b      	str	r3, [r7, #4]
    1f60:	e020      	b.n	1fa4 <dhcp_fine_tmr+0x50>
    1f62:	687b      	ldr	r3, [r7, #4]
    1f64:	6a1b      	ldr	r3, [r3, #32]
    1f66:	603b      	str	r3, [r7, #0]
    1f68:	683b      	ldr	r3, [r7, #0]
    1f6a:	2b00      	cmp	r3, #0
    1f6c:	d017      	beq.n	1f9e <dhcp_fine_tmr+0x4a>
    1f6e:	683b      	ldr	r3, [r7, #0]
    1f70:	8adb      	ldrh	r3, [r3, #22]
    1f72:	2b01      	cmp	r3, #1
    1f74:	d906      	bls.n	1f84 <dhcp_fine_tmr+0x30>
    1f76:	683b      	ldr	r3, [r7, #0]
    1f78:	8adb      	ldrh	r3, [r3, #22]
    1f7a:	3b01      	subs	r3, #1
    1f7c:	b29a      	uxth	r2, r3
    1f7e:	683b      	ldr	r3, [r7, #0]
    1f80:	82da      	strh	r2, [r3, #22]
    1f82:	e00c      	b.n	1f9e <dhcp_fine_tmr+0x4a>
    1f84:	683b      	ldr	r3, [r7, #0]
    1f86:	8adb      	ldrh	r3, [r3, #22]
    1f88:	2b01      	cmp	r3, #1
    1f8a:	d108      	bne.n	1f9e <dhcp_fine_tmr+0x4a>
    1f8c:	683b      	ldr	r3, [r7, #0]
    1f8e:	8adb      	ldrh	r3, [r3, #22]
    1f90:	3b01      	subs	r3, #1
    1f92:	b29a      	uxth	r2, r3
    1f94:	683b      	ldr	r3, [r7, #0]
    1f96:	82da      	strh	r2, [r3, #22]
    1f98:	6878      	ldr	r0, [r7, #4]
    1f9a:	f000 f80d 	bl	1fb8 <dhcp_timeout>
    1f9e:	687b      	ldr	r3, [r7, #4]
    1fa0:	681b      	ldr	r3, [r3, #0]
    1fa2:	607b      	str	r3, [r7, #4]
    1fa4:	687b      	ldr	r3, [r7, #4]
    1fa6:	2b00      	cmp	r3, #0
    1fa8:	d1db      	bne.n	1f62 <dhcp_fine_tmr+0xe>
    1faa:	bf00      	nop
    1fac:	3708      	adds	r7, #8
    1fae:	46bd      	mov	sp, r7
    1fb0:	bd80      	pop	{r7, pc}
    1fb2:	bf00      	nop
    1fb4:	20009d08 	.word	0x20009d08

00001fb8 <dhcp_timeout>:
    1fb8:	b580      	push	{r7, lr}
    1fba:	b084      	sub	sp, #16
    1fbc:	af00      	add	r7, sp, #0
    1fbe:	6078      	str	r0, [r7, #4]
    1fc0:	687b      	ldr	r3, [r7, #4]
    1fc2:	6a1b      	ldr	r3, [r3, #32]
    1fc4:	60fb      	str	r3, [r7, #12]
    1fc6:	68fb      	ldr	r3, [r7, #12]
    1fc8:	7a5b      	ldrb	r3, [r3, #9]
    1fca:	2b0c      	cmp	r3, #12
    1fcc:	d003      	beq.n	1fd6 <dhcp_timeout+0x1e>
    1fce:	68fb      	ldr	r3, [r7, #12]
    1fd0:	7a5b      	ldrb	r3, [r3, #9]
    1fd2:	2b06      	cmp	r3, #6
    1fd4:	d103      	bne.n	1fde <dhcp_timeout+0x26>
    1fd6:	6878      	ldr	r0, [r7, #4]
    1fd8:	f000 fae8 	bl	25ac <dhcp_discover>
    1fdc:	e031      	b.n	2042 <dhcp_timeout+0x8a>
    1fde:	68fb      	ldr	r3, [r7, #12]
    1fe0:	7a5b      	ldrb	r3, [r3, #9]
    1fe2:	2b01      	cmp	r3, #1
    1fe4:	d10e      	bne.n	2004 <dhcp_timeout+0x4c>
    1fe6:	68fb      	ldr	r3, [r7, #12]
    1fe8:	7a9b      	ldrb	r3, [r3, #10]
    1fea:	2b05      	cmp	r3, #5
    1fec:	d803      	bhi.n	1ff6 <dhcp_timeout+0x3e>
    1fee:	6878      	ldr	r0, [r7, #4]
    1ff0:	f7ff feb6 	bl	1d60 <dhcp_select>
    1ff4:	e025      	b.n	2042 <dhcp_timeout+0x8a>
    1ff6:	6878      	ldr	r0, [r7, #4]
    1ff8:	f000 fdd2 	bl	2ba0 <dhcp_release>
    1ffc:	6878      	ldr	r0, [r7, #4]
    1ffe:	f000 fad5 	bl	25ac <dhcp_discover>
    2002:	e01e      	b.n	2042 <dhcp_timeout+0x8a>
    2004:	68fb      	ldr	r3, [r7, #12]
    2006:	7a5b      	ldrb	r3, [r3, #9]
    2008:	2b08      	cmp	r3, #8
    200a:	d10b      	bne.n	2024 <dhcp_timeout+0x6c>
    200c:	68fb      	ldr	r3, [r7, #12]
    200e:	7a9b      	ldrb	r3, [r3, #10]
    2010:	2b01      	cmp	r3, #1
    2012:	d803      	bhi.n	201c <dhcp_timeout+0x64>
    2014:	6878      	ldr	r0, [r7, #4]
    2016:	f7ff fe4b 	bl	1cb0 <dhcp_check>
    201a:	e012      	b.n	2042 <dhcp_timeout+0x8a>
    201c:	6878      	ldr	r0, [r7, #4]
    201e:	f000 fb51 	bl	26c4 <dhcp_bind>
    2022:	e00e      	b.n	2042 <dhcp_timeout+0x8a>
    2024:	68fb      	ldr	r3, [r7, #12]
    2026:	7a5b      	ldrb	r3, [r3, #9]
    2028:	2b03      	cmp	r3, #3
    202a:	d10a      	bne.n	2042 <dhcp_timeout+0x8a>
    202c:	68fb      	ldr	r3, [r7, #12]
    202e:	7a9b      	ldrb	r3, [r3, #10]
    2030:	2b01      	cmp	r3, #1
    2032:	d803      	bhi.n	203c <dhcp_timeout+0x84>
    2034:	6878      	ldr	r0, [r7, #4]
    2036:	f000 fd1f 	bl	2a78 <dhcp_reboot>
    203a:	e002      	b.n	2042 <dhcp_timeout+0x8a>
    203c:	6878      	ldr	r0, [r7, #4]
    203e:	f000 fab5 	bl	25ac <dhcp_discover>
    2042:	bf00      	nop
    2044:	3710      	adds	r7, #16
    2046:	46bd      	mov	sp, r7
    2048:	bd80      	pop	{r7, pc}

0000204a <dhcp_t1_timeout>:
    204a:	b580      	push	{r7, lr}
    204c:	b084      	sub	sp, #16
    204e:	af00      	add	r7, sp, #0
    2050:	6078      	str	r0, [r7, #4]
    2052:	687b      	ldr	r3, [r7, #4]
    2054:	6a1b      	ldr	r3, [r3, #32]
    2056:	60fb      	str	r3, [r7, #12]
    2058:	68fb      	ldr	r3, [r7, #12]
    205a:	7a5b      	ldrb	r3, [r3, #9]
    205c:	2b01      	cmp	r3, #1
    205e:	d007      	beq.n	2070 <dhcp_t1_timeout+0x26>
    2060:	68fb      	ldr	r3, [r7, #12]
    2062:	7a5b      	ldrb	r3, [r3, #9]
    2064:	2b0a      	cmp	r3, #10
    2066:	d003      	beq.n	2070 <dhcp_t1_timeout+0x26>
    2068:	68fb      	ldr	r3, [r7, #12]
    206a:	7a5b      	ldrb	r3, [r3, #9]
    206c:	2b05      	cmp	r3, #5
    206e:	d116      	bne.n	209e <dhcp_t1_timeout+0x54>
    2070:	6878      	ldr	r0, [r7, #4]
    2072:	f000 fbf5 	bl	2860 <dhcp_renew>
    2076:	68fb      	ldr	r3, [r7, #12]
    2078:	8b5b      	ldrh	r3, [r3, #26]
    207a:	461a      	mov	r2, r3
    207c:	68fb      	ldr	r3, [r7, #12]
    207e:	8c1b      	ldrh	r3, [r3, #32]
    2080:	1ad3      	subs	r3, r2, r3
    2082:	2b01      	cmp	r3, #1
    2084:	dd0b      	ble.n	209e <dhcp_t1_timeout+0x54>
    2086:	68fb      	ldr	r3, [r7, #12]
    2088:	8b5b      	ldrh	r3, [r3, #26]
    208a:	461a      	mov	r2, r3
    208c:	68fb      	ldr	r3, [r7, #12]
    208e:	8c1b      	ldrh	r3, [r3, #32]
    2090:	1ad3      	subs	r3, r2, r3
    2092:	0fda      	lsrs	r2, r3, #31
    2094:	4413      	add	r3, r2
    2096:	105b      	asrs	r3, r3, #1
    2098:	b29a      	uxth	r2, r3
    209a:	68fb      	ldr	r3, [r7, #12]
    209c:	839a      	strh	r2, [r3, #28]
    209e:	bf00      	nop
    20a0:	3710      	adds	r7, #16
    20a2:	46bd      	mov	sp, r7
    20a4:	bd80      	pop	{r7, pc}

000020a6 <dhcp_t2_timeout>:
    20a6:	b580      	push	{r7, lr}
    20a8:	b084      	sub	sp, #16
    20aa:	af00      	add	r7, sp, #0
    20ac:	6078      	str	r0, [r7, #4]
    20ae:	687b      	ldr	r3, [r7, #4]
    20b0:	6a1b      	ldr	r3, [r3, #32]
    20b2:	60fb      	str	r3, [r7, #12]
    20b4:	68fb      	ldr	r3, [r7, #12]
    20b6:	7a5b      	ldrb	r3, [r3, #9]
    20b8:	2b01      	cmp	r3, #1
    20ba:	d00b      	beq.n	20d4 <dhcp_t2_timeout+0x2e>
    20bc:	68fb      	ldr	r3, [r7, #12]
    20be:	7a5b      	ldrb	r3, [r3, #9]
    20c0:	2b0a      	cmp	r3, #10
    20c2:	d007      	beq.n	20d4 <dhcp_t2_timeout+0x2e>
    20c4:	68fb      	ldr	r3, [r7, #12]
    20c6:	7a5b      	ldrb	r3, [r3, #9]
    20c8:	2b05      	cmp	r3, #5
    20ca:	d003      	beq.n	20d4 <dhcp_t2_timeout+0x2e>
    20cc:	68fb      	ldr	r3, [r7, #12]
    20ce:	7a5b      	ldrb	r3, [r3, #9]
    20d0:	2b04      	cmp	r3, #4
    20d2:	d116      	bne.n	2102 <dhcp_t2_timeout+0x5c>
    20d4:	6878      	ldr	r0, [r7, #4]
    20d6:	f000 fc49 	bl	296c <dhcp_rebind>
    20da:	68fb      	ldr	r3, [r7, #12]
    20dc:	8c5b      	ldrh	r3, [r3, #34]	; 0x22
    20de:	461a      	mov	r2, r3
    20e0:	68fb      	ldr	r3, [r7, #12]
    20e2:	8c1b      	ldrh	r3, [r3, #32]
    20e4:	1ad3      	subs	r3, r2, r3
    20e6:	2b01      	cmp	r3, #1
    20e8:	dd0b      	ble.n	2102 <dhcp_t2_timeout+0x5c>
    20ea:	68fb      	ldr	r3, [r7, #12]
    20ec:	8c5b      	ldrh	r3, [r3, #34]	; 0x22
    20ee:	461a      	mov	r2, r3
    20f0:	68fb      	ldr	r3, [r7, #12]
    20f2:	8c1b      	ldrh	r3, [r3, #32]
    20f4:	1ad3      	subs	r3, r2, r3
    20f6:	0fda      	lsrs	r2, r3, #31
    20f8:	4413      	add	r3, r2
    20fa:	105b      	asrs	r3, r3, #1
    20fc:	b29a      	uxth	r2, r3
    20fe:	68fb      	ldr	r3, [r7, #12]
    2100:	83da      	strh	r2, [r3, #30]
    2102:	bf00      	nop
    2104:	3710      	adds	r7, #16
    2106:	46bd      	mov	sp, r7
    2108:	bd80      	pop	{r7, pc}
    210a:	Address 0x000000000000210a is out of bounds.


0000210c <dhcp_handle_ack>:
    210c:	b580      	push	{r7, lr}
    210e:	b084      	sub	sp, #16
    2110:	af00      	add	r7, sp, #0
    2112:	6078      	str	r0, [r7, #4]
    2114:	687b      	ldr	r3, [r7, #4]
    2116:	6a1b      	ldr	r3, [r3, #32]
    2118:	60fb      	str	r3, [r7, #12]
    211a:	68fb      	ldr	r3, [r7, #12]
    211c:	2200      	movs	r2, #0
    211e:	62da      	str	r2, [r3, #44]	; 0x2c
    2120:	68fb      	ldr	r3, [r7, #12]
    2122:	2200      	movs	r2, #0
    2124:	631a      	str	r2, [r3, #48]	; 0x30
    2126:	4b27      	ldr	r3, [pc, #156]	; (21c4 <dhcp_handle_ack+0xb8>)
    2128:	78db      	ldrb	r3, [r3, #3]
    212a:	2b00      	cmp	r3, #0
    212c:	d003      	beq.n	2136 <dhcp_handle_ack+0x2a>
    212e:	4b26      	ldr	r3, [pc, #152]	; (21c8 <dhcp_handle_ack+0xbc>)
    2130:	68da      	ldr	r2, [r3, #12]
    2132:	68fb      	ldr	r3, [r7, #12]
    2134:	635a      	str	r2, [r3, #52]	; 0x34
    2136:	4b23      	ldr	r3, [pc, #140]	; (21c4 <dhcp_handle_ack+0xb8>)
    2138:	791b      	ldrb	r3, [r3, #4]
    213a:	2b00      	cmp	r3, #0
    213c:	d004      	beq.n	2148 <dhcp_handle_ack+0x3c>
    213e:	4b22      	ldr	r3, [pc, #136]	; (21c8 <dhcp_handle_ack+0xbc>)
    2140:	691a      	ldr	r2, [r3, #16]
    2142:	68fb      	ldr	r3, [r7, #12]
    2144:	639a      	str	r2, [r3, #56]	; 0x38
    2146:	e004      	b.n	2152 <dhcp_handle_ack+0x46>
    2148:	68fb      	ldr	r3, [r7, #12]
    214a:	6b5b      	ldr	r3, [r3, #52]	; 0x34
    214c:	085a      	lsrs	r2, r3, #1
    214e:	68fb      	ldr	r3, [r7, #12]
    2150:	639a      	str	r2, [r3, #56]	; 0x38
    2152:	4b1c      	ldr	r3, [pc, #112]	; (21c4 <dhcp_handle_ack+0xb8>)
    2154:	795b      	ldrb	r3, [r3, #5]
    2156:	2b00      	cmp	r3, #0
    2158:	d004      	beq.n	2164 <dhcp_handle_ack+0x58>
    215a:	4b1b      	ldr	r3, [pc, #108]	; (21c8 <dhcp_handle_ack+0xbc>)
    215c:	695a      	ldr	r2, [r3, #20]
    215e:	68fb      	ldr	r3, [r7, #12]
    2160:	63da      	str	r2, [r3, #60]	; 0x3c
    2162:	e007      	b.n	2174 <dhcp_handle_ack+0x68>
    2164:	68fb      	ldr	r3, [r7, #12]
    2166:	6b5a      	ldr	r2, [r3, #52]	; 0x34
    2168:	4613      	mov	r3, r2
    216a:	00db      	lsls	r3, r3, #3
    216c:	1a9b      	subs	r3, r3, r2
    216e:	08da      	lsrs	r2, r3, #3
    2170:	68fb      	ldr	r3, [r7, #12]
    2172:	63da      	str	r2, [r3, #60]	; 0x3c
    2174:	68fb      	ldr	r3, [r7, #12]
    2176:	685b      	ldr	r3, [r3, #4]
    2178:	691a      	ldr	r2, [r3, #16]
    217a:	68fb      	ldr	r3, [r7, #12]
    217c:	629a      	str	r2, [r3, #40]	; 0x28
    217e:	4b11      	ldr	r3, [pc, #68]	; (21c4 <dhcp_handle_ack+0xb8>)
    2180:	799b      	ldrb	r3, [r3, #6]
    2182:	2b00      	cmp	r3, #0
    2184:	d00b      	beq.n	219e <dhcp_handle_ack+0x92>
    2186:	4b10      	ldr	r3, [pc, #64]	; (21c8 <dhcp_handle_ack+0xbc>)
    2188:	699b      	ldr	r3, [r3, #24]
    218a:	4618      	mov	r0, r3
    218c:	f004 f82a 	bl	61e4 <lwip_htonl>
    2190:	4602      	mov	r2, r0
    2192:	68fb      	ldr	r3, [r7, #12]
    2194:	62da      	str	r2, [r3, #44]	; 0x2c
    2196:	68fb      	ldr	r3, [r7, #12]
    2198:	2201      	movs	r2, #1
    219a:	72da      	strb	r2, [r3, #11]
    219c:	e002      	b.n	21a4 <dhcp_handle_ack+0x98>
    219e:	68fb      	ldr	r3, [r7, #12]
    21a0:	2200      	movs	r2, #0
    21a2:	72da      	strb	r2, [r3, #11]
    21a4:	4b07      	ldr	r3, [pc, #28]	; (21c4 <dhcp_handle_ack+0xb8>)
    21a6:	79db      	ldrb	r3, [r3, #7]
    21a8:	2b00      	cmp	r3, #0
    21aa:	d007      	beq.n	21bc <dhcp_handle_ack+0xb0>
    21ac:	4b06      	ldr	r3, [pc, #24]	; (21c8 <dhcp_handle_ack+0xbc>)
    21ae:	69db      	ldr	r3, [r3, #28]
    21b0:	4618      	mov	r0, r3
    21b2:	f004 f817 	bl	61e4 <lwip_htonl>
    21b6:	4602      	mov	r2, r0
    21b8:	68fb      	ldr	r3, [r7, #12]
    21ba:	631a      	str	r2, [r3, #48]	; 0x30
    21bc:	bf00      	nop
    21be:	3710      	adds	r7, #16
    21c0:	46bd      	mov	sp, r7
    21c2:	bd80      	pop	{r7, pc}
    21c4:	200000f8 	.word	0x200000f8
    21c8:	200000d8 	.word	0x200000d8

000021cc <dhcp_set_struct>:
    21cc:	b580      	push	{r7, lr}
    21ce:	b082      	sub	sp, #8
    21d0:	af00      	add	r7, sp, #0
    21d2:	6078      	str	r0, [r7, #4]
    21d4:	6039      	str	r1, [r7, #0]
    21d6:	687b      	ldr	r3, [r7, #4]
    21d8:	2b00      	cmp	r3, #0
    21da:	d102      	bne.n	21e2 <dhcp_set_struct+0x16>
    21dc:	480d      	ldr	r0, [pc, #52]	; (2214 <dhcp_set_struct+0x48>)
    21de:	f00c f9cf 	bl	e580 <sys_assert>
    21e2:	683b      	ldr	r3, [r7, #0]
    21e4:	2b00      	cmp	r3, #0
    21e6:	d102      	bne.n	21ee <dhcp_set_struct+0x22>
    21e8:	480b      	ldr	r0, [pc, #44]	; (2218 <dhcp_set_struct+0x4c>)
    21ea:	f00c f9c9 	bl	e580 <sys_assert>
    21ee:	687b      	ldr	r3, [r7, #4]
    21f0:	6a1b      	ldr	r3, [r3, #32]
    21f2:	2b00      	cmp	r3, #0
    21f4:	d002      	beq.n	21fc <dhcp_set_struct+0x30>
    21f6:	4809      	ldr	r0, [pc, #36]	; (221c <dhcp_set_struct+0x50>)
    21f8:	f00c f9c2 	bl	e580 <sys_assert>
    21fc:	2240      	movs	r2, #64	; 0x40
    21fe:	2100      	movs	r1, #0
    2200:	6838      	ldr	r0, [r7, #0]
    2202:	f015 fd5d 	bl	17cc0 <memset>
    2206:	687b      	ldr	r3, [r7, #4]
    2208:	683a      	ldr	r2, [r7, #0]
    220a:	621a      	str	r2, [r3, #32]
    220c:	bf00      	nop
    220e:	3708      	adds	r7, #8
    2210:	46bd      	mov	sp, r7
    2212:	bd80      	pop	{r7, pc}
    2214:	0001818c 	.word	0x0001818c
    2218:	0001819c 	.word	0x0001819c
    221c:	000181ac 	.word	0x000181ac

00002220 <dhcp_cleanup>:
    2220:	b580      	push	{r7, lr}
    2222:	b082      	sub	sp, #8
    2224:	af00      	add	r7, sp, #0
    2226:	6078      	str	r0, [r7, #4]
    2228:	687b      	ldr	r3, [r7, #4]
    222a:	2b00      	cmp	r3, #0
    222c:	d102      	bne.n	2234 <dhcp_cleanup+0x14>
    222e:	4809      	ldr	r0, [pc, #36]	; (2254 <dhcp_cleanup+0x34>)
    2230:	f00c f9a6 	bl	e580 <sys_assert>
    2234:	687b      	ldr	r3, [r7, #4]
    2236:	6a1b      	ldr	r3, [r3, #32]
    2238:	2b00      	cmp	r3, #0
    223a:	d007      	beq.n	224c <dhcp_cleanup+0x2c>
    223c:	687b      	ldr	r3, [r7, #4]
    223e:	6a1b      	ldr	r3, [r3, #32]
    2240:	4618      	mov	r0, r3
    2242:	f004 fc0b 	bl	6a5c <mem_free>
    2246:	687b      	ldr	r3, [r7, #4]
    2248:	2200      	movs	r2, #0
    224a:	621a      	str	r2, [r3, #32]
    224c:	bf00      	nop
    224e:	3708      	adds	r7, #8
    2250:	46bd      	mov	sp, r7
    2252:	bd80      	pop	{r7, pc}
    2254:	0001818c 	.word	0x0001818c

00002258 <dhcp_start>:
    2258:	b580      	push	{r7, lr}
    225a:	b084      	sub	sp, #16
    225c:	af00      	add	r7, sp, #0
    225e:	6078      	str	r0, [r7, #4]
    2260:	687b      	ldr	r3, [r7, #4]
    2262:	2b00      	cmp	r3, #0
    2264:	d105      	bne.n	2272 <dhcp_start+0x1a>
    2266:	4834      	ldr	r0, [pc, #208]	; (2338 <dhcp_start+0xe0>)
    2268:	f00c f98a 	bl	e580 <sys_assert>
    226c:	f06f 030f 	mvn.w	r3, #15
    2270:	e05d      	b.n	232e <dhcp_start+0xd6>
    2272:	687b      	ldr	r3, [r7, #4]
    2274:	f893 302f 	ldrb.w	r3, [r3, #47]	; 0x2f
    2278:	f003 0301 	and.w	r3, r3, #1
    227c:	2b00      	cmp	r3, #0
    227e:	d105      	bne.n	228c <dhcp_start+0x34>
    2280:	482e      	ldr	r0, [pc, #184]	; (233c <dhcp_start+0xe4>)
    2282:	f00c f97d 	bl	e580 <sys_assert>
    2286:	f06f 030f 	mvn.w	r3, #15
    228a:	e050      	b.n	232e <dhcp_start+0xd6>
    228c:	687b      	ldr	r3, [r7, #4]
    228e:	6a1b      	ldr	r3, [r3, #32]
    2290:	60fb      	str	r3, [r7, #12]
    2292:	687b      	ldr	r3, [r7, #4]
    2294:	8cdb      	ldrh	r3, [r3, #38]	; 0x26
    2296:	f5b3 7f10 	cmp.w	r3, #576	; 0x240
    229a:	d202      	bcs.n	22a2 <dhcp_start+0x4a>
    229c:	f04f 33ff 	mov.w	r3, #4294967295	; 0xffffffff
    22a0:	e045      	b.n	232e <dhcp_start+0xd6>
    22a2:	68fb      	ldr	r3, [r7, #12]
    22a4:	2b00      	cmp	r3, #0
    22a6:	d10d      	bne.n	22c4 <dhcp_start+0x6c>
    22a8:	2040      	movs	r0, #64	; 0x40
    22aa:	f004 fd03 	bl	6cb4 <mem_malloc>
    22ae:	60f8      	str	r0, [r7, #12]
    22b0:	68fb      	ldr	r3, [r7, #12]
    22b2:	2b00      	cmp	r3, #0
    22b4:	d102      	bne.n	22bc <dhcp_start+0x64>
    22b6:	f04f 33ff 	mov.w	r3, #4294967295	; 0xffffffff
    22ba:	e038      	b.n	232e <dhcp_start+0xd6>
    22bc:	687b      	ldr	r3, [r7, #4]
    22be:	68fa      	ldr	r2, [r7, #12]
    22c0:	621a      	str	r2, [r3, #32]
    22c2:	e013      	b.n	22ec <dhcp_start+0x94>
    22c4:	68fb      	ldr	r3, [r7, #12]
    22c6:	68db      	ldr	r3, [r3, #12]
    22c8:	2b00      	cmp	r3, #0
    22ca:	d002      	beq.n	22d2 <dhcp_start+0x7a>
    22cc:	481c      	ldr	r0, [pc, #112]	; (2340 <dhcp_start+0xe8>)
    22ce:	f00c f957 	bl	e580 <sys_assert>
    22d2:	68fb      	ldr	r3, [r7, #12]
    22d4:	685b      	ldr	r3, [r3, #4]
    22d6:	2b00      	cmp	r3, #0
    22d8:	d002      	beq.n	22e0 <dhcp_start+0x88>
    22da:	481a      	ldr	r0, [pc, #104]	; (2344 <dhcp_start+0xec>)
    22dc:	f00c f950 	bl	e580 <sys_assert>
    22e0:	68fb      	ldr	r3, [r7, #12]
    22e2:	7a1b      	ldrb	r3, [r3, #8]
    22e4:	2b00      	cmp	r3, #0
    22e6:	d001      	beq.n	22ec <dhcp_start+0x94>
    22e8:	f7ff fca4 	bl	1c34 <dhcp_dec_pcb_refcount>
    22ec:	2240      	movs	r2, #64	; 0x40
    22ee:	2100      	movs	r1, #0
    22f0:	68f8      	ldr	r0, [r7, #12]
    22f2:	f015 fce5 	bl	17cc0 <memset>
    22f6:	f7ff fc53 	bl	1ba0 <dhcp_inc_pcb_refcount>
    22fa:	4603      	mov	r3, r0
    22fc:	2b00      	cmp	r3, #0
    22fe:	d002      	beq.n	2306 <dhcp_start+0xae>
    2300:	f04f 33ff 	mov.w	r3, #4294967295	; 0xffffffff
    2304:	e013      	b.n	232e <dhcp_start+0xd6>
    2306:	68fb      	ldr	r3, [r7, #12]
    2308:	2201      	movs	r2, #1
    230a:	721a      	strb	r2, [r3, #8]
    230c:	6878      	ldr	r0, [r7, #4]
    230e:	f000 f94d 	bl	25ac <dhcp_discover>
    2312:	4603      	mov	r3, r0
    2314:	72fb      	strb	r3, [r7, #11]
    2316:	f997 300b 	ldrsb.w	r3, [r7, #11]
    231a:	2b00      	cmp	r3, #0
    231c:	d005      	beq.n	232a <dhcp_start+0xd2>
    231e:	6878      	ldr	r0, [r7, #4]
    2320:	f000 fcc6 	bl	2cb0 <dhcp_stop>
    2324:	f04f 33ff 	mov.w	r3, #4294967295	; 0xffffffff
    2328:	e001      	b.n	232e <dhcp_start+0xd6>
    232a:	f997 300b 	ldrsb.w	r3, [r7, #11]
    232e:	4618      	mov	r0, r3
    2330:	3710      	adds	r7, #16
    2332:	46bd      	mov	sp, r7
    2334:	bd80      	pop	{r7, pc}
    2336:	bf00      	nop
    2338:	0001818c 	.word	0x0001818c
    233c:	000181d0 	.word	0x000181d0
    2340:	000181f4 	.word	0x000181f4
    2344:	0001820c 	.word	0x0001820c

00002348 <dhcp_inform>:
    2348:	b580      	push	{r7, lr}
    234a:	b096      	sub	sp, #88	; 0x58
    234c:	af02      	add	r7, sp, #8
    234e:	6078      	str	r0, [r7, #4]
    2350:	2300      	movs	r3, #0
    2352:	f887 304f 	strb.w	r3, [r7, #79]	; 0x4f
    2356:	687b      	ldr	r3, [r7, #4]
    2358:	2b00      	cmp	r3, #0
    235a:	d103      	bne.n	2364 <dhcp_inform+0x1c>
    235c:	482a      	ldr	r0, [pc, #168]	; (2408 <dhcp_inform+0xc0>)
    235e:	f00c f90f 	bl	e580 <sys_assert>
    2362:	e04d      	b.n	2400 <dhcp_inform+0xb8>
    2364:	f7ff fc1c 	bl	1ba0 <dhcp_inc_pcb_refcount>
    2368:	4603      	mov	r3, r0
    236a:	2b00      	cmp	r3, #0
    236c:	d147      	bne.n	23fe <dhcp_inform+0xb6>
    236e:	f107 030c 	add.w	r3, r7, #12
    2372:	2240      	movs	r2, #64	; 0x40
    2374:	2100      	movs	r1, #0
    2376:	4618      	mov	r0, r3
    2378:	f015 fca2 	bl	17cc0 <memset>
    237c:	f107 030c 	add.w	r3, r7, #12
    2380:	2107      	movs	r1, #7
    2382:	4618      	mov	r0, r3
    2384:	f000 fcc0 	bl	2d08 <dhcp_set_state>
    2388:	f107 030c 	add.w	r3, r7, #12
    238c:	2208      	movs	r2, #8
    238e:	4619      	mov	r1, r3
    2390:	6878      	ldr	r0, [r7, #4]
    2392:	f001 f8ed 	bl	3570 <dhcp_create_msg>
    2396:	4603      	mov	r3, r0
    2398:	f887 304f 	strb.w	r3, [r7, #79]	; 0x4f
    239c:	f997 304f 	ldrsb.w	r3, [r7, #79]	; 0x4f
    23a0:	2b00      	cmp	r3, #0
    23a2:	d129      	bne.n	23f8 <dhcp_inform+0xb0>
    23a4:	f107 030c 	add.w	r3, r7, #12
    23a8:	2202      	movs	r2, #2
    23aa:	2139      	movs	r1, #57	; 0x39
    23ac:	4618      	mov	r0, r3
    23ae:	f000 fcc5 	bl	2d3c <dhcp_option>
    23b2:	687b      	ldr	r3, [r7, #4]
    23b4:	8cda      	ldrh	r2, [r3, #38]	; 0x26
    23b6:	f107 030c 	add.w	r3, r7, #12
    23ba:	4611      	mov	r1, r2
    23bc:	4618      	mov	r0, r3
    23be:	f000 fd0f 	bl	2de0 <dhcp_option_short>
    23c2:	f107 030c 	add.w	r3, r7, #12
    23c6:	4618      	mov	r0, r3
    23c8:	f001 fa4c 	bl	3864 <dhcp_option_trailer>
    23cc:	69ba      	ldr	r2, [r7, #24]
    23ce:	8c3b      	ldrh	r3, [r7, #32]
    23d0:	33f0      	adds	r3, #240	; 0xf0
    23d2:	b29b      	uxth	r3, r3
    23d4:	4619      	mov	r1, r3
    23d6:	4610      	mov	r0, r2
    23d8:	f005 fa80 	bl	78dc <pbuf_realloc>
    23dc:	4b0b      	ldr	r3, [pc, #44]	; (240c <dhcp_inform+0xc4>)
    23de:	6818      	ldr	r0, [r3, #0]
    23e0:	69b9      	ldr	r1, [r7, #24]
    23e2:	687b      	ldr	r3, [r7, #4]
    23e4:	9300      	str	r3, [sp, #0]
    23e6:	2343      	movs	r3, #67	; 0x43
    23e8:	4a09      	ldr	r2, [pc, #36]	; (2410 <dhcp_inform+0xc8>)
    23ea:	f00b fb0b 	bl	da04 <udp_sendto_if>
    23ee:	f107 030c 	add.w	r3, r7, #12
    23f2:	4618      	mov	r0, r3
    23f4:	f001 fa04 	bl	3800 <dhcp_delete_msg>
    23f8:	f7ff fc1c 	bl	1c34 <dhcp_dec_pcb_refcount>
    23fc:	e000      	b.n	2400 <dhcp_inform+0xb8>
    23fe:	bf00      	nop
    2400:	3750      	adds	r7, #80	; 0x50
    2402:	46bd      	mov	sp, r7
    2404:	bd80      	pop	{r7, pc}
    2406:	bf00      	nop
    2408:	0001818c 	.word	0x0001818c
    240c:	20000100 	.word	0x20000100
    2410:	000188c0 	.word	0x000188c0

00002414 <dhcp_network_changed>:
    2414:	b580      	push	{r7, lr}
    2416:	b084      	sub	sp, #16
    2418:	af00      	add	r7, sp, #0
    241a:	6078      	str	r0, [r7, #4]
    241c:	687b      	ldr	r3, [r7, #4]
    241e:	6a1b      	ldr	r3, [r3, #32]
    2420:	60fb      	str	r3, [r7, #12]
    2422:	68fb      	ldr	r3, [r7, #12]
    2424:	2b00      	cmp	r3, #0
    2426:	d02c      	beq.n	2482 <dhcp_network_changed+0x6e>
    2428:	68fb      	ldr	r3, [r7, #12]
    242a:	7a5b      	ldrb	r3, [r3, #9]
    242c:	2b0a      	cmp	r3, #10
    242e:	d820      	bhi.n	2472 <dhcp_network_changed+0x5e>
    2430:	a201      	add	r2, pc, #4	; (adr r2, 2438 <dhcp_network_changed+0x24>)
    2432:	f852 f023 	ldr.w	pc, [r2, r3, lsl #2]
    2436:	bf00      	nop
    2438:	00002487 	.word	0x00002487
    243c:	00002473 	.word	0x00002473
    2440:	00002473 	.word	0x00002473
    2444:	00002465 	.word	0x00002465
    2448:	00002465 	.word	0x00002465
    244c:	00002465 	.word	0x00002465
    2450:	00002473 	.word	0x00002473
    2454:	00002473 	.word	0x00002473
    2458:	00002473 	.word	0x00002473
    245c:	00002473 	.word	0x00002473
    2460:	00002465 	.word	0x00002465
    2464:	68fb      	ldr	r3, [r7, #12]
    2466:	2200      	movs	r2, #0
    2468:	729a      	strb	r2, [r3, #10]
    246a:	6878      	ldr	r0, [r7, #4]
    246c:	f000 fb04 	bl	2a78 <dhcp_reboot>
    2470:	e00a      	b.n	2488 <dhcp_network_changed+0x74>
    2472:	68fb      	ldr	r3, [r7, #12]
    2474:	2200      	movs	r2, #0
    2476:	729a      	strb	r2, [r3, #10]
    2478:	6878      	ldr	r0, [r7, #4]
    247a:	f000 f897 	bl	25ac <dhcp_discover>
    247e:	bf00      	nop
    2480:	e002      	b.n	2488 <dhcp_network_changed+0x74>
    2482:	bf00      	nop
    2484:	e000      	b.n	2488 <dhcp_network_changed+0x74>
    2486:	bf00      	nop
    2488:	3710      	adds	r7, #16
    248a:	46bd      	mov	sp, r7
    248c:	bd80      	pop	{r7, pc}
    248e:	bf00      	nop

00002490 <dhcp_arp_reply>:
    2490:	b580      	push	{r7, lr}
    2492:	b084      	sub	sp, #16
    2494:	af00      	add	r7, sp, #0
    2496:	6078      	str	r0, [r7, #4]
    2498:	6039      	str	r1, [r7, #0]
    249a:	687b      	ldr	r3, [r7, #4]
    249c:	2b00      	cmp	r3, #0
    249e:	d103      	bne.n	24a8 <dhcp_arp_reply+0x18>
    24a0:	480c      	ldr	r0, [pc, #48]	; (24d4 <dhcp_arp_reply+0x44>)
    24a2:	f00c f86d 	bl	e580 <sys_assert>
    24a6:	e012      	b.n	24ce <dhcp_arp_reply+0x3e>
    24a8:	687b      	ldr	r3, [r7, #4]
    24aa:	6a1b      	ldr	r3, [r3, #32]
    24ac:	60fb      	str	r3, [r7, #12]
    24ae:	68fb      	ldr	r3, [r7, #12]
    24b0:	2b00      	cmp	r3, #0
    24b2:	d00c      	beq.n	24ce <dhcp_arp_reply+0x3e>
    24b4:	68fb      	ldr	r3, [r7, #12]
    24b6:	7a5b      	ldrb	r3, [r3, #9]
    24b8:	2b08      	cmp	r3, #8
    24ba:	d108      	bne.n	24ce <dhcp_arp_reply+0x3e>
    24bc:	683b      	ldr	r3, [r7, #0]
    24be:	681a      	ldr	r2, [r3, #0]
    24c0:	68fb      	ldr	r3, [r7, #12]
    24c2:	6a9b      	ldr	r3, [r3, #40]	; 0x28
    24c4:	429a      	cmp	r2, r3
    24c6:	d102      	bne.n	24ce <dhcp_arp_reply+0x3e>
    24c8:	6878      	ldr	r0, [r7, #4]
    24ca:	f000 f805 	bl	24d8 <dhcp_decline>
    24ce:	3710      	adds	r7, #16
    24d0:	46bd      	mov	sp, r7
    24d2:	bd80      	pop	{r7, pc}
    24d4:	0001818c 	.word	0x0001818c

000024d8 <dhcp_decline>:
    24d8:	b580      	push	{r7, lr}
    24da:	b086      	sub	sp, #24
    24dc:	af02      	add	r7, sp, #8
    24de:	6078      	str	r0, [r7, #4]
    24e0:	687b      	ldr	r3, [r7, #4]
    24e2:	6a1b      	ldr	r3, [r3, #32]
    24e4:	60fb      	str	r3, [r7, #12]
    24e6:	2300      	movs	r3, #0
    24e8:	72fb      	strb	r3, [r7, #11]
    24ea:	210c      	movs	r1, #12
    24ec:	68f8      	ldr	r0, [r7, #12]
    24ee:	f000 fc0b 	bl	2d08 <dhcp_set_state>
    24f2:	2204      	movs	r2, #4
    24f4:	68f9      	ldr	r1, [r7, #12]
    24f6:	6878      	ldr	r0, [r7, #4]
    24f8:	f001 f83a 	bl	3570 <dhcp_create_msg>
    24fc:	4603      	mov	r3, r0
    24fe:	72fb      	strb	r3, [r7, #11]
    2500:	f997 300b 	ldrsb.w	r3, [r7, #11]
    2504:	2b00      	cmp	r3, #0
    2506:	d12a      	bne.n	255e <dhcp_decline+0x86>
    2508:	2204      	movs	r2, #4
    250a:	2132      	movs	r1, #50	; 0x32
    250c:	68f8      	ldr	r0, [r7, #12]
    250e:	f000 fc15 	bl	2d3c <dhcp_option>
    2512:	68fb      	ldr	r3, [r7, #12]
    2514:	6a9b      	ldr	r3, [r3, #40]	; 0x28
    2516:	4618      	mov	r0, r3
    2518:	f003 fe64 	bl	61e4 <lwip_htonl>
    251c:	4603      	mov	r3, r0
    251e:	4619      	mov	r1, r3
    2520:	68f8      	ldr	r0, [r7, #12]
    2522:	f000 fc8f 	bl	2e44 <dhcp_option_long>
    2526:	68f8      	ldr	r0, [r7, #12]
    2528:	f001 f99c 	bl	3864 <dhcp_option_trailer>
    252c:	68fb      	ldr	r3, [r7, #12]
    252e:	68da      	ldr	r2, [r3, #12]
    2530:	68fb      	ldr	r3, [r7, #12]
    2532:	8a9b      	ldrh	r3, [r3, #20]
    2534:	33f0      	adds	r3, #240	; 0xf0
    2536:	b29b      	uxth	r3, r3
    2538:	4619      	mov	r1, r3
    253a:	4610      	mov	r0, r2
    253c:	f005 f9ce 	bl	78dc <pbuf_realloc>
    2540:	4b16      	ldr	r3, [pc, #88]	; (259c <dhcp_decline+0xc4>)
    2542:	6818      	ldr	r0, [r3, #0]
    2544:	68fb      	ldr	r3, [r7, #12]
    2546:	68d9      	ldr	r1, [r3, #12]
    2548:	4b15      	ldr	r3, [pc, #84]	; (25a0 <dhcp_decline+0xc8>)
    254a:	9301      	str	r3, [sp, #4]
    254c:	687b      	ldr	r3, [r7, #4]
    254e:	9300      	str	r3, [sp, #0]
    2550:	2343      	movs	r3, #67	; 0x43
    2552:	4a14      	ldr	r2, [pc, #80]	; (25a4 <dhcp_decline+0xcc>)
    2554:	f00b fa94 	bl	da80 <udp_sendto_if_src>
    2558:	68f8      	ldr	r0, [r7, #12]
    255a:	f001 f951 	bl	3800 <dhcp_delete_msg>
    255e:	68fb      	ldr	r3, [r7, #12]
    2560:	7a9b      	ldrb	r3, [r3, #10]
    2562:	2bff      	cmp	r3, #255	; 0xff
    2564:	d005      	beq.n	2572 <dhcp_decline+0x9a>
    2566:	68fb      	ldr	r3, [r7, #12]
    2568:	7a9b      	ldrb	r3, [r3, #10]
    256a:	3301      	adds	r3, #1
    256c:	b2da      	uxtb	r2, r3
    256e:	68fb      	ldr	r3, [r7, #12]
    2570:	729a      	strb	r2, [r3, #10]
    2572:	f242 7310 	movw	r3, #10000	; 0x2710
    2576:	813b      	strh	r3, [r7, #8]
    2578:	893b      	ldrh	r3, [r7, #8]
    257a:	f203 13f3 	addw	r3, r3, #499	; 0x1f3
    257e:	4a0a      	ldr	r2, [pc, #40]	; (25a8 <dhcp_decline+0xd0>)
    2580:	fb82 1203 	smull	r1, r2, r2, r3
    2584:	1152      	asrs	r2, r2, #5
    2586:	17db      	asrs	r3, r3, #31
    2588:	1ad3      	subs	r3, r2, r3
    258a:	b29a      	uxth	r2, r3
    258c:	68fb      	ldr	r3, [r7, #12]
    258e:	82da      	strh	r2, [r3, #22]
    2590:	f997 300b 	ldrsb.w	r3, [r7, #11]
    2594:	4618      	mov	r0, r3
    2596:	3710      	adds	r7, #16
    2598:	46bd      	mov	sp, r7
    259a:	bd80      	pop	{r7, pc}
    259c:	20000100 	.word	0x20000100
    25a0:	000188bc 	.word	0x000188bc
    25a4:	000188c0 	.word	0x000188c0
    25a8:	10624dd3 	.word	0x10624dd3

000025ac <dhcp_discover>:
    25ac:	b580      	push	{r7, lr}
    25ae:	b088      	sub	sp, #32
    25b0:	af02      	add	r7, sp, #8
    25b2:	6078      	str	r0, [r7, #4]
    25b4:	687b      	ldr	r3, [r7, #4]
    25b6:	6a1b      	ldr	r3, [r3, #32]
    25b8:	613b      	str	r3, [r7, #16]
    25ba:	2300      	movs	r3, #0
    25bc:	73fb      	strb	r3, [r7, #15]
    25be:	693b      	ldr	r3, [r7, #16]
    25c0:	2200      	movs	r2, #0
    25c2:	629a      	str	r2, [r3, #40]	; 0x28
    25c4:	2106      	movs	r1, #6
    25c6:	6938      	ldr	r0, [r7, #16]
    25c8:	f000 fb9e 	bl	2d08 <dhcp_set_state>
    25cc:	2201      	movs	r2, #1
    25ce:	6939      	ldr	r1, [r7, #16]
    25d0:	6878      	ldr	r0, [r7, #4]
    25d2:	f000 ffcd 	bl	3570 <dhcp_create_msg>
    25d6:	4603      	mov	r3, r0
    25d8:	73fb      	strb	r3, [r7, #15]
    25da:	f997 300f 	ldrsb.w	r3, [r7, #15]
    25de:	2b00      	cmp	r3, #0
    25e0:	d13b      	bne.n	265a <dhcp_discover+0xae>
    25e2:	2202      	movs	r2, #2
    25e4:	2139      	movs	r1, #57	; 0x39
    25e6:	6938      	ldr	r0, [r7, #16]
    25e8:	f000 fba8 	bl	2d3c <dhcp_option>
    25ec:	687b      	ldr	r3, [r7, #4]
    25ee:	8cdb      	ldrh	r3, [r3, #38]	; 0x26
    25f0:	4619      	mov	r1, r3
    25f2:	6938      	ldr	r0, [r7, #16]
    25f4:	f000 fbf4 	bl	2de0 <dhcp_option_short>
    25f8:	2203      	movs	r2, #3
    25fa:	2137      	movs	r1, #55	; 0x37
    25fc:	6938      	ldr	r0, [r7, #16]
    25fe:	f000 fb9d 	bl	2d3c <dhcp_option>
    2602:	2300      	movs	r3, #0
    2604:	75fb      	strb	r3, [r7, #23]
    2606:	e009      	b.n	261c <dhcp_discover+0x70>
    2608:	7dfb      	ldrb	r3, [r7, #23]
    260a:	4a29      	ldr	r2, [pc, #164]	; (26b0 <dhcp_discover+0x104>)
    260c:	5cd3      	ldrb	r3, [r2, r3]
    260e:	4619      	mov	r1, r3
    2610:	6938      	ldr	r0, [r7, #16]
    2612:	f000 fbc5 	bl	2da0 <dhcp_option_byte>
    2616:	7dfb      	ldrb	r3, [r7, #23]
    2618:	3301      	adds	r3, #1
    261a:	75fb      	strb	r3, [r7, #23]
    261c:	7dfb      	ldrb	r3, [r7, #23]
    261e:	2b02      	cmp	r3, #2
    2620:	d9f2      	bls.n	2608 <dhcp_discover+0x5c>
    2622:	6938      	ldr	r0, [r7, #16]
    2624:	f001 f91e 	bl	3864 <dhcp_option_trailer>
    2628:	693b      	ldr	r3, [r7, #16]
    262a:	68da      	ldr	r2, [r3, #12]
    262c:	693b      	ldr	r3, [r7, #16]
    262e:	8a9b      	ldrh	r3, [r3, #20]
    2630:	33f0      	adds	r3, #240	; 0xf0
    2632:	b29b      	uxth	r3, r3
    2634:	4619      	mov	r1, r3
    2636:	4610      	mov	r0, r2
    2638:	f005 f950 	bl	78dc <pbuf_realloc>
    263c:	4b1d      	ldr	r3, [pc, #116]	; (26b4 <dhcp_discover+0x108>)
    263e:	6818      	ldr	r0, [r3, #0]
    2640:	693b      	ldr	r3, [r7, #16]
    2642:	68d9      	ldr	r1, [r3, #12]
    2644:	4b1c      	ldr	r3, [pc, #112]	; (26b8 <dhcp_discover+0x10c>)
    2646:	9301      	str	r3, [sp, #4]
    2648:	687b      	ldr	r3, [r7, #4]
    264a:	9300      	str	r3, [sp, #0]
    264c:	2343      	movs	r3, #67	; 0x43
    264e:	4a1b      	ldr	r2, [pc, #108]	; (26bc <dhcp_discover+0x110>)
    2650:	f00b fa16 	bl	da80 <udp_sendto_if_src>
    2654:	6938      	ldr	r0, [r7, #16]
    2656:	f001 f8d3 	bl	3800 <dhcp_delete_msg>
    265a:	693b      	ldr	r3, [r7, #16]
    265c:	7a9b      	ldrb	r3, [r3, #10]
    265e:	2bff      	cmp	r3, #255	; 0xff
    2660:	d005      	beq.n	266e <dhcp_discover+0xc2>
    2662:	693b      	ldr	r3, [r7, #16]
    2664:	7a9b      	ldrb	r3, [r3, #10]
    2666:	3301      	adds	r3, #1
    2668:	b2da      	uxtb	r2, r3
    266a:	693b      	ldr	r3, [r7, #16]
    266c:	729a      	strb	r2, [r3, #10]
    266e:	693b      	ldr	r3, [r7, #16]
    2670:	7a9b      	ldrb	r3, [r3, #10]
    2672:	2b05      	cmp	r3, #5
    2674:	d807      	bhi.n	2686 <dhcp_discover+0xda>
    2676:	693b      	ldr	r3, [r7, #16]
    2678:	7a9b      	ldrb	r3, [r3, #10]
    267a:	461a      	mov	r2, r3
    267c:	f44f 737a 	mov.w	r3, #1000	; 0x3e8
    2680:	4093      	lsls	r3, r2
    2682:	b29b      	uxth	r3, r3
    2684:	e001      	b.n	268a <dhcp_discover+0xde>
    2686:	f64e 2360 	movw	r3, #60000	; 0xea60
    268a:	81bb      	strh	r3, [r7, #12]
    268c:	89bb      	ldrh	r3, [r7, #12]
    268e:	f203 13f3 	addw	r3, r3, #499	; 0x1f3
    2692:	4a0b      	ldr	r2, [pc, #44]	; (26c0 <dhcp_discover+0x114>)
    2694:	fb82 1203 	smull	r1, r2, r2, r3
    2698:	1152      	asrs	r2, r2, #5
    269a:	17db      	asrs	r3, r3, #31
    269c:	1ad3      	subs	r3, r2, r3
    269e:	b29a      	uxth	r2, r3
    26a0:	693b      	ldr	r3, [r7, #16]
    26a2:	82da      	strh	r2, [r3, #22]
    26a4:	f997 300f 	ldrsb.w	r3, [r7, #15]
    26a8:	4618      	mov	r0, r3
    26aa:	3718      	adds	r7, #24
    26ac:	46bd      	mov	sp, r7
    26ae:	bd80      	pop	{r7, pc}
    26b0:	20000000 	.word	0x20000000
    26b4:	20000100 	.word	0x20000100
    26b8:	000188bc 	.word	0x000188bc
    26bc:	000188c0 	.word	0x000188c0
    26c0:	10624dd3 	.word	0x10624dd3

000026c4 <dhcp_bind>:
    26c4:	b580      	push	{r7, lr}
    26c6:	b088      	sub	sp, #32
    26c8:	af00      	add	r7, sp, #0
    26ca:	6078      	str	r0, [r7, #4]
    26cc:	687b      	ldr	r3, [r7, #4]
    26ce:	2b00      	cmp	r3, #0
    26d0:	d103      	bne.n	26da <dhcp_bind+0x16>
    26d2:	4860      	ldr	r0, [pc, #384]	; (2854 <dhcp_bind+0x190>)
    26d4:	f00b ff54 	bl	e580 <sys_assert>
    26d8:	e0b8      	b.n	284c <dhcp_bind+0x188>
    26da:	687b      	ldr	r3, [r7, #4]
    26dc:	6a1b      	ldr	r3, [r3, #32]
    26de:	61fb      	str	r3, [r7, #28]
    26e0:	69fb      	ldr	r3, [r7, #28]
    26e2:	2b00      	cmp	r3, #0
    26e4:	d103      	bne.n	26ee <dhcp_bind+0x2a>
    26e6:	485c      	ldr	r0, [pc, #368]	; (2858 <dhcp_bind+0x194>)
    26e8:	f00b ff4a 	bl	e580 <sys_assert>
    26ec:	e0ae      	b.n	284c <dhcp_bind+0x188>
    26ee:	69fb      	ldr	r3, [r7, #28]
    26f0:	2200      	movs	r2, #0
    26f2:	841a      	strh	r2, [r3, #32]
    26f4:	69fb      	ldr	r3, [r7, #28]
    26f6:	6b5b      	ldr	r3, [r3, #52]	; 0x34
    26f8:	f1b3 3fff 	cmp.w	r3, #4294967295	; 0xffffffff
    26fc:	d019      	beq.n	2732 <dhcp_bind+0x6e>
    26fe:	69fb      	ldr	r3, [r7, #28]
    2700:	6b5b      	ldr	r3, [r3, #52]	; 0x34
    2702:	331e      	adds	r3, #30
    2704:	4a55      	ldr	r2, [pc, #340]	; (285c <dhcp_bind+0x198>)
    2706:	fba2 2303 	umull	r2, r3, r2, r3
    270a:	095b      	lsrs	r3, r3, #5
    270c:	61bb      	str	r3, [r7, #24]
    270e:	69bb      	ldr	r3, [r7, #24]
    2710:	f5b3 3f80 	cmp.w	r3, #65536	; 0x10000
    2714:	d302      	bcc.n	271c <dhcp_bind+0x58>
    2716:	f64f 73ff 	movw	r3, #65535	; 0xffff
    271a:	61bb      	str	r3, [r7, #24]
    271c:	69bb      	ldr	r3, [r7, #24]
    271e:	b29a      	uxth	r2, r3
    2720:	69fb      	ldr	r3, [r7, #28]
    2722:	845a      	strh	r2, [r3, #34]	; 0x22
    2724:	69fb      	ldr	r3, [r7, #28]
    2726:	8c5b      	ldrh	r3, [r3, #34]	; 0x22
    2728:	2b00      	cmp	r3, #0
    272a:	d102      	bne.n	2732 <dhcp_bind+0x6e>
    272c:	69fb      	ldr	r3, [r7, #28]
    272e:	2201      	movs	r2, #1
    2730:	845a      	strh	r2, [r3, #34]	; 0x22
    2732:	69fb      	ldr	r3, [r7, #28]
    2734:	6b9b      	ldr	r3, [r3, #56]	; 0x38
    2736:	f1b3 3fff 	cmp.w	r3, #4294967295	; 0xffffffff
    273a:	d01d      	beq.n	2778 <dhcp_bind+0xb4>
    273c:	69fb      	ldr	r3, [r7, #28]
    273e:	6b9b      	ldr	r3, [r3, #56]	; 0x38
    2740:	331e      	adds	r3, #30
    2742:	4a46      	ldr	r2, [pc, #280]	; (285c <dhcp_bind+0x198>)
    2744:	fba2 2303 	umull	r2, r3, r2, r3
    2748:	095b      	lsrs	r3, r3, #5
    274a:	61bb      	str	r3, [r7, #24]
    274c:	69bb      	ldr	r3, [r7, #24]
    274e:	f5b3 3f80 	cmp.w	r3, #65536	; 0x10000
    2752:	d302      	bcc.n	275a <dhcp_bind+0x96>
    2754:	f64f 73ff 	movw	r3, #65535	; 0xffff
    2758:	61bb      	str	r3, [r7, #24]
    275a:	69bb      	ldr	r3, [r7, #24]
    275c:	b29a      	uxth	r2, r3
    275e:	69fb      	ldr	r3, [r7, #28]
    2760:	831a      	strh	r2, [r3, #24]
    2762:	69fb      	ldr	r3, [r7, #28]
    2764:	8b1b      	ldrh	r3, [r3, #24]
    2766:	2b00      	cmp	r3, #0
    2768:	d102      	bne.n	2770 <dhcp_bind+0xac>
    276a:	69fb      	ldr	r3, [r7, #28]
    276c:	2201      	movs	r2, #1
    276e:	831a      	strh	r2, [r3, #24]
    2770:	69fb      	ldr	r3, [r7, #28]
    2772:	8b1a      	ldrh	r2, [r3, #24]
    2774:	69fb      	ldr	r3, [r7, #28]
    2776:	839a      	strh	r2, [r3, #28]
    2778:	69fb      	ldr	r3, [r7, #28]
    277a:	6bdb      	ldr	r3, [r3, #60]	; 0x3c
    277c:	f1b3 3fff 	cmp.w	r3, #4294967295	; 0xffffffff
    2780:	d01d      	beq.n	27be <dhcp_bind+0xfa>
    2782:	69fb      	ldr	r3, [r7, #28]
    2784:	6bdb      	ldr	r3, [r3, #60]	; 0x3c
    2786:	331e      	adds	r3, #30
    2788:	4a34      	ldr	r2, [pc, #208]	; (285c <dhcp_bind+0x198>)
    278a:	fba2 2303 	umull	r2, r3, r2, r3
    278e:	095b      	lsrs	r3, r3, #5
    2790:	61bb      	str	r3, [r7, #24]
    2792:	69bb      	ldr	r3, [r7, #24]
    2794:	f5b3 3f80 	cmp.w	r3, #65536	; 0x10000
    2798:	d302      	bcc.n	27a0 <dhcp_bind+0xdc>
    279a:	f64f 73ff 	movw	r3, #65535	; 0xffff
    279e:	61bb      	str	r3, [r7, #24]
    27a0:	69bb      	ldr	r3, [r7, #24]
    27a2:	b29a      	uxth	r2, r3
    27a4:	69fb      	ldr	r3, [r7, #28]
    27a6:	835a      	strh	r2, [r3, #26]
    27a8:	69fb      	ldr	r3, [r7, #28]
    27aa:	8b5b      	ldrh	r3, [r3, #26]
    27ac:	2b00      	cmp	r3, #0
    27ae:	d102      	bne.n	27b6 <dhcp_bind+0xf2>
    27b0:	69fb      	ldr	r3, [r7, #28]
    27b2:	2201      	movs	r2, #1
    27b4:	835a      	strh	r2, [r3, #26]
    27b6:	69fb      	ldr	r3, [r7, #28]
    27b8:	8b5a      	ldrh	r2, [r3, #26]
    27ba:	69fb      	ldr	r3, [r7, #28]
    27bc:	83da      	strh	r2, [r3, #30]
    27be:	69fb      	ldr	r3, [r7, #28]
    27c0:	8b1a      	ldrh	r2, [r3, #24]
    27c2:	69fb      	ldr	r3, [r7, #28]
    27c4:	8b5b      	ldrh	r3, [r3, #26]
    27c6:	429a      	cmp	r2, r3
    27c8:	d306      	bcc.n	27d8 <dhcp_bind+0x114>
    27ca:	69fb      	ldr	r3, [r7, #28]
    27cc:	8b5b      	ldrh	r3, [r3, #26]
    27ce:	2b00      	cmp	r3, #0
    27d0:	d002      	beq.n	27d8 <dhcp_bind+0x114>
    27d2:	69fb      	ldr	r3, [r7, #28]
    27d4:	2200      	movs	r2, #0
    27d6:	831a      	strh	r2, [r3, #24]
    27d8:	69fb      	ldr	r3, [r7, #28]
    27da:	7adb      	ldrb	r3, [r3, #11]
    27dc:	2b00      	cmp	r3, #0
    27de:	d003      	beq.n	27e8 <dhcp_bind+0x124>
    27e0:	69fb      	ldr	r3, [r7, #28]
    27e2:	6adb      	ldr	r3, [r3, #44]	; 0x2c
    27e4:	613b      	str	r3, [r7, #16]
    27e6:	e014      	b.n	2812 <dhcp_bind+0x14e>
    27e8:	69fb      	ldr	r3, [r7, #28]
    27ea:	3328      	adds	r3, #40	; 0x28
    27ec:	781b      	ldrb	r3, [r3, #0]
    27ee:	75fb      	strb	r3, [r7, #23]
    27f0:	f997 3017 	ldrsb.w	r3, [r7, #23]
    27f4:	2b00      	cmp	r3, #0
    27f6:	db02      	blt.n	27fe <dhcp_bind+0x13a>
    27f8:	23ff      	movs	r3, #255	; 0xff
    27fa:	613b      	str	r3, [r7, #16]
    27fc:	e009      	b.n	2812 <dhcp_bind+0x14e>
    27fe:	7dfb      	ldrb	r3, [r7, #23]
    2800:	2bbf      	cmp	r3, #191	; 0xbf
    2802:	d903      	bls.n	280c <dhcp_bind+0x148>
    2804:	f06f 437f 	mvn.w	r3, #4278190080	; 0xff000000
    2808:	613b      	str	r3, [r7, #16]
    280a:	e002      	b.n	2812 <dhcp_bind+0x14e>
    280c:	f64f 73ff 	movw	r3, #65535	; 0xffff
    2810:	613b      	str	r3, [r7, #16]
    2812:	69fb      	ldr	r3, [r7, #28]
    2814:	6b1b      	ldr	r3, [r3, #48]	; 0x30
    2816:	60fb      	str	r3, [r7, #12]
    2818:	68fb      	ldr	r3, [r7, #12]
    281a:	2b00      	cmp	r3, #0
    281c:	d108      	bne.n	2830 <dhcp_bind+0x16c>
    281e:	69fb      	ldr	r3, [r7, #28]
    2820:	6a9a      	ldr	r2, [r3, #40]	; 0x28
    2822:	693b      	ldr	r3, [r7, #16]
    2824:	4013      	ands	r3, r2
    2826:	60fb      	str	r3, [r7, #12]
    2828:	68fb      	ldr	r3, [r7, #12]
    282a:	f043 7380 	orr.w	r3, r3, #16777216	; 0x1000000
    282e:	60fb      	str	r3, [r7, #12]
    2830:	210a      	movs	r1, #10
    2832:	69f8      	ldr	r0, [r7, #28]
    2834:	f000 fa68 	bl	2d08 <dhcp_set_state>
    2838:	69fb      	ldr	r3, [r7, #28]
    283a:	f103 0128 	add.w	r1, r3, #40	; 0x28
    283e:	f107 030c 	add.w	r3, r7, #12
    2842:	f107 0210 	add.w	r2, r7, #16
    2846:	6878      	ldr	r0, [r7, #4]
    2848:	f004 fcae 	bl	71a8 <netif_set_addr>
    284c:	3720      	adds	r7, #32
    284e:	46bd      	mov	sp, r7
    2850:	bd80      	pop	{r7, pc}
    2852:	bf00      	nop
    2854:	00018220 	.word	0x00018220
    2858:	0001823c 	.word	0x0001823c
    285c:	88888889 	.word	0x88888889

00002860 <dhcp_renew>:
    2860:	b580      	push	{r7, lr}
    2862:	b088      	sub	sp, #32
    2864:	af02      	add	r7, sp, #8
    2866:	6078      	str	r0, [r7, #4]
    2868:	687b      	ldr	r3, [r7, #4]
    286a:	6a1b      	ldr	r3, [r3, #32]
    286c:	613b      	str	r3, [r7, #16]
    286e:	2105      	movs	r1, #5
    2870:	6938      	ldr	r0, [r7, #16]
    2872:	f000 fa49 	bl	2d08 <dhcp_set_state>
    2876:	2203      	movs	r2, #3
    2878:	6939      	ldr	r1, [r7, #16]
    287a:	6878      	ldr	r0, [r7, #4]
    287c:	f000 fe78 	bl	3570 <dhcp_create_msg>
    2880:	4603      	mov	r3, r0
    2882:	73fb      	strb	r3, [r7, #15]
    2884:	f997 300f 	ldrsb.w	r3, [r7, #15]
    2888:	2b00      	cmp	r3, #0
    288a:	d13b      	bne.n	2904 <dhcp_renew+0xa4>
    288c:	2202      	movs	r2, #2
    288e:	2139      	movs	r1, #57	; 0x39
    2890:	6938      	ldr	r0, [r7, #16]
    2892:	f000 fa53 	bl	2d3c <dhcp_option>
    2896:	687b      	ldr	r3, [r7, #4]
    2898:	8cdb      	ldrh	r3, [r3, #38]	; 0x26
    289a:	4619      	mov	r1, r3
    289c:	6938      	ldr	r0, [r7, #16]
    289e:	f000 fa9f 	bl	2de0 <dhcp_option_short>
    28a2:	2203      	movs	r2, #3
    28a4:	2137      	movs	r1, #55	; 0x37
    28a6:	6938      	ldr	r0, [r7, #16]
    28a8:	f000 fa48 	bl	2d3c <dhcp_option>
    28ac:	2300      	movs	r3, #0
    28ae:	75fb      	strb	r3, [r7, #23]
    28b0:	e009      	b.n	28c6 <dhcp_renew+0x66>
    28b2:	7dfb      	ldrb	r3, [r7, #23]
    28b4:	4a2a      	ldr	r2, [pc, #168]	; (2960 <dhcp_renew+0x100>)
    28b6:	5cd3      	ldrb	r3, [r2, r3]
    28b8:	4619      	mov	r1, r3
    28ba:	6938      	ldr	r0, [r7, #16]
    28bc:	f000 fa70 	bl	2da0 <dhcp_option_byte>
    28c0:	7dfb      	ldrb	r3, [r7, #23]
    28c2:	3301      	adds	r3, #1
    28c4:	75fb      	strb	r3, [r7, #23]
    28c6:	7dfb      	ldrb	r3, [r7, #23]
    28c8:	2b02      	cmp	r3, #2
    28ca:	d9f2      	bls.n	28b2 <dhcp_renew+0x52>
    28cc:	6938      	ldr	r0, [r7, #16]
    28ce:	f000 ffc9 	bl	3864 <dhcp_option_trailer>
    28d2:	693b      	ldr	r3, [r7, #16]
    28d4:	68da      	ldr	r2, [r3, #12]
    28d6:	693b      	ldr	r3, [r7, #16]
    28d8:	8a9b      	ldrh	r3, [r3, #20]
    28da:	33f0      	adds	r3, #240	; 0xf0
    28dc:	b29b      	uxth	r3, r3
    28de:	4619      	mov	r1, r3
    28e0:	4610      	mov	r0, r2
    28e2:	f004 fffb 	bl	78dc <pbuf_realloc>
    28e6:	4b1f      	ldr	r3, [pc, #124]	; (2964 <dhcp_renew+0x104>)
    28e8:	6818      	ldr	r0, [r3, #0]
    28ea:	693b      	ldr	r3, [r7, #16]
    28ec:	68d9      	ldr	r1, [r3, #12]
    28ee:	693b      	ldr	r3, [r7, #16]
    28f0:	f103 0224 	add.w	r2, r3, #36	; 0x24
    28f4:	687b      	ldr	r3, [r7, #4]
    28f6:	9300      	str	r3, [sp, #0]
    28f8:	2343      	movs	r3, #67	; 0x43
    28fa:	f00b f883 	bl	da04 <udp_sendto_if>
    28fe:	6938      	ldr	r0, [r7, #16]
    2900:	f000 ff7e 	bl	3800 <dhcp_delete_msg>
    2904:	693b      	ldr	r3, [r7, #16]
    2906:	7a9b      	ldrb	r3, [r3, #10]
    2908:	2bff      	cmp	r3, #255	; 0xff
    290a:	d005      	beq.n	2918 <dhcp_renew+0xb8>
    290c:	693b      	ldr	r3, [r7, #16]
    290e:	7a9b      	ldrb	r3, [r3, #10]
    2910:	3301      	adds	r3, #1
    2912:	b2da      	uxtb	r2, r3
    2914:	693b      	ldr	r3, [r7, #16]
    2916:	729a      	strb	r2, [r3, #10]
    2918:	693b      	ldr	r3, [r7, #16]
    291a:	7a9b      	ldrb	r3, [r3, #10]
    291c:	2b09      	cmp	r3, #9
    291e:	d80a      	bhi.n	2936 <dhcp_renew+0xd6>
    2920:	693b      	ldr	r3, [r7, #16]
    2922:	7a9b      	ldrb	r3, [r3, #10]
    2924:	b29b      	uxth	r3, r3
    2926:	461a      	mov	r2, r3
    2928:	0152      	lsls	r2, r2, #5
    292a:	1ad2      	subs	r2, r2, r3
    292c:	0092      	lsls	r2, r2, #2
    292e:	4413      	add	r3, r2
    2930:	011b      	lsls	r3, r3, #4
    2932:	b29b      	uxth	r3, r3
    2934:	e001      	b.n	293a <dhcp_renew+0xda>
    2936:	f644 6320 	movw	r3, #20000	; 0x4e20
    293a:	81bb      	strh	r3, [r7, #12]
    293c:	89bb      	ldrh	r3, [r7, #12]
    293e:	f203 13f3 	addw	r3, r3, #499	; 0x1f3
    2942:	4a09      	ldr	r2, [pc, #36]	; (2968 <dhcp_renew+0x108>)
    2944:	fb82 1203 	smull	r1, r2, r2, r3
    2948:	1152      	asrs	r2, r2, #5
    294a:	17db      	asrs	r3, r3, #31
    294c:	1ad3      	subs	r3, r2, r3
    294e:	b29a      	uxth	r2, r3
    2950:	693b      	ldr	r3, [r7, #16]
    2952:	82da      	strh	r2, [r3, #22]
    2954:	f997 300f 	ldrsb.w	r3, [r7, #15]
    2958:	4618      	mov	r0, r3
    295a:	3718      	adds	r7, #24
    295c:	46bd      	mov	sp, r7
    295e:	bd80      	pop	{r7, pc}
    2960:	20000000 	.word	0x20000000
    2964:	20000100 	.word	0x20000100
    2968:	10624dd3 	.word	0x10624dd3

0000296c <dhcp_rebind>:
    296c:	b580      	push	{r7, lr}
    296e:	b088      	sub	sp, #32
    2970:	af02      	add	r7, sp, #8
    2972:	6078      	str	r0, [r7, #4]
    2974:	687b      	ldr	r3, [r7, #4]
    2976:	6a1b      	ldr	r3, [r3, #32]
    2978:	613b      	str	r3, [r7, #16]
    297a:	2104      	movs	r1, #4
    297c:	6938      	ldr	r0, [r7, #16]
    297e:	f000 f9c3 	bl	2d08 <dhcp_set_state>
    2982:	2203      	movs	r2, #3
    2984:	6939      	ldr	r1, [r7, #16]
    2986:	6878      	ldr	r0, [r7, #4]
    2988:	f000 fdf2 	bl	3570 <dhcp_create_msg>
    298c:	4603      	mov	r3, r0
    298e:	73fb      	strb	r3, [r7, #15]
    2990:	f997 300f 	ldrsb.w	r3, [r7, #15]
    2994:	2b00      	cmp	r3, #0
    2996:	d139      	bne.n	2a0c <dhcp_rebind+0xa0>
    2998:	2202      	movs	r2, #2
    299a:	2139      	movs	r1, #57	; 0x39
    299c:	6938      	ldr	r0, [r7, #16]
    299e:	f000 f9cd 	bl	2d3c <dhcp_option>
    29a2:	687b      	ldr	r3, [r7, #4]
    29a4:	8cdb      	ldrh	r3, [r3, #38]	; 0x26
    29a6:	4619      	mov	r1, r3
    29a8:	6938      	ldr	r0, [r7, #16]
    29aa:	f000 fa19 	bl	2de0 <dhcp_option_short>
    29ae:	2203      	movs	r2, #3
    29b0:	2137      	movs	r1, #55	; 0x37
    29b2:	6938      	ldr	r0, [r7, #16]
    29b4:	f000 f9c2 	bl	2d3c <dhcp_option>
    29b8:	2300      	movs	r3, #0
    29ba:	75fb      	strb	r3, [r7, #23]
    29bc:	e009      	b.n	29d2 <dhcp_rebind+0x66>
    29be:	7dfb      	ldrb	r3, [r7, #23]
    29c0:	4a29      	ldr	r2, [pc, #164]	; (2a68 <dhcp_rebind+0xfc>)
    29c2:	5cd3      	ldrb	r3, [r2, r3]
    29c4:	4619      	mov	r1, r3
    29c6:	6938      	ldr	r0, [r7, #16]
    29c8:	f000 f9ea 	bl	2da0 <dhcp_option_byte>
    29cc:	7dfb      	ldrb	r3, [r7, #23]
    29ce:	3301      	adds	r3, #1
    29d0:	75fb      	strb	r3, [r7, #23]
    29d2:	7dfb      	ldrb	r3, [r7, #23]
    29d4:	2b02      	cmp	r3, #2
    29d6:	d9f2      	bls.n	29be <dhcp_rebind+0x52>
    29d8:	6938      	ldr	r0, [r7, #16]
    29da:	f000 ff43 	bl	3864 <dhcp_option_trailer>
    29de:	693b      	ldr	r3, [r7, #16]
    29e0:	68da      	ldr	r2, [r3, #12]
    29e2:	693b      	ldr	r3, [r7, #16]
    29e4:	8a9b      	ldrh	r3, [r3, #20]
    29e6:	33f0      	adds	r3, #240	; 0xf0
    29e8:	b29b      	uxth	r3, r3
    29ea:	4619      	mov	r1, r3
    29ec:	4610      	mov	r0, r2
    29ee:	f004 ff75 	bl	78dc <pbuf_realloc>
    29f2:	4b1e      	ldr	r3, [pc, #120]	; (2a6c <dhcp_rebind+0x100>)
    29f4:	6818      	ldr	r0, [r3, #0]
    29f6:	693b      	ldr	r3, [r7, #16]
    29f8:	68d9      	ldr	r1, [r3, #12]
    29fa:	687b      	ldr	r3, [r7, #4]
    29fc:	9300      	str	r3, [sp, #0]
    29fe:	2343      	movs	r3, #67	; 0x43
    2a00:	4a1b      	ldr	r2, [pc, #108]	; (2a70 <dhcp_rebind+0x104>)
    2a02:	f00a ffff 	bl	da04 <udp_sendto_if>
    2a06:	6938      	ldr	r0, [r7, #16]
    2a08:	f000 fefa 	bl	3800 <dhcp_delete_msg>
    2a0c:	693b      	ldr	r3, [r7, #16]
    2a0e:	7a9b      	ldrb	r3, [r3, #10]
    2a10:	2bff      	cmp	r3, #255	; 0xff
    2a12:	d005      	beq.n	2a20 <dhcp_rebind+0xb4>
    2a14:	693b      	ldr	r3, [r7, #16]
    2a16:	7a9b      	ldrb	r3, [r3, #10]
    2a18:	3301      	adds	r3, #1
    2a1a:	b2da      	uxtb	r2, r3
    2a1c:	693b      	ldr	r3, [r7, #16]
    2a1e:	729a      	strb	r2, [r3, #10]
    2a20:	693b      	ldr	r3, [r7, #16]
    2a22:	7a9b      	ldrb	r3, [r3, #10]
    2a24:	2b09      	cmp	r3, #9
    2a26:	d80a      	bhi.n	2a3e <dhcp_rebind+0xd2>
    2a28:	693b      	ldr	r3, [r7, #16]
    2a2a:	7a9b      	ldrb	r3, [r3, #10]
    2a2c:	b29b      	uxth	r3, r3
    2a2e:	461a      	mov	r2, r3
    2a30:	0152      	lsls	r2, r2, #5
    2a32:	1ad2      	subs	r2, r2, r3
    2a34:	0092      	lsls	r2, r2, #2
    2a36:	4413      	add	r3, r2
    2a38:	00db      	lsls	r3, r3, #3
    2a3a:	b29b      	uxth	r3, r3
    2a3c:	e001      	b.n	2a42 <dhcp_rebind+0xd6>
    2a3e:	f242 7310 	movw	r3, #10000	; 0x2710
    2a42:	81bb      	strh	r3, [r7, #12]
    2a44:	89bb      	ldrh	r3, [r7, #12]
    2a46:	f203 13f3 	addw	r3, r3, #499	; 0x1f3
    2a4a:	4a0a      	ldr	r2, [pc, #40]	; (2a74 <dhcp_rebind+0x108>)
    2a4c:	fb82 1203 	smull	r1, r2, r2, r3
    2a50:	1152      	asrs	r2, r2, #5
    2a52:	17db      	asrs	r3, r3, #31
    2a54:	1ad3      	subs	r3, r2, r3
    2a56:	b29a      	uxth	r2, r3
    2a58:	693b      	ldr	r3, [r7, #16]
    2a5a:	82da      	strh	r2, [r3, #22]
    2a5c:	f997 300f 	ldrsb.w	r3, [r7, #15]
    2a60:	4618      	mov	r0, r3
    2a62:	3718      	adds	r7, #24
    2a64:	46bd      	mov	sp, r7
    2a66:	bd80      	pop	{r7, pc}
    2a68:	20000000 	.word	0x20000000
    2a6c:	20000100 	.word	0x20000100
    2a70:	000188c0 	.word	0x000188c0
    2a74:	10624dd3 	.word	0x10624dd3

00002a78 <dhcp_reboot>:
