
frdmk66f_rtos_hello_bug.axf:     file format elf32-littlearm


Disassembly of section .text:

00000000 <__Vectors>:
       0:	00 00 03 20 0d 02 00 00 89 02 00 00 63 4c 00 00     ... ........cL..
      10:	8d 02 00 00 8f 02 00 00 91 02 00 00 00 00 00 00     ................
	...
      2c:	11 04 00 00 95 02 00 00 00 00 00 00 41 04 00 00     ............A...
      3c:	29 28 00 00 43 49 00 00 4b 49 00 00 53 49 00 00     )(..CI..KI..SI..
      4c:	5b 49 00 00 63 49 00 00 6b 49 00 00 73 49 00 00     [I..cI..kI..sI..
      5c:	7b 49 00 00 83 49 00 00 8b 49 00 00 93 49 00 00     {I...I...I...I..
      6c:	9b 49 00 00 a3 49 00 00 ab 49 00 00 b3 49 00 00     .I...I...I...I..
      7c:	bb 49 00 00 c3 49 00 00 cb 49 00 00 d3 49 00 00     .I...I...I...I..
      8c:	db 49 00 00 e3 49 00 00 eb 49 00 00 f3 49 00 00     .I...I...I...I..
      9c:	fb 49 00 00 03 4a 00 00 0b 4a 00 00 13 4a 00 00     .I...J...J...J..
      ac:	1b 4a 00 00 23 4a 00 00 2b 4a 00 00 33 4a 00 00     .J..#J..+J..3J..
      bc:	3b 4a 00 00 43 4a 00 00 4b 4a 00 00 53 4a 00 00     ;J..CJ..KJ..SJ..
      cc:	5b 4a 00 00 63 4a 00 00 6b 4a 00 00 73 4a 00 00     [J..cJ..kJ..sJ..
      dc:	7b 4a 00 00 83 4a 00 00 8b 4a 00 00 93 4a 00 00     {J...J...J...J..
      ec:	9b 4a 00 00 a3 4a 00 00 ab 4a 00 00 b3 4a 00 00     .J...J...J...J..
      fc:	bb 4a 00 00 c3 4a 00 00 cb 4a 00 00 d3 4a 00 00     .J...J...J...J..
     10c:	db 4a 00 00 e3 4a 00 00 eb 4a 00 00 f3 4a 00 00     .J...J...J...J..
     11c:	fb 4a 00 00 03 4b 00 00 0b 4b 00 00 13 4b 00 00     .J...K...K...K..
     12c:	1b 4b 00 00 23 4b 00 00 2b 4b 00 00 33 4b 00 00     .K..#K..+K..3K..
     13c:	3b 4b 00 00 43 4b 00 00 4b 4b 00 00 53 4b 00 00     ;K..CK..KK..SK..
     14c:	5b 4b 00 00 63 4b 00 00 6b 4b 00 00 73 4b 00 00     [K..cK..kK..sK..
     15c:	7b 4b 00 00 83 4b 00 00 8b 4b 00 00 93 4b 00 00     {K...K...K...K..
     16c:	9b 4b 00 00 a3 4b 00 00 ab 4b 00 00 b3 4b 00 00     .K...K...K...K..
     17c:	bb 4b 00 00 c3 4b 00 00 cb 4b 00 00 d3 4b 00 00     .K...K...K...K..
     18c:	db 4b 00 00 e3 4b 00 00 eb 4b 00 00 f3 4b 00 00     .K...K...K...K..
     19c:	fb 4b 00 00 03 4c 00 00 0b 4c 00 00 13 4c 00 00     .K...L...L...L..
     1ac:	1b 4c 00 00 23 4c 00 00 2b 4c 00 00 33 4c 00 00     .L..#L..+L..3L..
     1bc:	3b 4c 00 00 43 4c 00 00 4b 4c 00 00 53 4c 00 00     ;L..CL..KL..SL..
     1cc:	5b 4c 00 00                                         [L..

000001d0 <__data_section_table>:
     1d0:	00006968 	.word	0x00006968
     1d4:	20000000 	.word	0x20000000
     1d8:	00000010 	.word	0x00000010
     1dc:	00006968 	.word	0x00006968
     1e0:	1fff0000 	.word	0x1fff0000
     1e4:	00000000 	.word	0x00000000
     1e8:	00006968 	.word	0x00006968
     1ec:	14000000 	.word	0x14000000
     1f0:	00000000 	.word	0x00000000

000001f4 <__bss_section_table>:
     1f4:	20000010 	.word	0x20000010
     1f8:	00002a98 	.word	0x00002a98
     1fc:	1fff0000 	.word	0x1fff0000
     200:	00000000 	.word	0x00000000
     204:	14000000 	.word	0x14000000
     208:	00000000 	.word	0x00000000

0000020c <ResetISR>:
     20c:	b510      	push	{r4, lr}
     20e:	b672      	cpsid	i
     210:	f003 fe06 	bl	3e20 <SystemInit>
     214:	4b0d      	ldr	r3, [pc, #52]	; (24c <ResetISR+0x40>)
     216:	e007      	b.n	228 <ResetISR+0x1c>
     218:	f103 040c 	add.w	r4, r3, #12
     21c:	689a      	ldr	r2, [r3, #8]
     21e:	6859      	ldr	r1, [r3, #4]
     220:	6818      	ldr	r0, [r3, #0]
     222:	f000 f819 	bl	258 <data_init>
     226:	4623      	mov	r3, r4
     228:	4a09      	ldr	r2, [pc, #36]	; (250 <ResetISR+0x44>)
     22a:	4293      	cmp	r3, r2
     22c:	d3f4      	bcc.n	218 <ResetISR+0xc>
     22e:	e006      	b.n	23e <ResetISR+0x32>
     230:	461c      	mov	r4, r3
     232:	6859      	ldr	r1, [r3, #4]
     234:	f854 0b08 	ldr.w	r0, [r4], #8
     238:	f000 f81d 	bl	276 <bss_init>
     23c:	4623      	mov	r3, r4
     23e:	4a05      	ldr	r2, [pc, #20]	; (254 <ResetISR+0x48>)
     240:	4293      	cmp	r3, r2
     242:	d3f5      	bcc.n	230 <ResetISR+0x24>
     244:	b662      	cpsie	i
     246:	f005 fa31 	bl	56ac <__main>
     24a:	e7fe      	b.n	24a <ResetISR+0x3e>
     24c:	000001d0 	.word	0x000001d0
     250:	000001f4 	.word	0x000001f4
     254:	0000020c 	.word	0x0000020c

00000258 <data_init>:
     258:	2300      	movs	r3, #0
     25a:	4293      	cmp	r3, r2
     25c:	d20a      	bcs.n	274 <data_init+0x1c>
     25e:	b410      	push	{r4}
     260:	6804      	ldr	r4, [r0, #0]
     262:	600c      	str	r4, [r1, #0]
     264:	3304      	adds	r3, #4
     266:	3004      	adds	r0, #4
     268:	3104      	adds	r1, #4
     26a:	4293      	cmp	r3, r2
     26c:	d3f8      	bcc.n	260 <data_init+0x8>
     26e:	f85d 4b04 	ldr.w	r4, [sp], #4
     272:	4770      	bx	lr
     274:	4770      	bx	lr

00000276 <bss_init>:
     276:	2300      	movs	r3, #0
     278:	e003      	b.n	282 <bss_init+0xc>
     27a:	2200      	movs	r2, #0
     27c:	6002      	str	r2, [r0, #0]
     27e:	3304      	adds	r3, #4
     280:	3004      	adds	r0, #4
     282:	428b      	cmp	r3, r1
     284:	d3f9      	bcc.n	27a <bss_init+0x4>
     286:	4770      	bx	lr

00000288 <NMI_Handler>:
     288:	e7fe      	b.n	288 <NMI_Handler>
     28a:	e7fe      	b.n	28a <NMI_Handler+0x2>

0000028c <MemManage_Handler>:
     28c:	e7fe      	b.n	28c <MemManage_Handler>

0000028e <BusFault_Handler>:
     28e:	e7fe      	b.n	28e <BusFault_Handler>

00000290 <UsageFault_Handler>:
     290:	e7fe      	b.n	290 <UsageFault_Handler>
     292:	e7fe      	b.n	292 <UsageFault_Handler+0x2>

00000294 <DebugMon_Handler>:
     294:	e7fe      	b.n	294 <DebugMon_Handler>
     296:	e7fe      	b.n	296 <DebugMon_Handler+0x2>
     298:	e7fe      	b.n	298 <DebugMon_Handler+0x4>

0000029a <ADC0_DriverIRQHandler>:
     29a:	e7fe      	b.n	29a <ADC0_DriverIRQHandler>
     29c:	ffff ffff 			; <UNDEFINED> instruction: 0xffffffff
     2a0:	ffff ffff 			; <UNDEFINED> instruction: 0xffffffff
     2a4:	ffff ffff 			; <UNDEFINED> instruction: 0xffffffff
     2a8:	ffff ffff 			; <UNDEFINED> instruction: 0xffffffff
     2ac:	ffff ffff 			; <UNDEFINED> instruction: 0xffffffff
     2b0:	ffff ffff 			; <UNDEFINED> instruction: 0xffffffff
     2b4:	ffff ffff 			; <UNDEFINED> instruction: 0xffffffff
     2b8:	ffff ffff 			; <UNDEFINED> instruction: 0xffffffff
     2bc:	ffff ffff 			; <UNDEFINED> instruction: 0xffffffff
     2c0:	ffff ffff 			; <UNDEFINED> instruction: 0xffffffff
     2c4:	ffff ffff 			; <UNDEFINED> instruction: 0xffffffff
     2c8:	ffff ffff 			; <UNDEFINED> instruction: 0xffffffff
     2cc:	ffff ffff 			; <UNDEFINED> instruction: 0xffffffff
     2d0:	ffff ffff 			; <UNDEFINED> instruction: 0xffffffff
     2d4:	ffff ffff 			; <UNDEFINED> instruction: 0xffffffff
     2d8:	ffff ffff 			; <UNDEFINED> instruction: 0xffffffff
     2dc:	ffff ffff 			; <UNDEFINED> instruction: 0xffffffff
     2e0:	ffff ffff 			; <UNDEFINED> instruction: 0xffffffff
     2e4:	ffff ffff 			; <UNDEFINED> instruction: 0xffffffff
     2e8:	ffff ffff 			; <UNDEFINED> instruction: 0xffffffff
     2ec:	ffff ffff 			; <UNDEFINED> instruction: 0xffffffff
     2f0:	ffff ffff 			; <UNDEFINED> instruction: 0xffffffff
     2f4:	ffff ffff 			; <UNDEFINED> instruction: 0xffffffff
     2f8:	ffff ffff 			; <UNDEFINED> instruction: 0xffffffff
     2fc:	ffff ffff 			; <UNDEFINED> instruction: 0xffffffff
     300:	ffff ffff 			; <UNDEFINED> instruction: 0xffffffff
     304:	ffff ffff 			; <UNDEFINED> instruction: 0xffffffff
     308:	ffff ffff 			; <UNDEFINED> instruction: 0xffffffff
     30c:	ffff ffff 			; <UNDEFINED> instruction: 0xffffffff
     310:	ffff ffff 			; <UNDEFINED> instruction: 0xffffffff
     314:	ffff ffff 			; <UNDEFINED> instruction: 0xffffffff
     318:	ffff ffff 			; <UNDEFINED> instruction: 0xffffffff
     31c:	ffff ffff 			; <UNDEFINED> instruction: 0xffffffff
     320:	ffff ffff 			; <UNDEFINED> instruction: 0xffffffff
     324:	ffff ffff 			; <UNDEFINED> instruction: 0xffffffff
     328:	ffff ffff 			; <UNDEFINED> instruction: 0xffffffff
     32c:	ffff ffff 			; <UNDEFINED> instruction: 0xffffffff
     330:	ffff ffff 			; <UNDEFINED> instruction: 0xffffffff
     334:	ffff ffff 			; <UNDEFINED> instruction: 0xffffffff
     338:	ffff ffff 			; <UNDEFINED> instruction: 0xffffffff
     33c:	ffff ffff 			; <UNDEFINED> instruction: 0xffffffff
     340:	ffff ffff 			; <UNDEFINED> instruction: 0xffffffff
     344:	ffff ffff 			; <UNDEFINED> instruction: 0xffffffff
     348:	ffff ffff 			; <UNDEFINED> instruction: 0xffffffff
     34c:	ffff ffff 			; <UNDEFINED> instruction: 0xffffffff
     350:	ffff ffff 			; <UNDEFINED> instruction: 0xffffffff
     354:	ffff ffff 			; <UNDEFINED> instruction: 0xffffffff
     358:	ffff ffff 			; <UNDEFINED> instruction: 0xffffffff
     35c:	ffff ffff 			; <UNDEFINED> instruction: 0xffffffff
     360:	ffff ffff 			; <UNDEFINED> instruction: 0xffffffff
     364:	ffff ffff 			; <UNDEFINED> instruction: 0xffffffff
     368:	ffff ffff 			; <UNDEFINED> instruction: 0xffffffff
     36c:	ffff ffff 			; <UNDEFINED> instruction: 0xffffffff
     370:	ffff ffff 			; <UNDEFINED> instruction: 0xffffffff
     374:	ffff ffff 			; <UNDEFINED> instruction: 0xffffffff
     378:	ffff ffff 			; <UNDEFINED> instruction: 0xffffffff
     37c:	ffff ffff 			; <UNDEFINED> instruction: 0xffffffff
     380:	ffff ffff 			; <UNDEFINED> instruction: 0xffffffff
     384:	ffff ffff 			; <UNDEFINED> instruction: 0xffffffff
     388:	ffff ffff 			; <UNDEFINED> instruction: 0xffffffff
     38c:	ffff ffff 			; <UNDEFINED> instruction: 0xffffffff
     390:	ffff ffff 			; <UNDEFINED> instruction: 0xffffffff
     394:	ffff ffff 			; <UNDEFINED> instruction: 0xffffffff
     398:	ffff ffff 			; <UNDEFINED> instruction: 0xffffffff
     39c:	ffff ffff 			; <UNDEFINED> instruction: 0xffffffff
     3a0:	ffff ffff 			; <UNDEFINED> instruction: 0xffffffff
     3a4:	ffff ffff 			; <UNDEFINED> instruction: 0xffffffff
     3a8:	ffff ffff 			; <UNDEFINED> instruction: 0xffffffff
     3ac:	ffff ffff 			; <UNDEFINED> instruction: 0xffffffff
     3b0:	ffff ffff 			; <UNDEFINED> instruction: 0xffffffff
     3b4:	ffff ffff 			; <UNDEFINED> instruction: 0xffffffff
     3b8:	ffff ffff 			; <UNDEFINED> instruction: 0xffffffff
     3bc:	ffff ffff 			; <UNDEFINED> instruction: 0xffffffff
     3c0:	ffff ffff 			; <UNDEFINED> instruction: 0xffffffff
     3c4:	ffff ffff 			; <UNDEFINED> instruction: 0xffffffff
     3c8:	ffff ffff 			; <UNDEFINED> instruction: 0xffffffff
     3cc:	ffff ffff 			; <UNDEFINED> instruction: 0xffffffff
     3d0:	ffff ffff 			; <UNDEFINED> instruction: 0xffffffff
     3d4:	ffff ffff 			; <UNDEFINED> instruction: 0xffffffff
     3d8:	ffff ffff 			; <UNDEFINED> instruction: 0xffffffff
     3dc:	ffff ffff 			; <UNDEFINED> instruction: 0xffffffff
     3e0:	ffff ffff 			; <UNDEFINED> instruction: 0xffffffff
     3e4:	ffff ffff 			; <UNDEFINED> instruction: 0xffffffff
     3e8:	ffff ffff 			; <UNDEFINED> instruction: 0xffffffff
     3ec:	ffff ffff 			; <UNDEFINED> instruction: 0xffffffff
     3f0:	ffff ffff 			; <UNDEFINED> instruction: 0xffffffff
     3f4:	ffff ffff 			; <UNDEFINED> instruction: 0xffffffff
     3f8:	ffff ffff 			; <UNDEFINED> instruction: 0xffffffff
     3fc:	ffff ffff 			; <UNDEFINED> instruction: 0xffffffff

00000400 <Flash_Config>:
     400:	ffff ffff ffff ffff ffff ffff fffe ffff     ................

00000410 <SVC_Handler>:
     410:	4b07      	ldr	r3, [pc, #28]	; (430 <pxCurrentTCBConst2>)
     412:	6819      	ldr	r1, [r3, #0]
     414:	6808      	ldr	r0, [r1, #0]
     416:	e8b0 4ff0 	ldmia.w	r0!, {r4, r5, r6, r7, r8, r9, sl, fp, lr}
     41a:	f380 8809 	msr	PSP, r0
     41e:	f3bf 8f6f 	isb	sy
     422:	f04f 0000 	mov.w	r0, #0
     426:	f380 8811 	msr	BASEPRI, r0
     42a:	4770      	bx	lr
     42c:	f3af 8000 	nop.w

00000430 <pxCurrentTCBConst2>:
     430:	200028a0 	.word	0x200028a0
     434:	bf00      	nop
     436:	bf00      	nop
     438:	ffff ffff 			; <UNDEFINED> instruction: 0xffffffff
     43c:	ffff ffff 			; <UNDEFINED> instruction: 0xffffffff

00000440 <PendSV_Handler>:
     440:	f3ef 8009 	mrs	r0, PSP
     444:	f3bf 8f6f 	isb	sy
     448:	4b15      	ldr	r3, [pc, #84]	; (4a0 <pxCurrentTCBConst>)
     44a:	681a      	ldr	r2, [r3, #0]
     44c:	f01e 0f10 	tst.w	lr, #16
     450:	bf08      	it	eq
     452:	ed20 8a10 	vstmdbeq	r0!, {s16-s31}
     456:	e920 4ff0 	stmdb	r0!, {r4, r5, r6, r7, r8, r9, sl, fp, lr}
     45a:	6010      	str	r0, [r2, #0]
     45c:	e92d 0009 	stmdb	sp!, {r0, r3}
     460:	f04f 0020 	mov.w	r0, #32
     464:	f380 8811 	msr	BASEPRI, r0
     468:	f3bf 8f4f 	dsb	sy
     46c:	f3bf 8f6f 	isb	sy
     470:	f002 fec8 	bl	3204 <vTaskSwitchContext>
     474:	f04f 0000 	mov.w	r0, #0
     478:	f380 8811 	msr	BASEPRI, r0
     47c:	bc09      	pop	{r0, r3}
     47e:	6819      	ldr	r1, [r3, #0]
     480:	6808      	ldr	r0, [r1, #0]
     482:	e8b0 4ff0 	ldmia.w	r0!, {r4, r5, r6, r7, r8, r9, sl, fp, lr}
     486:	f01e 0f10 	tst.w	lr, #16
     48a:	bf08      	it	eq
     48c:	ecb0 8a10 	vldmiaeq	r0!, {s16-s31}
     490:	f380 8809 	msr	PSP, r0
     494:	f3bf 8f6f 	isb	sy
     498:	4770      	bx	lr
     49a:	bf00      	nop
     49c:	f3af 8000 	nop.w

000004a0 <pxCurrentTCBConst>:
     4a0:	200028a0 	.word	0x200028a0
     4a4:	bf00      	nop
     4a6:	bf00      	nop

000004a8 <DbgConsole_Init>:
     4a8:	b580      	push	{r7, lr}
     4aa:	b084      	sub	sp, #16
     4ac:	af00      	add	r7, sp, #0
     4ae:	60f8      	str	r0, [r7, #12]
     4b0:	60b9      	str	r1, [r7, #8]
     4b2:	603b      	str	r3, [r7, #0]
     4b4:	4613      	mov	r3, r2
     4b6:	71fb      	strb	r3, [r7, #7]
     4b8:	79fb      	ldrb	r3, [r7, #7]
     4ba:	2b00      	cmp	r3, #0
     4bc:	d102      	bne.n	4c4 <DbgConsole_Init+0x1c>
     4be:	4807      	ldr	r0, [pc, #28]	; (4dc <DbgConsole_Init+0x34>)
     4c0:	f003 fccc 	bl	3e5c <__assertion_failed>
     4c4:	79f9      	ldrb	r1, [r7, #7]
     4c6:	683b      	ldr	r3, [r7, #0]
     4c8:	68ba      	ldr	r2, [r7, #8]
     4ca:	68f8      	ldr	r0, [r7, #12]
     4cc:	f003 ffad 	bl	442a <LOG_Init>
     4d0:	4603      	mov	r3, r0
     4d2:	4618      	mov	r0, r3
     4d4:	3710      	adds	r7, #16
     4d6:	46bd      	mov	sp, r7
     4d8:	bd80      	pop	{r7, pc}
     4da:	bf00      	nop
     4dc:	00005ae0 	.word	0x00005ae0

000004e0 <DbgConsole_Printf>:
     4e0:	b40f      	push	{r0, r1, r2, r3}
     4e2:	b580      	push	{r7, lr}
     4e4:	b0a4      	sub	sp, #144	; 0x90
     4e6:	af00      	add	r7, sp, #0
     4e8:	2300      	movs	r3, #0
     4ea:	f8c7 308c 	str.w	r3, [r7, #140]	; 0x8c
     4ee:	2300      	movs	r3, #0
     4f0:	f8c7 3088 	str.w	r3, [r7, #136]	; 0x88
     4f4:	1d3b      	adds	r3, r7, #4
     4f6:	2280      	movs	r2, #128	; 0x80
     4f8:	2100      	movs	r1, #0
     4fa:	4618      	mov	r0, r3
     4fc:	f005 f8e0 	bl	56c0 <memset>
     500:	f107 039c 	add.w	r3, r7, #156	; 0x9c
     504:	f8c7 3084 	str.w	r3, [r7, #132]	; 0x84
     508:	1d3a      	adds	r2, r7, #4
     50a:	4b0d      	ldr	r3, [pc, #52]	; (540 <DbgConsole_Printf+0x60>)
     50c:	f8d7 1084 	ldr.w	r1, [r7, #132]	; 0x84
     510:	f8d7 0098 	ldr.w	r0, [r7, #152]	; 0x98
     514:	f004 f88f 	bl	4636 <StrFormatPrintf>
     518:	f8c7 008c 	str.w	r0, [r7, #140]	; 0x8c
     51c:	f8d7 208c 	ldr.w	r2, [r7, #140]	; 0x8c
     520:	1d3b      	adds	r3, r7, #4
     522:	4611      	mov	r1, r2
     524:	4618      	mov	r0, r3
     526:	f000 f8af 	bl	688 <LOG_Push>
     52a:	f8c7 0088 	str.w	r0, [r7, #136]	; 0x88
     52e:	f8d7 3088 	ldr.w	r3, [r7, #136]	; 0x88
     532:	4618      	mov	r0, r3
     534:	3790      	adds	r7, #144	; 0x90
     536:	46bd      	mov	sp, r7
     538:	e8bd 4080 	ldmia.w	sp!, {r7, lr}
     53c:	b004      	add	sp, #16
     53e:	4770      	bx	lr
     540:	000042d7 	.word	0x000042d7

00000544 <IO_Init>:
     544:	b580      	push	{r7, lr}
     546:	b08c      	sub	sp, #48	; 0x30
     548:	af00      	add	r7, sp, #0
     54a:	60f8      	str	r0, [r7, #12]
     54c:	60b9      	str	r1, [r7, #8]
     54e:	607a      	str	r2, [r7, #4]
     550:	603b      	str	r3, [r7, #0]
     552:	68fb      	ldr	r3, [r7, #12]
     554:	2b00      	cmp	r3, #0
     556:	d102      	bne.n	55e <IO_Init+0x1a>
     558:	4827      	ldr	r0, [pc, #156]	; (5f8 <IO_Init+0xb4>)
     55a:	f003 fc7f 	bl	3e5c <__assertion_failed>
     55e:	68fb      	ldr	r3, [r7, #12]
     560:	791a      	ldrb	r2, [r3, #4]
     562:	4b26      	ldr	r3, [pc, #152]	; (5fc <IO_Init+0xb8>)
     564:	711a      	strb	r2, [r3, #4]
     566:	68fb      	ldr	r3, [r7, #12]
     568:	681b      	ldr	r3, [r3, #0]
     56a:	4a24      	ldr	r2, [pc, #144]	; (5fc <IO_Init+0xb8>)
     56c:	6013      	str	r3, [r2, #0]
     56e:	4b23      	ldr	r3, [pc, #140]	; (5fc <IO_Init+0xb8>)
     570:	791b      	ldrb	r3, [r3, #4]
     572:	2b02      	cmp	r3, #2
     574:	d020      	beq.n	5b8 <IO_Init+0x74>
     576:	2b06      	cmp	r3, #6
     578:	d002      	beq.n	580 <IO_Init+0x3c>
     57a:	2b01      	cmp	r3, #1
     57c:	d000      	beq.n	580 <IO_Init+0x3c>
     57e:	e037      	b.n	5f0 <IO_Init+0xac>
     580:	f107 0320 	add.w	r3, r7, #32
     584:	4618      	mov	r0, r3
     586:	f001 fc6b 	bl	1e60 <UART_GetDefaultConfig>
     58a:	68bb      	ldr	r3, [r7, #8]
     58c:	623b      	str	r3, [r7, #32]
     58e:	4b1b      	ldr	r3, [pc, #108]	; (5fc <IO_Init+0xb8>)
     590:	681b      	ldr	r3, [r3, #0]
     592:	f107 0120 	add.w	r1, r7, #32
     596:	687a      	ldr	r2, [r7, #4]
     598:	4618      	mov	r0, r3
     59a:	f001 faf5 	bl	1b88 <UART_Init>
     59e:	4b17      	ldr	r3, [pc, #92]	; (5fc <IO_Init+0xb8>)
     5a0:	681b      	ldr	r3, [r3, #0]
     5a2:	2101      	movs	r1, #1
     5a4:	4618      	mov	r0, r3
     5a6:	f003 fec8 	bl	433a <UART_EnableTx>
     5aa:	4b14      	ldr	r3, [pc, #80]	; (5fc <IO_Init+0xb8>)
     5ac:	681b      	ldr	r3, [r3, #0]
     5ae:	2101      	movs	r1, #1
     5b0:	4618      	mov	r0, r3
     5b2:	f003 fee2 	bl	437a <UART_EnableRx>
     5b6:	e01b      	b.n	5f0 <IO_Init+0xac>
     5b8:	f107 0310 	add.w	r3, r7, #16
     5bc:	4618      	mov	r0, r3
     5be:	f001 f9a9 	bl	1914 <LPUART_GetDefaultConfig>
     5c2:	68bb      	ldr	r3, [r7, #8]
     5c4:	613b      	str	r3, [r7, #16]
     5c6:	4b0d      	ldr	r3, [pc, #52]	; (5fc <IO_Init+0xb8>)
     5c8:	681b      	ldr	r3, [r3, #0]
     5ca:	f107 0110 	add.w	r1, r7, #16
     5ce:	687a      	ldr	r2, [r7, #4]
     5d0:	4618      	mov	r0, r3
     5d2:	f001 f857 	bl	1684 <LPUART_Init>
     5d6:	4b09      	ldr	r3, [pc, #36]	; (5fc <IO_Init+0xb8>)
     5d8:	681b      	ldr	r3, [r3, #0]
     5da:	2101      	movs	r1, #1
     5dc:	4618      	mov	r0, r3
     5de:	f003 feec 	bl	43ba <LPUART_EnableTx>
     5e2:	4b06      	ldr	r3, [pc, #24]	; (5fc <IO_Init+0xb8>)
     5e4:	681b      	ldr	r3, [r3, #0]
     5e6:	2101      	movs	r1, #1
     5e8:	4618      	mov	r0, r3
     5ea:	f003 ff02 	bl	43f2 <LPUART_EnableRx>
     5ee:	bf00      	nop
     5f0:	bf00      	nop
     5f2:	3730      	adds	r7, #48	; 0x30
     5f4:	46bd      	mov	sp, r7
     5f6:	bd80      	pop	{r7, pc}
     5f8:	00005b30 	.word	0x00005b30
     5fc:	20000010 	.word	0x20000010

00000600 <IO_Transfer>:
     600:	b580      	push	{r7, lr}
     602:	b086      	sub	sp, #24
     604:	af00      	add	r7, sp, #0
     606:	60f8      	str	r0, [r7, #12]
     608:	60b9      	str	r1, [r7, #8]
     60a:	4613      	mov	r3, r2
     60c:	71fb      	strb	r3, [r7, #7]
     60e:	2300      	movs	r3, #0
     610:	617b      	str	r3, [r7, #20]
     612:	4b1c      	ldr	r3, [pc, #112]	; (684 <IO_Transfer+0x84>)
     614:	791b      	ldrb	r3, [r3, #4]
     616:	2b02      	cmp	r3, #2
     618:	d017      	beq.n	64a <IO_Transfer+0x4a>
     61a:	2b06      	cmp	r3, #6
     61c:	d001      	beq.n	622 <IO_Transfer+0x22>
     61e:	2b01      	cmp	r3, #1
     620:	d127      	bne.n	672 <IO_Transfer+0x72>
     622:	79fb      	ldrb	r3, [r7, #7]
     624:	2b00      	cmp	r3, #0
     626:	d007      	beq.n	638 <IO_Transfer+0x38>
     628:	4b16      	ldr	r3, [pc, #88]	; (684 <IO_Transfer+0x84>)
     62a:	681b      	ldr	r3, [r3, #0]
     62c:	68ba      	ldr	r2, [r7, #8]
     62e:	68f9      	ldr	r1, [r7, #12]
     630:	4618      	mov	r0, r3
     632:	f004 fbd2 	bl	4dda <UART_WriteBlocking>
     636:	e01f      	b.n	678 <IO_Transfer+0x78>
     638:	4b12      	ldr	r3, [pc, #72]	; (684 <IO_Transfer+0x84>)
     63a:	681b      	ldr	r3, [r3, #0]
     63c:	68ba      	ldr	r2, [r7, #8]
     63e:	68f9      	ldr	r1, [r7, #12]
     640:	4618      	mov	r0, r3
     642:	f001 fc3d 	bl	1ec0 <UART_ReadBlocking>
     646:	6178      	str	r0, [r7, #20]
     648:	e016      	b.n	678 <IO_Transfer+0x78>
     64a:	79fb      	ldrb	r3, [r7, #7]
     64c:	2b00      	cmp	r3, #0
     64e:	d007      	beq.n	660 <IO_Transfer+0x60>
     650:	4b0c      	ldr	r3, [pc, #48]	; (684 <IO_Transfer+0x84>)
     652:	681b      	ldr	r3, [r3, #0]
     654:	68ba      	ldr	r2, [r7, #8]
     656:	68f9      	ldr	r1, [r7, #12]
     658:	4618      	mov	r0, r3
     65a:	f001 f9d3 	bl	1a04 <LPUART_WriteBlocking>
     65e:	e00b      	b.n	678 <IO_Transfer+0x78>
     660:	4b08      	ldr	r3, [pc, #32]	; (684 <IO_Transfer+0x84>)
     662:	681b      	ldr	r3, [r3, #0]
     664:	68ba      	ldr	r2, [r7, #8]
     666:	68f9      	ldr	r1, [r7, #12]
     668:	4618      	mov	r0, r3
     66a:	f001 f9f1 	bl	1a50 <LPUART_ReadBlocking>
     66e:	6178      	str	r0, [r7, #20]
     670:	e002      	b.n	678 <IO_Transfer+0x78>
     672:	2301      	movs	r3, #1
     674:	617b      	str	r3, [r7, #20]
     676:	bf00      	nop
     678:	697b      	ldr	r3, [r7, #20]
     67a:	4618      	mov	r0, r3
     67c:	3718      	adds	r7, #24
     67e:	46bd      	mov	sp, r7
     680:	bd80      	pop	{r7, pc}
     682:	bf00      	nop
     684:	20000010 	.word	0x20000010

00000688 <LOG_Push>:
     688:	b580      	push	{r7, lr}
     68a:	b082      	sub	sp, #8
     68c:	af00      	add	r7, sp, #0
     68e:	6078      	str	r0, [r7, #4]
     690:	6039      	str	r1, [r7, #0]
     692:	687b      	ldr	r3, [r7, #4]
     694:	2b00      	cmp	r3, #0
     696:	d102      	bne.n	69e <LOG_Push+0x16>
     698:	4805      	ldr	r0, [pc, #20]	; (6b0 <LOG_Push+0x28>)
     69a:	f003 fbdf 	bl	3e5c <__assertion_failed>
     69e:	6839      	ldr	r1, [r7, #0]
     6a0:	6878      	ldr	r0, [r7, #4]
     6a2:	f003 feda 	bl	445a <LOG_Pop>
     6a6:	4603      	mov	r3, r0
     6a8:	4618      	mov	r0, r3
     6aa:	3708      	adds	r7, #8
     6ac:	46bd      	mov	sp, r7
     6ae:	bd80      	pop	{r7, pc}
     6b0:	00005b58 	.word	0x00005b58

000006b4 <LOG_ReadLine>:
     6b4:	b580      	push	{r7, lr}
     6b6:	b084      	sub	sp, #16
     6b8:	af00      	add	r7, sp, #0
     6ba:	6078      	str	r0, [r7, #4]
     6bc:	6039      	str	r1, [r7, #0]
     6be:	687b      	ldr	r3, [r7, #4]
     6c0:	2b00      	cmp	r3, #0
     6c2:	d102      	bne.n	6ca <LOG_ReadLine+0x16>
     6c4:	4824      	ldr	r0, [pc, #144]	; (758 <LOG_ReadLine+0xa4>)
     6c6:	f003 fbc9 	bl	3e5c <__assertion_failed>
     6ca:	2300      	movs	r3, #0
     6cc:	60fb      	str	r3, [r7, #12]
     6ce:	2300      	movs	r3, #0
     6d0:	60fb      	str	r3, [r7, #12]
     6d2:	e025      	b.n	720 <LOG_ReadLine+0x6c>
     6d4:	68fb      	ldr	r3, [r7, #12]
     6d6:	687a      	ldr	r2, [r7, #4]
     6d8:	4413      	add	r3, r2
     6da:	4618      	mov	r0, r3
     6dc:	f003 fede 	bl	449c <LOG_ReadOneCharacter>
     6e0:	4603      	mov	r3, r0
     6e2:	2b00      	cmp	r3, #0
     6e4:	d002      	beq.n	6ec <LOG_ReadLine+0x38>
     6e6:	f04f 33ff 	mov.w	r3, #4294967295	; 0xffffffff
     6ea:	e030      	b.n	74e <LOG_ReadLine+0x9a>
     6ec:	68fb      	ldr	r3, [r7, #12]
     6ee:	687a      	ldr	r2, [r7, #4]
     6f0:	4413      	add	r3, r2
     6f2:	781b      	ldrb	r3, [r3, #0]
     6f4:	2b0d      	cmp	r3, #13
     6f6:	d005      	beq.n	704 <LOG_ReadLine+0x50>
     6f8:	68fb      	ldr	r3, [r7, #12]
     6fa:	687a      	ldr	r2, [r7, #4]
     6fc:	4413      	add	r3, r2
     6fe:	781b      	ldrb	r3, [r3, #0]
     700:	2b0a      	cmp	r3, #10
     702:	d10a      	bne.n	71a <LOG_ReadLine+0x66>
     704:	68fb      	ldr	r3, [r7, #12]
     706:	2b00      	cmp	r3, #0
     708:	d10f      	bne.n	72a <LOG_ReadLine+0x76>
     70a:	68fb      	ldr	r3, [r7, #12]
     70c:	687a      	ldr	r2, [r7, #4]
     70e:	4413      	add	r3, r2
     710:	2200      	movs	r2, #0
     712:	701a      	strb	r2, [r3, #0]
     714:	f04f 33ff 	mov.w	r3, #4294967295	; 0xffffffff
     718:	60fb      	str	r3, [r7, #12]
     71a:	68fb      	ldr	r3, [r7, #12]
     71c:	3301      	adds	r3, #1
     71e:	60fb      	str	r3, [r7, #12]
     720:	68fb      	ldr	r3, [r7, #12]
     722:	683a      	ldr	r2, [r7, #0]
     724:	429a      	cmp	r2, r3
     726:	d8d5      	bhi.n	6d4 <LOG_ReadLine+0x20>
     728:	e000      	b.n	72c <LOG_ReadLine+0x78>
     72a:	bf00      	nop
     72c:	68fb      	ldr	r3, [r7, #12]
     72e:	683a      	ldr	r2, [r7, #0]
     730:	429a      	cmp	r2, r3
     732:	d105      	bne.n	740 <LOG_ReadLine+0x8c>
     734:	68fb      	ldr	r3, [r7, #12]
     736:	687a      	ldr	r2, [r7, #4]
     738:	4413      	add	r3, r2
     73a:	2200      	movs	r2, #0
     73c:	701a      	strb	r2, [r3, #0]
     73e:	e005      	b.n	74c <LOG_ReadLine+0x98>
     740:	68fb      	ldr	r3, [r7, #12]
     742:	3301      	adds	r3, #1
     744:	687a      	ldr	r2, [r7, #4]
     746:	4413      	add	r3, r2
     748:	2200      	movs	r2, #0
     74a:	701a      	strb	r2, [r3, #0]
     74c:	68fb      	ldr	r3, [r7, #12]
     74e:	4618      	mov	r0, r3
     750:	3710      	adds	r7, #16
     752:	46bd      	mov	sp, r7
     754:	bd80      	pop	{r7, pc}
     756:	bf00      	nop
     758:	00005b84 	.word	0x00005b84

0000075c <StrFormatScanf>:
     75c:	b580      	push	{r7, lr}
     75e:	b08e      	sub	sp, #56	; 0x38
     760:	af00      	add	r7, sp, #0
     762:	60f8      	str	r0, [r7, #12]
     764:	60b9      	str	r1, [r7, #8]
     766:	607a      	str	r2, [r7, #4]
     768:	68bb      	ldr	r3, [r7, #8]
     76a:	617b      	str	r3, [r7, #20]
     76c:	2300      	movs	r3, #0
     76e:	62fb      	str	r3, [r7, #44]	; 0x2c
     770:	2300      	movs	r3, #0
     772:	627b      	str	r3, [r7, #36]	; 0x24
     774:	2300      	movs	r3, #0
     776:	623b      	str	r3, [r7, #32]
     778:	68fb      	ldr	r3, [r7, #12]
     77a:	613b      	str	r3, [r7, #16]
     77c:	693b      	ldr	r3, [r7, #16]
     77e:	781b      	ldrb	r3, [r3, #0]
     780:	2b00      	cmp	r3, #0
     782:	f040 82cf 	bne.w	d24 <StrFormatScanf+0x5c8>
     786:	f04f 33ff 	mov.w	r3, #4294967295	; 0xffffffff
     78a:	e2d7      	b.n	d3c <StrFormatScanf+0x5e0>
     78c:	f107 0314 	add.w	r3, r7, #20
     790:	4618      	mov	r0, r3
     792:	f003 fe96 	bl	44c2 <ScanIgnoreWhiteSpace>
     796:	4603      	mov	r3, r0
     798:	2b00      	cmp	r3, #0
     79a:	d009      	beq.n	7b0 <StrFormatScanf+0x54>
     79c:	f107 0310 	add.w	r3, r7, #16
     7a0:	4618      	mov	r0, r3
     7a2:	f003 fe8e 	bl	44c2 <ScanIgnoreWhiteSpace>
     7a6:	4602      	mov	r2, r0
     7a8:	6a3b      	ldr	r3, [r7, #32]
     7aa:	4413      	add	r3, r2
     7ac:	623b      	str	r3, [r7, #32]
     7ae:	e2b9      	b.n	d24 <StrFormatScanf+0x5c8>
     7b0:	697b      	ldr	r3, [r7, #20]
     7b2:	781b      	ldrb	r3, [r3, #0]
     7b4:	2b25      	cmp	r3, #37	; 0x25
     7b6:	d108      	bne.n	7ca <StrFormatScanf+0x6e>
     7b8:	697b      	ldr	r3, [r7, #20]
     7ba:	781b      	ldrb	r3, [r3, #0]
     7bc:	2b25      	cmp	r3, #37	; 0x25
     7be:	d118      	bne.n	7f2 <StrFormatScanf+0x96>
     7c0:	697b      	ldr	r3, [r7, #20]
     7c2:	3301      	adds	r3, #1
     7c4:	781b      	ldrb	r3, [r3, #0]
     7c6:	2b25      	cmp	r3, #37	; 0x25
     7c8:	d113      	bne.n	7f2 <StrFormatScanf+0x96>
     7ca:	697b      	ldr	r3, [r7, #20]
     7cc:	3301      	adds	r3, #1
     7ce:	617b      	str	r3, [r7, #20]
     7d0:	693b      	ldr	r3, [r7, #16]
     7d2:	781a      	ldrb	r2, [r3, #0]
     7d4:	697b      	ldr	r3, [r7, #20]
     7d6:	781b      	ldrb	r3, [r3, #0]
     7d8:	429a      	cmp	r2, r3
     7da:	f040 82ad 	bne.w	d38 <StrFormatScanf+0x5dc>
     7de:	6a3b      	ldr	r3, [r7, #32]
     7e0:	3301      	adds	r3, #1
     7e2:	623b      	str	r3, [r7, #32]
     7e4:	693b      	ldr	r3, [r7, #16]
     7e6:	3301      	adds	r3, #1
     7e8:	613b      	str	r3, [r7, #16]
     7ea:	697b      	ldr	r3, [r7, #20]
     7ec:	3301      	adds	r3, #1
     7ee:	617b      	str	r3, [r7, #20]
     7f0:	e298      	b.n	d24 <StrFormatScanf+0x5c8>
     7f2:	697b      	ldr	r3, [r7, #20]
     7f4:	3301      	adds	r3, #1
     7f6:	617b      	str	r3, [r7, #20]
     7f8:	2300      	movs	r3, #0
     7fa:	62fb      	str	r3, [r7, #44]	; 0x2c
     7fc:	2300      	movs	r3, #0
     7fe:	62bb      	str	r3, [r7, #40]	; 0x28
     800:	2300      	movs	r3, #0
     802:	f887 3037 	strb.w	r3, [r7, #55]	; 0x37
     806:	e109      	b.n	a1c <StrFormatScanf+0x2c0>
     808:	697b      	ldr	r3, [r7, #20]
     80a:	781b      	ldrb	r3, [r3, #0]
     80c:	3b30      	subs	r3, #48	; 0x30
     80e:	2b48      	cmp	r3, #72	; 0x48
     810:	f200 8102 	bhi.w	a18 <StrFormatScanf+0x2bc>
     814:	a201      	add	r2, pc, #4	; (adr r2, 81c <StrFormatScanf+0xc0>)
     816:	f852 f023 	ldr.w	pc, [r2, r3, lsl #2]
     81a:	bf00      	nop
     81c:	00000941 	.word	0x00000941
     820:	00000941 	.word	0x00000941
     824:	00000941 	.word	0x00000941
     828:	00000941 	.word	0x00000941
     82c:	00000941 	.word	0x00000941
     830:	00000941 	.word	0x00000941
     834:	00000941 	.word	0x00000941
     838:	00000941 	.word	0x00000941
     83c:	00000941 	.word	0x00000941
     840:	00000941 	.word	0x00000941
     844:	00000a19 	.word	0x00000a19
     848:	00000a19 	.word	0x00000a19
     84c:	00000a19 	.word	0x00000a19
     850:	00000a19 	.word	0x00000a19
     854:	00000a19 	.word	0x00000a19
     858:	00000a19 	.word	0x00000a19
     85c:	00000a19 	.word	0x00000a19
     860:	00000a19 	.word	0x00000a19
     864:	00000a19 	.word	0x00000a19
     868:	00000a19 	.word	0x00000a19
     86c:	00000a19 	.word	0x00000a19
     870:	00000a19 	.word	0x00000a19
     874:	00000a19 	.word	0x00000a19
     878:	00000a19 	.word	0x00000a19
     87c:	00000a19 	.word	0x00000a19
     880:	00000a19 	.word	0x00000a19
     884:	00000a19 	.word	0x00000a19
     888:	00000a19 	.word	0x00000a19
     88c:	00000a19 	.word	0x00000a19
     890:	00000a19 	.word	0x00000a19
     894:	00000a19 	.word	0x00000a19
     898:	00000a19 	.word	0x00000a19
     89c:	00000a19 	.word	0x00000a19
     8a0:	00000a19 	.word	0x00000a19
     8a4:	00000a19 	.word	0x00000a19
     8a8:	00000a19 	.word	0x00000a19
     8ac:	00000a19 	.word	0x00000a19
     8b0:	00000a19 	.word	0x00000a19
     8b4:	00000a19 	.word	0x00000a19
     8b8:	00000a19 	.word	0x00000a19
     8bc:	000009c3 	.word	0x000009c3
     8c0:	00000a19 	.word	0x00000a19
     8c4:	00000a19 	.word	0x00000a19
     8c8:	00000a19 	.word	0x00000a19
     8cc:	00000a19 	.word	0x00000a19
     8d0:	00000a19 	.word	0x00000a19
     8d4:	00000a19 	.word	0x00000a19
     8d8:	00000a19 	.word	0x00000a19
     8dc:	00000a19 	.word	0x00000a19
     8e0:	00000a19 	.word	0x00000a19
     8e4:	00000a19 	.word	0x00000a19
     8e8:	000009ef 	.word	0x000009ef
     8ec:	00000979 	.word	0x00000979
     8f0:	00000a19 	.word	0x00000a19
     8f4:	00000a19 	.word	0x00000a19
     8f8:	00000a19 	.word	0x00000a19
     8fc:	00000a19 	.word	0x00000a19
     900:	000009d9 	.word	0x000009d9
     904:	00000a19 	.word	0x00000a19
     908:	00000a19 	.word	0x00000a19
     90c:	00000a19 	.word	0x00000a19
     910:	00000a19 	.word	0x00000a19
     914:	00000a19 	.word	0x00000a19
     918:	000009ad 	.word	0x000009ad
     91c:	00000a19 	.word	0x00000a19
     920:	00000a19 	.word	0x00000a19
     924:	00000a19 	.word	0x00000a19
     928:	00000a09 	.word	0x00000a09
     92c:	00000a19 	.word	0x00000a19
     930:	00000997 	.word	0x00000997
     934:	00000a19 	.word	0x00000a19
     938:	00000a19 	.word	0x00000a19
     93c:	000009c3 	.word	0x000009c3
     940:	6abb      	ldr	r3, [r7, #40]	; 0x28
     942:	2b00      	cmp	r3, #0
     944:	d001      	beq.n	94a <StrFormatScanf+0x1ee>
     946:	6a7b      	ldr	r3, [r7, #36]	; 0x24
     948:	e1f8      	b.n	d3c <StrFormatScanf+0x5e0>
     94a:	6aba      	ldr	r2, [r7, #40]	; 0x28
     94c:	4613      	mov	r3, r2
     94e:	009b      	lsls	r3, r3, #2
     950:	4413      	add	r3, r2
     952:	005b      	lsls	r3, r3, #1
     954:	461a      	mov	r2, r3
     956:	697b      	ldr	r3, [r7, #20]
     958:	781b      	ldrb	r3, [r3, #0]
     95a:	4413      	add	r3, r2
     95c:	3b30      	subs	r3, #48	; 0x30
     95e:	62bb      	str	r3, [r7, #40]	; 0x28
     960:	697b      	ldr	r3, [r7, #20]
     962:	3301      	adds	r3, #1
     964:	617b      	str	r3, [r7, #20]
     966:	697b      	ldr	r3, [r7, #20]
     968:	781b      	ldrb	r3, [r3, #0]
     96a:	2b2f      	cmp	r3, #47	; 0x2f
     96c:	d956      	bls.n	a1c <StrFormatScanf+0x2c0>
     96e:	697b      	ldr	r3, [r7, #20]
     970:	781b      	ldrb	r3, [r3, #0]
     972:	2b39      	cmp	r3, #57	; 0x39
     974:	d9e9      	bls.n	94a <StrFormatScanf+0x1ee>
     976:	e051      	b.n	a1c <StrFormatScanf+0x2c0>
     978:	230a      	movs	r3, #10
     97a:	f887 3037 	strb.w	r3, [r7, #55]	; 0x37
     97e:	6afb      	ldr	r3, [r7, #44]	; 0x2c
     980:	f443 5300 	orr.w	r3, r3, #8192	; 0x2000
     984:	62fb      	str	r3, [r7, #44]	; 0x2c
     986:	6afb      	ldr	r3, [r7, #44]	; 0x2c
     988:	f043 0320 	orr.w	r3, r3, #32
     98c:	62fb      	str	r3, [r7, #44]	; 0x2c
     98e:	697b      	ldr	r3, [r7, #20]
     990:	3301      	adds	r3, #1
     992:	617b      	str	r3, [r7, #20]
     994:	e042      	b.n	a1c <StrFormatScanf+0x2c0>
     996:	230a      	movs	r3, #10
     998:	f887 3037 	strb.w	r3, [r7, #55]	; 0x37
     99c:	6afb      	ldr	r3, [r7, #44]	; 0x2c
     99e:	f043 0320 	orr.w	r3, r3, #32
     9a2:	62fb      	str	r3, [r7, #44]	; 0x2c
     9a4:	697b      	ldr	r3, [r7, #20]
     9a6:	3301      	adds	r3, #1
     9a8:	617b      	str	r3, [r7, #20]
     9aa:	e037      	b.n	a1c <StrFormatScanf+0x2c0>
     9ac:	2308      	movs	r3, #8
     9ae:	f887 3037 	strb.w	r3, [r7, #55]	; 0x37
     9b2:	6afb      	ldr	r3, [r7, #44]	; 0x2c
     9b4:	f043 0320 	orr.w	r3, r3, #32
     9b8:	62fb      	str	r3, [r7, #44]	; 0x2c
     9ba:	697b      	ldr	r3, [r7, #20]
     9bc:	3301      	adds	r3, #1
     9be:	617b      	str	r3, [r7, #20]
     9c0:	e02c      	b.n	a1c <StrFormatScanf+0x2c0>
     9c2:	2310      	movs	r3, #16
     9c4:	f887 3037 	strb.w	r3, [r7, #55]	; 0x37
     9c8:	6afb      	ldr	r3, [r7, #44]	; 0x2c
     9ca:	f043 0320 	orr.w	r3, r3, #32
     9ce:	62fb      	str	r3, [r7, #44]	; 0x2c
     9d0:	697b      	ldr	r3, [r7, #20]
     9d2:	3301      	adds	r3, #1
     9d4:	617b      	str	r3, [r7, #20]
     9d6:	e021      	b.n	a1c <StrFormatScanf+0x2c0>
     9d8:	2300      	movs	r3, #0
     9da:	f887 3037 	strb.w	r3, [r7, #55]	; 0x37
     9de:	6afb      	ldr	r3, [r7, #44]	; 0x2c
     9e0:	f043 0320 	orr.w	r3, r3, #32
     9e4:	62fb      	str	r3, [r7, #44]	; 0x2c
     9e6:	697b      	ldr	r3, [r7, #20]
     9e8:	3301      	adds	r3, #1
     9ea:	617b      	str	r3, [r7, #20]
     9ec:	e016      	b.n	a1c <StrFormatScanf+0x2c0>
     9ee:	6afb      	ldr	r3, [r7, #44]	; 0x2c
     9f0:	f043 0304 	orr.w	r3, r3, #4
     9f4:	62fb      	str	r3, [r7, #44]	; 0x2c
     9f6:	6abb      	ldr	r3, [r7, #40]	; 0x28
     9f8:	2b00      	cmp	r3, #0
     9fa:	d101      	bne.n	a00 <StrFormatScanf+0x2a4>
     9fc:	2301      	movs	r3, #1
     9fe:	62bb      	str	r3, [r7, #40]	; 0x28
     a00:	697b      	ldr	r3, [r7, #20]
     a02:	3301      	adds	r3, #1
     a04:	617b      	str	r3, [r7, #20]
     a06:	e009      	b.n	a1c <StrFormatScanf+0x2c0>
     a08:	6afb      	ldr	r3, [r7, #44]	; 0x2c
     a0a:	f043 0308 	orr.w	r3, r3, #8
     a0e:	62fb      	str	r3, [r7, #44]	; 0x2c
     a10:	697b      	ldr	r3, [r7, #20]
     a12:	3301      	adds	r3, #1
     a14:	617b      	str	r3, [r7, #20]
     a16:	e001      	b.n	a1c <StrFormatScanf+0x2c0>
     a18:	6a7b      	ldr	r3, [r7, #36]	; 0x24
     a1a:	e18f      	b.n	d3c <StrFormatScanf+0x5e0>
     a1c:	697b      	ldr	r3, [r7, #20]
     a1e:	781b      	ldrb	r3, [r3, #0]
     a20:	2b00      	cmp	r3, #0
     a22:	d005      	beq.n	a30 <StrFormatScanf+0x2d4>
     a24:	6afb      	ldr	r3, [r7, #44]	; 0x2c
     a26:	f003 037c 	and.w	r3, r3, #124	; 0x7c
     a2a:	2b00      	cmp	r3, #0
     a2c:	f43f aeec 	beq.w	808 <StrFormatScanf+0xac>
     a30:	6afb      	ldr	r3, [r7, #44]	; 0x2c
     a32:	f003 037c 	and.w	r3, r3, #124	; 0x7c
     a36:	2b00      	cmp	r3, #0
     a38:	d101      	bne.n	a3e <StrFormatScanf+0x2e2>
     a3a:	6a7b      	ldr	r3, [r7, #36]	; 0x24
     a3c:	e17e      	b.n	d3c <StrFormatScanf+0x5e0>
     a3e:	6abb      	ldr	r3, [r7, #40]	; 0x28
     a40:	2b00      	cmp	r3, #0
     a42:	d101      	bne.n	a48 <StrFormatScanf+0x2ec>
     a44:	2363      	movs	r3, #99	; 0x63
     a46:	62bb      	str	r3, [r7, #40]	; 0x28
     a48:	6afb      	ldr	r3, [r7, #44]	; 0x2c
     a4a:	f003 037c 	and.w	r3, r3, #124	; 0x7c
     a4e:	2b08      	cmp	r3, #8
     a50:	d039      	beq.n	ac6 <StrFormatScanf+0x36a>
     a52:	2b20      	cmp	r3, #32
     a54:	f000 808f 	beq.w	b76 <StrFormatScanf+0x41a>
     a58:	2b04      	cmp	r3, #4
     a5a:	f040 8161 	bne.w	d20 <StrFormatScanf+0x5c4>
     a5e:	693b      	ldr	r3, [r7, #16]
     a60:	61bb      	str	r3, [r7, #24]
     a62:	687b      	ldr	r3, [r7, #4]
     a64:	1d1a      	adds	r2, r3, #4
     a66:	607a      	str	r2, [r7, #4]
     a68:	681b      	ldr	r3, [r3, #0]
     a6a:	633b      	str	r3, [r7, #48]	; 0x30
     a6c:	e013      	b.n	a96 <StrFormatScanf+0x33a>
     a6e:	6afb      	ldr	r3, [r7, #44]	; 0x2c
     a70:	f003 0302 	and.w	r3, r3, #2
     a74:	2b00      	cmp	r3, #0
     a76:	d108      	bne.n	a8a <StrFormatScanf+0x32e>
     a78:	693a      	ldr	r2, [r7, #16]
     a7a:	1c53      	adds	r3, r2, #1
     a7c:	613b      	str	r3, [r7, #16]
     a7e:	6b3b      	ldr	r3, [r7, #48]	; 0x30
     a80:	1c59      	adds	r1, r3, #1
     a82:	6339      	str	r1, [r7, #48]	; 0x30
     a84:	7812      	ldrb	r2, [r2, #0]
     a86:	701a      	strb	r2, [r3, #0]
     a88:	e002      	b.n	a90 <StrFormatScanf+0x334>
     a8a:	693b      	ldr	r3, [r7, #16]
     a8c:	3301      	adds	r3, #1
     a8e:	613b      	str	r3, [r7, #16]
     a90:	6a3b      	ldr	r3, [r7, #32]
     a92:	3301      	adds	r3, #1
     a94:	623b      	str	r3, [r7, #32]
     a96:	6abb      	ldr	r3, [r7, #40]	; 0x28
     a98:	1e5a      	subs	r2, r3, #1
     a9a:	62ba      	str	r2, [r7, #40]	; 0x28
     a9c:	2b00      	cmp	r3, #0
     a9e:	d003      	beq.n	aa8 <StrFormatScanf+0x34c>
     aa0:	693b      	ldr	r3, [r7, #16]
     aa2:	781b      	ldrb	r3, [r3, #0]
     aa4:	2b00      	cmp	r3, #0
     aa6:	d1e2      	bne.n	a6e <StrFormatScanf+0x312>
     aa8:	6afb      	ldr	r3, [r7, #44]	; 0x2c
     aaa:	f003 0302 	and.w	r3, r3, #2
     aae:	2b00      	cmp	r3, #0
     ab0:	f040 8138 	bne.w	d24 <StrFormatScanf+0x5c8>
     ab4:	693b      	ldr	r3, [r7, #16]
     ab6:	69ba      	ldr	r2, [r7, #24]
     ab8:	429a      	cmp	r2, r3
     aba:	f000 8133 	beq.w	d24 <StrFormatScanf+0x5c8>
     abe:	6a7b      	ldr	r3, [r7, #36]	; 0x24
     ac0:	3301      	adds	r3, #1
     ac2:	627b      	str	r3, [r7, #36]	; 0x24
     ac4:	e12e      	b.n	d24 <StrFormatScanf+0x5c8>
     ac6:	f107 0310 	add.w	r3, r7, #16
     aca:	4618      	mov	r0, r3
     acc:	f003 fcf9 	bl	44c2 <ScanIgnoreWhiteSpace>
     ad0:	4602      	mov	r2, r0
     ad2:	6a3b      	ldr	r3, [r7, #32]
     ad4:	4413      	add	r3, r2
     ad6:	623b      	str	r3, [r7, #32]
     ad8:	693b      	ldr	r3, [r7, #16]
     ada:	61bb      	str	r3, [r7, #24]
     adc:	687b      	ldr	r3, [r7, #4]
     ade:	1d1a      	adds	r2, r3, #4
     ae0:	607a      	str	r2, [r7, #4]
     ae2:	681b      	ldr	r3, [r3, #0]
     ae4:	633b      	str	r3, [r7, #48]	; 0x30
     ae6:	e013      	b.n	b10 <StrFormatScanf+0x3b4>
     ae8:	6afb      	ldr	r3, [r7, #44]	; 0x2c
     aea:	f003 0302 	and.w	r3, r3, #2
     aee:	2b00      	cmp	r3, #0
     af0:	d003      	beq.n	afa <StrFormatScanf+0x39e>
     af2:	693b      	ldr	r3, [r7, #16]
     af4:	3301      	adds	r3, #1
     af6:	613b      	str	r3, [r7, #16]
     af8:	e007      	b.n	b0a <StrFormatScanf+0x3ae>
     afa:	693a      	ldr	r2, [r7, #16]
     afc:	1c53      	adds	r3, r2, #1
     afe:	613b      	str	r3, [r7, #16]
     b00:	6b3b      	ldr	r3, [r7, #48]	; 0x30
     b02:	1c59      	adds	r1, r3, #1
     b04:	6339      	str	r1, [r7, #48]	; 0x30
     b06:	7812      	ldrb	r2, [r2, #0]
     b08:	701a      	strb	r2, [r3, #0]
     b0a:	6a3b      	ldr	r3, [r7, #32]
     b0c:	3301      	adds	r3, #1
     b0e:	623b      	str	r3, [r7, #32]
     b10:	6abb      	ldr	r3, [r7, #40]	; 0x28
     b12:	1e5a      	subs	r2, r3, #1
     b14:	62ba      	str	r2, [r7, #40]	; 0x28
     b16:	2b00      	cmp	r3, #0
     b18:	d01b      	beq.n	b52 <StrFormatScanf+0x3f6>
     b1a:	693b      	ldr	r3, [r7, #16]
     b1c:	781b      	ldrb	r3, [r3, #0]
     b1e:	2b00      	cmp	r3, #0
     b20:	d017      	beq.n	b52 <StrFormatScanf+0x3f6>
     b22:	693b      	ldr	r3, [r7, #16]
     b24:	781b      	ldrb	r3, [r3, #0]
     b26:	2b20      	cmp	r3, #32
     b28:	d013      	beq.n	b52 <StrFormatScanf+0x3f6>
     b2a:	693b      	ldr	r3, [r7, #16]
     b2c:	781b      	ldrb	r3, [r3, #0]
     b2e:	2b09      	cmp	r3, #9
     b30:	d00f      	beq.n	b52 <StrFormatScanf+0x3f6>
     b32:	693b      	ldr	r3, [r7, #16]
     b34:	781b      	ldrb	r3, [r3, #0]
     b36:	2b0a      	cmp	r3, #10
     b38:	d00b      	beq.n	b52 <StrFormatScanf+0x3f6>
     b3a:	693b      	ldr	r3, [r7, #16]
     b3c:	781b      	ldrb	r3, [r3, #0]
     b3e:	2b0d      	cmp	r3, #13
     b40:	d007      	beq.n	b52 <StrFormatScanf+0x3f6>
     b42:	693b      	ldr	r3, [r7, #16]
     b44:	781b      	ldrb	r3, [r3, #0]
     b46:	2b0b      	cmp	r3, #11
     b48:	d003      	beq.n	b52 <StrFormatScanf+0x3f6>
     b4a:	693b      	ldr	r3, [r7, #16]
     b4c:	781b      	ldrb	r3, [r3, #0]
     b4e:	2b0c      	cmp	r3, #12
     b50:	d1ca      	bne.n	ae8 <StrFormatScanf+0x38c>
     b52:	6afb      	ldr	r3, [r7, #44]	; 0x2c
     b54:	f003 0302 	and.w	r3, r3, #2
     b58:	2b00      	cmp	r3, #0
     b5a:	f040 80e3 	bne.w	d24 <StrFormatScanf+0x5c8>
     b5e:	693b      	ldr	r3, [r7, #16]
     b60:	69ba      	ldr	r2, [r7, #24]
     b62:	429a      	cmp	r2, r3
     b64:	f000 80de 	beq.w	d24 <StrFormatScanf+0x5c8>
     b68:	6b3b      	ldr	r3, [r7, #48]	; 0x30
     b6a:	2200      	movs	r2, #0
     b6c:	701a      	strb	r2, [r3, #0]
     b6e:	6a7b      	ldr	r3, [r7, #36]	; 0x24
     b70:	3301      	adds	r3, #1
     b72:	627b      	str	r3, [r7, #36]	; 0x24
     b74:	e0d6      	b.n	d24 <StrFormatScanf+0x5c8>
     b76:	f107 0310 	add.w	r3, r7, #16
     b7a:	4618      	mov	r0, r3
     b7c:	f003 fca1 	bl	44c2 <ScanIgnoreWhiteSpace>
     b80:	4602      	mov	r2, r0
     b82:	6a3b      	ldr	r3, [r7, #32]
     b84:	4413      	add	r3, r2
     b86:	623b      	str	r3, [r7, #32]
     b88:	693b      	ldr	r3, [r7, #16]
     b8a:	61bb      	str	r3, [r7, #24]
     b8c:	2300      	movs	r3, #0
     b8e:	61fb      	str	r3, [r7, #28]
     b90:	f897 3037 	ldrb.w	r3, [r7, #55]	; 0x37
     b94:	2b00      	cmp	r3, #0
     b96:	d003      	beq.n	ba0 <StrFormatScanf+0x444>
     b98:	f897 3037 	ldrb.w	r3, [r7, #55]	; 0x37
     b9c:	2b10      	cmp	r3, #16
     b9e:	d11c      	bne.n	bda <StrFormatScanf+0x47e>
     ba0:	69bb      	ldr	r3, [r7, #24]
     ba2:	781b      	ldrb	r3, [r3, #0]
     ba4:	2b30      	cmp	r3, #48	; 0x30
     ba6:	d118      	bne.n	bda <StrFormatScanf+0x47e>
     ba8:	69bb      	ldr	r3, [r7, #24]
     baa:	3301      	adds	r3, #1
     bac:	781b      	ldrb	r3, [r3, #0]
     bae:	2b78      	cmp	r3, #120	; 0x78
     bb0:	d004      	beq.n	bbc <StrFormatScanf+0x460>
     bb2:	69bb      	ldr	r3, [r7, #24]
     bb4:	3301      	adds	r3, #1
     bb6:	781b      	ldrb	r3, [r3, #0]
     bb8:	2b58      	cmp	r3, #88	; 0x58
     bba:	d10e      	bne.n	bda <StrFormatScanf+0x47e>
     bbc:	2310      	movs	r3, #16
     bbe:	f887 3037 	strb.w	r3, [r7, #55]	; 0x37
     bc2:	6abb      	ldr	r3, [r7, #40]	; 0x28
     bc4:	2b00      	cmp	r3, #0
     bc6:	d008      	beq.n	bda <StrFormatScanf+0x47e>
     bc8:	693b      	ldr	r3, [r7, #16]
     bca:	3302      	adds	r3, #2
     bcc:	613b      	str	r3, [r7, #16]
     bce:	6a3b      	ldr	r3, [r7, #32]
     bd0:	3302      	adds	r3, #2
     bd2:	623b      	str	r3, [r7, #32]
     bd4:	6abb      	ldr	r3, [r7, #40]	; 0x28
     bd6:	3b02      	subs	r3, #2
     bd8:	62bb      	str	r3, [r7, #40]	; 0x28
     bda:	f897 3037 	ldrb.w	r3, [r7, #55]	; 0x37
     bde:	2b00      	cmp	r3, #0
     be0:	d10a      	bne.n	bf8 <StrFormatScanf+0x49c>
     be2:	69bb      	ldr	r3, [r7, #24]
     be4:	781b      	ldrb	r3, [r3, #0]
     be6:	2b30      	cmp	r3, #48	; 0x30
     be8:	d103      	bne.n	bf2 <StrFormatScanf+0x496>
     bea:	2308      	movs	r3, #8
     bec:	f887 3037 	strb.w	r3, [r7, #55]	; 0x37
     bf0:	e002      	b.n	bf8 <StrFormatScanf+0x49c>
     bf2:	230a      	movs	r3, #10
     bf4:	f887 3037 	strb.w	r3, [r7, #55]	; 0x37
     bf8:	2301      	movs	r3, #1
     bfa:	f887 3036 	strb.w	r3, [r7, #54]	; 0x36
     bfe:	693b      	ldr	r3, [r7, #16]
     c00:	781b      	ldrb	r3, [r3, #0]
     c02:	2b2b      	cmp	r3, #43	; 0x2b
     c04:	d00f      	beq.n	c26 <StrFormatScanf+0x4ca>
     c06:	2b2d      	cmp	r3, #45	; 0x2d
     c08:	d000      	beq.n	c0c <StrFormatScanf+0x4b0>
     c0a:	e019      	b.n	c40 <StrFormatScanf+0x4e4>
     c0c:	23ff      	movs	r3, #255	; 0xff
     c0e:	f887 3036 	strb.w	r3, [r7, #54]	; 0x36
     c12:	6a3b      	ldr	r3, [r7, #32]
     c14:	3301      	adds	r3, #1
     c16:	623b      	str	r3, [r7, #32]
     c18:	693b      	ldr	r3, [r7, #16]
     c1a:	3301      	adds	r3, #1
     c1c:	613b      	str	r3, [r7, #16]
     c1e:	6abb      	ldr	r3, [r7, #40]	; 0x28
     c20:	3b01      	subs	r3, #1
     c22:	62bb      	str	r3, [r7, #40]	; 0x28
     c24:	e00c      	b.n	c40 <StrFormatScanf+0x4e4>
     c26:	2301      	movs	r3, #1
     c28:	f887 3036 	strb.w	r3, [r7, #54]	; 0x36
     c2c:	6a3b      	ldr	r3, [r7, #32]
     c2e:	3301      	adds	r3, #1
     c30:	623b      	str	r3, [r7, #32]
     c32:	693b      	ldr	r3, [r7, #16]
     c34:	3301      	adds	r3, #1
     c36:	613b      	str	r3, [r7, #16]
     c38:	6abb      	ldr	r3, [r7, #40]	; 0x28
     c3a:	3b01      	subs	r3, #1
     c3c:	62bb      	str	r3, [r7, #40]	; 0x28
     c3e:	bf00      	nop
     c40:	e042      	b.n	cc8 <StrFormatScanf+0x56c>
     c42:	693b      	ldr	r3, [r7, #16]
     c44:	781b      	ldrb	r3, [r3, #0]
     c46:	2b39      	cmp	r3, #57	; 0x39
     c48:	d809      	bhi.n	c5e <StrFormatScanf+0x502>
     c4a:	693b      	ldr	r3, [r7, #16]
     c4c:	781b      	ldrb	r3, [r3, #0]
     c4e:	2b2f      	cmp	r3, #47	; 0x2f
     c50:	d905      	bls.n	c5e <StrFormatScanf+0x502>
     c52:	693b      	ldr	r3, [r7, #16]
     c54:	781b      	ldrb	r3, [r3, #0]
     c56:	3b30      	subs	r3, #48	; 0x30
     c58:	f887 3035 	strb.w	r3, [r7, #53]	; 0x35
     c5c:	e01f      	b.n	c9e <StrFormatScanf+0x542>
     c5e:	693b      	ldr	r3, [r7, #16]
     c60:	781b      	ldrb	r3, [r3, #0]
     c62:	2b66      	cmp	r3, #102	; 0x66
     c64:	d809      	bhi.n	c7a <StrFormatScanf+0x51e>
     c66:	693b      	ldr	r3, [r7, #16]
     c68:	781b      	ldrb	r3, [r3, #0]
     c6a:	2b60      	cmp	r3, #96	; 0x60
     c6c:	d905      	bls.n	c7a <StrFormatScanf+0x51e>
     c6e:	693b      	ldr	r3, [r7, #16]
     c70:	781b      	ldrb	r3, [r3, #0]
     c72:	3b57      	subs	r3, #87	; 0x57
     c74:	f887 3035 	strb.w	r3, [r7, #53]	; 0x35
     c78:	e011      	b.n	c9e <StrFormatScanf+0x542>
     c7a:	693b      	ldr	r3, [r7, #16]
     c7c:	781b      	ldrb	r3, [r3, #0]
     c7e:	2b46      	cmp	r3, #70	; 0x46
     c80:	d809      	bhi.n	c96 <StrFormatScanf+0x53a>
     c82:	693b      	ldr	r3, [r7, #16]
     c84:	781b      	ldrb	r3, [r3, #0]
     c86:	2b40      	cmp	r3, #64	; 0x40
     c88:	d905      	bls.n	c96 <StrFormatScanf+0x53a>
     c8a:	693b      	ldr	r3, [r7, #16]
     c8c:	781b      	ldrb	r3, [r3, #0]
     c8e:	3b37      	subs	r3, #55	; 0x37
     c90:	f887 3035 	strb.w	r3, [r7, #53]	; 0x35
     c94:	e003      	b.n	c9e <StrFormatScanf+0x542>
     c96:	f897 3037 	ldrb.w	r3, [r7, #55]	; 0x37
     c9a:	f887 3035 	strb.w	r3, [r7, #53]	; 0x35
     c9e:	f897 2035 	ldrb.w	r2, [r7, #53]	; 0x35
     ca2:	f897 3037 	ldrb.w	r3, [r7, #55]	; 0x37
     ca6:	429a      	cmp	r2, r3
     ca8:	d218      	bcs.n	cdc <StrFormatScanf+0x580>
     caa:	f897 3037 	ldrb.w	r3, [r7, #55]	; 0x37
     cae:	69fa      	ldr	r2, [r7, #28]
     cb0:	fb02 f203 	mul.w	r2, r2, r3
     cb4:	f897 3035 	ldrb.w	r3, [r7, #53]	; 0x35
     cb8:	4413      	add	r3, r2
     cba:	61fb      	str	r3, [r7, #28]
     cbc:	693b      	ldr	r3, [r7, #16]
     cbe:	3301      	adds	r3, #1
     cc0:	613b      	str	r3, [r7, #16]
     cc2:	6a3b      	ldr	r3, [r7, #32]
     cc4:	3301      	adds	r3, #1
     cc6:	623b      	str	r3, [r7, #32]
     cc8:	693b      	ldr	r3, [r7, #16]
     cca:	781b      	ldrb	r3, [r3, #0]
     ccc:	2b00      	cmp	r3, #0
     cce:	d006      	beq.n	cde <StrFormatScanf+0x582>
     cd0:	6abb      	ldr	r3, [r7, #40]	; 0x28
     cd2:	1e5a      	subs	r2, r3, #1
     cd4:	62ba      	str	r2, [r7, #40]	; 0x28
     cd6:	2b00      	cmp	r3, #0
     cd8:	d1b3      	bne.n	c42 <StrFormatScanf+0x4e6>
     cda:	e000      	b.n	cde <StrFormatScanf+0x582>
     cdc:	bf00      	nop
     cde:	f997 2036 	ldrsb.w	r2, [r7, #54]	; 0x36
     ce2:	69fb      	ldr	r3, [r7, #28]
     ce4:	fb02 f303 	mul.w	r3, r2, r3
     ce8:	61fb      	str	r3, [r7, #28]
     cea:	6afb      	ldr	r3, [r7, #44]	; 0x2c
     cec:	f003 0302 	and.w	r3, r3, #2
     cf0:	2b00      	cmp	r3, #0
     cf2:	d117      	bne.n	d24 <StrFormatScanf+0x5c8>
     cf4:	6afb      	ldr	r3, [r7, #44]	; 0x2c
     cf6:	f403 5300 	and.w	r3, r3, #8192	; 0x2000
     cfa:	2b00      	cmp	r3, #0
     cfc:	d006      	beq.n	d0c <StrFormatScanf+0x5b0>
     cfe:	687b      	ldr	r3, [r7, #4]
     d00:	1d1a      	adds	r2, r3, #4
     d02:	607a      	str	r2, [r7, #4]
     d04:	681b      	ldr	r3, [r3, #0]
     d06:	69fa      	ldr	r2, [r7, #28]
     d08:	601a      	str	r2, [r3, #0]
     d0a:	e005      	b.n	d18 <StrFormatScanf+0x5bc>
     d0c:	687b      	ldr	r3, [r7, #4]
     d0e:	1d1a      	adds	r2, r3, #4
     d10:	607a      	str	r2, [r7, #4]
     d12:	681b      	ldr	r3, [r3, #0]
     d14:	69fa      	ldr	r2, [r7, #28]
     d16:	601a      	str	r2, [r3, #0]
     d18:	6a7b      	ldr	r3, [r7, #36]	; 0x24
     d1a:	3301      	adds	r3, #1
     d1c:	627b      	str	r3, [r7, #36]	; 0x24
     d1e:	e001      	b.n	d24 <StrFormatScanf+0x5c8>
     d20:	6a7b      	ldr	r3, [r7, #36]	; 0x24
     d22:	e00b      	b.n	d3c <StrFormatScanf+0x5e0>
     d24:	697b      	ldr	r3, [r7, #20]
     d26:	781b      	ldrb	r3, [r3, #0]
     d28:	2b00      	cmp	r3, #0
     d2a:	d006      	beq.n	d3a <StrFormatScanf+0x5de>
     d2c:	693b      	ldr	r3, [r7, #16]
     d2e:	781b      	ldrb	r3, [r3, #0]
     d30:	2b00      	cmp	r3, #0
     d32:	f47f ad2b 	bne.w	78c <StrFormatScanf+0x30>
     d36:	e000      	b.n	d3a <StrFormatScanf+0x5de>
     d38:	bf00      	nop
     d3a:	6a7b      	ldr	r3, [r7, #36]	; 0x24
     d3c:	4618      	mov	r0, r3
     d3e:	3738      	adds	r7, #56	; 0x38
     d40:	46bd      	mov	sp, r7
     d42:	bd80      	pop	{r7, pc}

00000d44 <main>:
     d44:	b580      	push	{r7, lr}
     d46:	b082      	sub	sp, #8
     d48:	af02      	add	r7, sp, #8
     d4a:	f001 f9e9 	bl	2120 <BOARD_InitPins>
     d4e:	f001 f9b7 	bl	20c0 <BOARD_BootClockRUN>
     d52:	f001 f961 	bl	2018 <BOARD_InitDebugConsole>
     d56:	2300      	movs	r3, #0
     d58:	9301      	str	r3, [sp, #4]
     d5a:	2304      	movs	r3, #4
     d5c:	9300      	str	r3, [sp, #0]
     d5e:	2300      	movs	r3, #0
     d60:	2264      	movs	r2, #100	; 0x64
     d62:	4907      	ldr	r1, [pc, #28]	; (d80 <main+0x3c>)
     d64:	4807      	ldr	r0, [pc, #28]	; (d84 <main+0x40>)
     d66:	f004 fb9e 	bl	54a6 <xTaskCreate>
     d6a:	4603      	mov	r3, r0
     d6c:	2b01      	cmp	r3, #1
     d6e:	d003      	beq.n	d78 <main+0x34>
     d70:	4805      	ldr	r0, [pc, #20]	; (d88 <main+0x44>)
     d72:	f7ff fbb5 	bl	4e0 <DbgConsole_Printf>
     d76:	e7fe      	b.n	d76 <main+0x32>
     d78:	f002 f892 	bl	2ea0 <vTaskStartScheduler>
     d7c:	e7fe      	b.n	d7c <main+0x38>
     d7e:	bf00      	nop
     d80:	00005bd8 	.word	0x00005bd8
     d84:	00000de1 	.word	0x00000de1
     d88:	00005be4 	.word	0x00005be4

00000d8c <bugggy>:
     d8c:	b580      	push	{r7, lr}
     d8e:	b092      	sub	sp, #72	; 0x48
     d90:	af00      	add	r7, sp, #0
     d92:	2300      	movs	r3, #0
     d94:	647b      	str	r3, [r7, #68]	; 0x44
     d96:	1d3b      	adds	r3, r7, #4
     d98:	2240      	movs	r2, #64	; 0x40
     d9a:	2100      	movs	r1, #0
     d9c:	4618      	mov	r0, r3
     d9e:	f004 fc8f 	bl	56c0 <memset>
     da2:	1d3b      	adds	r3, r7, #4
     da4:	4619      	mov	r1, r3
     da6:	480c      	ldr	r0, [pc, #48]	; (dd8 <bugggy+0x4c>)
     da8:	f003 fa72 	bl	4290 <DbgConsole_Scanf>
     dac:	1d3b      	adds	r3, r7, #4
     dae:	4618      	mov	r0, r3
     db0:	f004 fd9f 	bl	58f2 <strlen>
     db4:	4602      	mov	r2, r0
     db6:	1d39      	adds	r1, r7, #4
     db8:	f107 0344 	add.w	r3, r7, #68	; 0x44
     dbc:	4618      	mov	r0, r3
     dbe:	f004 fc7d 	bl	56bc <memcpy>
     dc2:	f107 0344 	add.w	r3, r7, #68	; 0x44
     dc6:	4619      	mov	r1, r3
     dc8:	4804      	ldr	r0, [pc, #16]	; (ddc <bugggy+0x50>)
     dca:	f7ff fb89 	bl	4e0 <DbgConsole_Printf>
     dce:	2300      	movs	r3, #0
     dd0:	4618      	mov	r0, r3
     dd2:	3748      	adds	r7, #72	; 0x48
     dd4:	46bd      	mov	sp, r7
     dd6:	bd80      	pop	{r7, pc}
     dd8:	00005c00 	.word	0x00005c00
     ddc:	00005c04 	.word	0x00005c04

00000de0 <hello_task>:
     de0:	b580      	push	{r7, lr}
     de2:	b082      	sub	sp, #8
     de4:	af00      	add	r7, sp, #0
     de6:	6078      	str	r0, [r7, #4]
     de8:	4802      	ldr	r0, [pc, #8]	; (df4 <hello_task+0x14>)
     dea:	f7ff fb79 	bl	4e0 <DbgConsole_Printf>
     dee:	f7ff ffcd 	bl	d8c <bugggy>
     df2:	e7f9      	b.n	de8 <hello_task+0x8>
     df4:	00005c10 	.word	0x00005c10

00000df8 <CLOCK_SetEr32kClock>:
     df8:	b480      	push	{r7}
     dfa:	b083      	sub	sp, #12
     dfc:	af00      	add	r7, sp, #0
     dfe:	6078      	str	r0, [r7, #4]
     e00:	4b08      	ldr	r3, [pc, #32]	; (e24 <CLOCK_SetEr32kClock+0x2c>)
     e02:	681b      	ldr	r3, [r3, #0]
     e04:	f423 2240 	bic.w	r2, r3, #786432	; 0xc0000
     e08:	687b      	ldr	r3, [r7, #4]
     e0a:	049b      	lsls	r3, r3, #18
     e0c:	f403 2340 	and.w	r3, r3, #786432	; 0xc0000
     e10:	4904      	ldr	r1, [pc, #16]	; (e24 <CLOCK_SetEr32kClock+0x2c>)
     e12:	4313      	orrs	r3, r2
     e14:	600b      	str	r3, [r1, #0]
     e16:	bf00      	nop
     e18:	370c      	adds	r7, #12
     e1a:	46bd      	mov	sp, r7
     e1c:	f85d 7b04 	ldr.w	r7, [sp], #4
     e20:	4770      	bx	lr
     e22:	bf00      	nop
     e24:	40047000 	.word	0x40047000

00000e28 <CLOCK_SetPllFllSelClock>:
     e28:	b480      	push	{r7}
     e2a:	b085      	sub	sp, #20
     e2c:	af00      	add	r7, sp, #0
     e2e:	60f8      	str	r0, [r7, #12]
     e30:	60b9      	str	r1, [r7, #8]
     e32:	607a      	str	r2, [r7, #4]
     e34:	4b11      	ldr	r3, [pc, #68]	; (e7c <CLOCK_SetPllFllSelClock+0x54>)
     e36:	f503 5380 	add.w	r3, r3, #4096	; 0x1000
     e3a:	3304      	adds	r3, #4
     e3c:	681b      	ldr	r3, [r3, #0]
     e3e:	f423 3240 	bic.w	r2, r3, #196608	; 0x30000
     e42:	68fb      	ldr	r3, [r7, #12]
     e44:	041b      	lsls	r3, r3, #16
     e46:	f403 3340 	and.w	r3, r3, #196608	; 0x30000
     e4a:	490c      	ldr	r1, [pc, #48]	; (e7c <CLOCK_SetPllFllSelClock+0x54>)
     e4c:	431a      	orrs	r2, r3
     e4e:	f501 5380 	add.w	r3, r1, #4096	; 0x1000
     e52:	3304      	adds	r3, #4
     e54:	601a      	str	r2, [r3, #0]
     e56:	68bb      	ldr	r3, [r7, #8]
     e58:	005b      	lsls	r3, r3, #1
     e5a:	f003 020e 	and.w	r2, r3, #14
     e5e:	687b      	ldr	r3, [r7, #4]
     e60:	f003 0301 	and.w	r3, r3, #1
     e64:	4905      	ldr	r1, [pc, #20]	; (e7c <CLOCK_SetPllFllSelClock+0x54>)
     e66:	431a      	orrs	r2, r3
     e68:	f501 5383 	add.w	r3, r1, #4192	; 0x1060
     e6c:	3304      	adds	r3, #4
     e6e:	601a      	str	r2, [r3, #0]
     e70:	bf00      	nop
     e72:	3714      	adds	r7, #20
     e74:	46bd      	mov	sp, r7
     e76:	f85d 7b04 	ldr.w	r7, [sp], #4
     e7a:	4770      	bx	lr
     e7c:	40047000 	.word	0x40047000

00000e80 <CLOCK_GetMcgExtClkFreq>:
     e80:	b580      	push	{r7, lr}
     e82:	b082      	sub	sp, #8
     e84:	af00      	add	r7, sp, #0
     e86:	4b16      	ldr	r3, [pc, #88]	; (ee0 <CLOCK_GetMcgExtClkFreq+0x60>)
     e88:	7b1b      	ldrb	r3, [r3, #12]
     e8a:	b2db      	uxtb	r3, r3
     e8c:	f003 0303 	and.w	r3, r3, #3
     e90:	2b01      	cmp	r3, #1
     e92:	d00f      	beq.n	eb4 <CLOCK_GetMcgExtClkFreq+0x34>
     e94:	2b01      	cmp	r3, #1
     e96:	d302      	bcc.n	e9e <CLOCK_GetMcgExtClkFreq+0x1e>
     e98:	2b02      	cmp	r3, #2
     e9a:	d016      	beq.n	eca <CLOCK_GetMcgExtClkFreq+0x4a>
     e9c:	e018      	b.n	ed0 <CLOCK_GetMcgExtClkFreq+0x50>
     e9e:	4b11      	ldr	r3, [pc, #68]	; (ee4 <CLOCK_GetMcgExtClkFreq+0x64>)
     ea0:	681b      	ldr	r3, [r3, #0]
     ea2:	2b00      	cmp	r3, #0
     ea4:	d102      	bne.n	eac <CLOCK_GetMcgExtClkFreq+0x2c>
     ea6:	4810      	ldr	r0, [pc, #64]	; (ee8 <CLOCK_GetMcgExtClkFreq+0x68>)
     ea8:	f002 ffd8 	bl	3e5c <__assertion_failed>
     eac:	4b0d      	ldr	r3, [pc, #52]	; (ee4 <CLOCK_GetMcgExtClkFreq+0x64>)
     eae:	681b      	ldr	r3, [r3, #0]
     eb0:	607b      	str	r3, [r7, #4]
     eb2:	e010      	b.n	ed6 <CLOCK_GetMcgExtClkFreq+0x56>
     eb4:	4b0d      	ldr	r3, [pc, #52]	; (eec <CLOCK_GetMcgExtClkFreq+0x6c>)
     eb6:	681b      	ldr	r3, [r3, #0]
     eb8:	2b00      	cmp	r3, #0
     eba:	d102      	bne.n	ec2 <CLOCK_GetMcgExtClkFreq+0x42>
     ebc:	480c      	ldr	r0, [pc, #48]	; (ef0 <CLOCK_GetMcgExtClkFreq+0x70>)
     ebe:	f002 ffcd 	bl	3e5c <__assertion_failed>
     ec2:	4b0a      	ldr	r3, [pc, #40]	; (eec <CLOCK_GetMcgExtClkFreq+0x6c>)
     ec4:	681b      	ldr	r3, [r3, #0]
     ec6:	607b      	str	r3, [r7, #4]
     ec8:	e005      	b.n	ed6 <CLOCK_GetMcgExtClkFreq+0x56>
     eca:	4b0a      	ldr	r3, [pc, #40]	; (ef4 <CLOCK_GetMcgExtClkFreq+0x74>)
     ecc:	607b      	str	r3, [r7, #4]
     ece:	e002      	b.n	ed6 <CLOCK_GetMcgExtClkFreq+0x56>
     ed0:	2300      	movs	r3, #0
     ed2:	607b      	str	r3, [r7, #4]
     ed4:	bf00      	nop
     ed6:	687b      	ldr	r3, [r7, #4]
     ed8:	4618      	mov	r0, r3
     eda:	3708      	adds	r7, #8
     edc:	46bd      	mov	sp, r7
     ede:	bd80      	pop	{r7, pc}
     ee0:	40064000 	.word	0x40064000
     ee4:	2000001c 	.word	0x2000001c
     ee8:	00005c1c 	.word	0x00005c1c
     eec:	20000020 	.word	0x20000020
     ef0:	00005c48 	.word	0x00005c48
     ef4:	02dc6c00 	.word	0x02dc6c00

00000ef8 <CLOCK_GetFllExtRefClkFreq>:
     ef8:	b580      	push	{r7, lr}
     efa:	b082      	sub	sp, #8
     efc:	af00      	add	r7, sp, #0
     efe:	f7ff ffbf 	bl	e80 <CLOCK_GetMcgExtClkFreq>
     f02:	6078      	str	r0, [r7, #4]
     f04:	687b      	ldr	r3, [r7, #4]
     f06:	2b00      	cmp	r3, #0
     f08:	d101      	bne.n	f0e <CLOCK_GetFllExtRefClkFreq+0x16>
     f0a:	687b      	ldr	r3, [r7, #4]
     f0c:	e051      	b.n	fb2 <CLOCK_GetFllExtRefClkFreq+0xba>
     f0e:	4b2b      	ldr	r3, [pc, #172]	; (fbc <CLOCK_GetFllExtRefClkFreq+0xc4>)
     f10:	781b      	ldrb	r3, [r3, #0]
     f12:	b2db      	uxtb	r3, r3
     f14:	08db      	lsrs	r3, r3, #3
     f16:	b2db      	uxtb	r3, r3
     f18:	f003 0307 	and.w	r3, r3, #7
     f1c:	70fb      	strb	r3, [r7, #3]
     f1e:	78fb      	ldrb	r3, [r7, #3]
     f20:	687a      	ldr	r2, [r7, #4]
     f22:	fa22 f303 	lsr.w	r3, r2, r3
     f26:	607b      	str	r3, [r7, #4]
     f28:	4b24      	ldr	r3, [pc, #144]	; (fbc <CLOCK_GetFllExtRefClkFreq+0xc4>)
     f2a:	785b      	ldrb	r3, [r3, #1]
     f2c:	b2db      	uxtb	r3, r3
     f2e:	091b      	lsrs	r3, r3, #4
     f30:	b2db      	uxtb	r3, r3
     f32:	f003 0303 	and.w	r3, r3, #3
     f36:	70bb      	strb	r3, [r7, #2]
     f38:	4b20      	ldr	r3, [pc, #128]	; (fbc <CLOCK_GetFllExtRefClkFreq+0xc4>)
     f3a:	7b1b      	ldrb	r3, [r3, #12]
     f3c:	b2db      	uxtb	r3, r3
     f3e:	f003 0303 	and.w	r3, r3, #3
     f42:	707b      	strb	r3, [r7, #1]
     f44:	78bb      	ldrb	r3, [r7, #2]
     f46:	2b00      	cmp	r3, #0
     f48:	d002      	beq.n	f50 <CLOCK_GetFllExtRefClkFreq+0x58>
     f4a:	787b      	ldrb	r3, [r7, #1]
     f4c:	2b00      	cmp	r3, #0
     f4e:	d002      	beq.n	f56 <CLOCK_GetFllExtRefClkFreq+0x5e>
     f50:	787b      	ldrb	r3, [r7, #1]
     f52:	2b02      	cmp	r3, #2
     f54:	d12b      	bne.n	fae <CLOCK_GetFllExtRefClkFreq+0xb6>
     f56:	78fb      	ldrb	r3, [r7, #3]
     f58:	2b07      	cmp	r3, #7
     f5a:	d825      	bhi.n	fa8 <CLOCK_GetFllExtRefClkFreq+0xb0>
     f5c:	a201      	add	r2, pc, #4	; (adr r2, f64 <CLOCK_GetFllExtRefClkFreq+0x6c>)
     f5e:	f852 f023 	ldr.w	pc, [r2, r3, lsl #2]
     f62:	bf00      	nop
     f64:	00000f85 	.word	0x00000f85
     f68:	00000f85 	.word	0x00000f85
     f6c:	00000f85 	.word	0x00000f85
     f70:	00000f85 	.word	0x00000f85
     f74:	00000f85 	.word	0x00000f85
     f78:	00000f85 	.word	0x00000f85
     f7c:	00000f8d 	.word	0x00000f8d
     f80:	00000f9b 	.word	0x00000f9b
     f84:	687b      	ldr	r3, [r7, #4]
     f86:	095b      	lsrs	r3, r3, #5
     f88:	607b      	str	r3, [r7, #4]
     f8a:	e011      	b.n	fb0 <CLOCK_GetFllExtRefClkFreq+0xb8>
     f8c:	687b      	ldr	r3, [r7, #4]
     f8e:	4a0c      	ldr	r2, [pc, #48]	; (fc0 <CLOCK_GetFllExtRefClkFreq+0xc8>)
     f90:	fba2 2303 	umull	r2, r3, r2, r3
     f94:	091b      	lsrs	r3, r3, #4
     f96:	607b      	str	r3, [r7, #4]
     f98:	e00a      	b.n	fb0 <CLOCK_GetFllExtRefClkFreq+0xb8>
     f9a:	687b      	ldr	r3, [r7, #4]
     f9c:	4a09      	ldr	r2, [pc, #36]	; (fc4 <CLOCK_GetFllExtRefClkFreq+0xcc>)
     f9e:	fba2 2303 	umull	r2, r3, r2, r3
     fa2:	08db      	lsrs	r3, r3, #3
     fa4:	607b      	str	r3, [r7, #4]
     fa6:	e003      	b.n	fb0 <CLOCK_GetFllExtRefClkFreq+0xb8>
     fa8:	2300      	movs	r3, #0
     faa:	607b      	str	r3, [r7, #4]
     fac:	e000      	b.n	fb0 <CLOCK_GetFllExtRefClkFreq+0xb8>
     fae:	bf00      	nop
     fb0:	687b      	ldr	r3, [r7, #4]
     fb2:	4618      	mov	r0, r3
     fb4:	3708      	adds	r7, #8
     fb6:	46bd      	mov	sp, r7
     fb8:	bd80      	pop	{r7, pc}
     fba:	bf00      	nop
     fbc:	40064000 	.word	0x40064000
     fc0:	cccccccd 	.word	0xcccccccd
     fc4:	aaaaaaab 	.word	0xaaaaaaab

00000fc8 <CLOCK_GetInternalRefClkSelectFreq>:
     fc8:	b480      	push	{r7}
     fca:	af00      	add	r7, sp, #0
     fcc:	4b0c      	ldr	r3, [pc, #48]	; (1000 <_HeapSize>)
     fce:	799b      	ldrb	r3, [r3, #6]
     fd0:	b2db      	uxtb	r3, r3
     fd2:	f003 0301 	and.w	r3, r3, #1
     fd6:	2b00      	cmp	r3, #0
     fd8:	d102      	bne.n	fe0 <CLOCK_GetInternalRefClkSelectFreq+0x18>
     fda:	4b0a      	ldr	r3, [pc, #40]	; (1004 <_HeapSize+0x4>)
     fdc:	681b      	ldr	r3, [r3, #0]
     fde:	e009      	b.n	ff4 <CLOCK_GetInternalRefClkSelectFreq+0x2c>
     fe0:	4b09      	ldr	r3, [pc, #36]	; (1008 <_HeapSize+0x8>)
     fe2:	681a      	ldr	r2, [r3, #0]
     fe4:	4b06      	ldr	r3, [pc, #24]	; (1000 <_HeapSize>)
     fe6:	7a1b      	ldrb	r3, [r3, #8]
     fe8:	b2db      	uxtb	r3, r3
     fea:	085b      	lsrs	r3, r3, #1
     fec:	f003 0307 	and.w	r3, r3, #7
     ff0:	fa22 f303 	lsr.w	r3, r2, r3
     ff4:	4618      	mov	r0, r3
     ff6:	46bd      	mov	sp, r7
     ff8:	f85d 7b04 	ldr.w	r7, [sp], #4
     ffc:	4770      	bx	lr
     ffe:	bf00      	nop
    1000:	40064000 	.word	0x40064000
    1004:	20000000 	.word	0x20000000
    1008:	20000004 	.word	0x20000004

0000100c <CLOCK_GetFllRefClkFreq>:
    100c:	b580      	push	{r7, lr}
    100e:	af00      	add	r7, sp, #0
    1010:	4b07      	ldr	r3, [pc, #28]	; (1030 <CLOCK_GetFllRefClkFreq+0x24>)
    1012:	799b      	ldrb	r3, [r3, #6]
    1014:	b2db      	uxtb	r3, r3
    1016:	f003 0310 	and.w	r3, r3, #16
    101a:	2b00      	cmp	r3, #0
    101c:	d103      	bne.n	1026 <CLOCK_GetFllRefClkFreq+0x1a>
    101e:	f7ff ff6b 	bl	ef8 <CLOCK_GetFllExtRefClkFreq>
    1022:	4603      	mov	r3, r0
    1024:	e001      	b.n	102a <CLOCK_GetFllRefClkFreq+0x1e>
    1026:	4b03      	ldr	r3, [pc, #12]	; (1034 <CLOCK_GetFllRefClkFreq+0x28>)
    1028:	681b      	ldr	r3, [r3, #0]
    102a:	4618      	mov	r0, r3
    102c:	bd80      	pop	{r7, pc}
    102e:	bf00      	nop
    1030:	40064000 	.word	0x40064000
    1034:	20000000 	.word	0x20000000

00001038 <CLOCK_GetOscRangeFromFreq>:
    1038:	b480      	push	{r7}
    103a:	b085      	sub	sp, #20
    103c:	af00      	add	r7, sp, #0
    103e:	6078      	str	r0, [r7, #4]
    1040:	687b      	ldr	r3, [r7, #4]
    1042:	f649 0297 	movw	r2, #39063	; 0x9897
    1046:	4293      	cmp	r3, r2
    1048:	d802      	bhi.n	1050 <CLOCK_GetOscRangeFromFreq+0x18>
    104a:	2300      	movs	r3, #0
    104c:	73fb      	strb	r3, [r7, #15]
    104e:	e008      	b.n	1062 <CLOCK_GetOscRangeFromFreq+0x2a>
    1050:	687b      	ldr	r3, [r7, #4]
    1052:	4a07      	ldr	r2, [pc, #28]	; (1070 <CLOCK_GetOscRangeFromFreq+0x38>)
    1054:	4293      	cmp	r3, r2
    1056:	d802      	bhi.n	105e <CLOCK_GetOscRangeFromFreq+0x26>
    1058:	2301      	movs	r3, #1
    105a:	73fb      	strb	r3, [r7, #15]
    105c:	e001      	b.n	1062 <CLOCK_GetOscRangeFromFreq+0x2a>
    105e:	2302      	movs	r3, #2
    1060:	73fb      	strb	r3, [r7, #15]
    1062:	7bfb      	ldrb	r3, [r7, #15]
    1064:	4618      	mov	r0, r3
    1066:	3714      	adds	r7, #20
    1068:	46bd      	mov	sp, r7
    106a:	f85d 7b04 	ldr.w	r7, [sp], #4
    106e:	4770      	bx	lr
    1070:	007a1200 	.word	0x007a1200

00001074 <CLOCK_GetCoreSysClkFreq>:
    1074:	b580      	push	{r7, lr}
    1076:	af00      	add	r7, sp, #0
    1078:	f000 f832 	bl	10e0 <CLOCK_GetOutClkFreq>
    107c:	4602      	mov	r2, r0
    107e:	4b06      	ldr	r3, [pc, #24]	; (1098 <CLOCK_GetCoreSysClkFreq+0x24>)
    1080:	f503 5382 	add.w	r3, r3, #4160	; 0x1040
    1084:	3304      	adds	r3, #4
    1086:	681b      	ldr	r3, [r3, #0]
    1088:	0f1b      	lsrs	r3, r3, #28
    108a:	f003 030f 	and.w	r3, r3, #15
    108e:	3301      	adds	r3, #1
    1090:	fbb2 f3f3 	udiv	r3, r2, r3
    1094:	4618      	mov	r0, r3
    1096:	bd80      	pop	{r7, pc}
    1098:	40047000 	.word	0x40047000

0000109c <CLOCK_SetSimConfig>:
    109c:	b580      	push	{r7, lr}
    109e:	b082      	sub	sp, #8
    10a0:	af00      	add	r7, sp, #0
    10a2:	6078      	str	r0, [r7, #4]
    10a4:	490d      	ldr	r1, [pc, #52]	; (10dc <CLOCK_SetSimConfig+0x40>)
    10a6:	687b      	ldr	r3, [r7, #4]
    10a8:	685a      	ldr	r2, [r3, #4]
    10aa:	f501 5382 	add.w	r3, r1, #4160	; 0x1040
    10ae:	3304      	adds	r3, #4
    10b0:	601a      	str	r2, [r3, #0]
    10b2:	687b      	ldr	r3, [r7, #4]
    10b4:	781b      	ldrb	r3, [r3, #0]
    10b6:	4618      	mov	r0, r3
    10b8:	687b      	ldr	r3, [r7, #4]
    10ba:	785b      	ldrb	r3, [r3, #1]
    10bc:	4619      	mov	r1, r3
    10be:	687b      	ldr	r3, [r7, #4]
    10c0:	789b      	ldrb	r3, [r3, #2]
    10c2:	461a      	mov	r2, r3
    10c4:	f7ff feb0 	bl	e28 <CLOCK_SetPllFllSelClock>
    10c8:	687b      	ldr	r3, [r7, #4]
    10ca:	78db      	ldrb	r3, [r3, #3]
    10cc:	4618      	mov	r0, r3
    10ce:	f7ff fe93 	bl	df8 <CLOCK_SetEr32kClock>
    10d2:	bf00      	nop
    10d4:	3708      	adds	r7, #8
    10d6:	46bd      	mov	sp, r7
    10d8:	bd80      	pop	{r7, pc}
    10da:	bf00      	nop
    10dc:	40047000 	.word	0x40047000

000010e0 <CLOCK_GetOutClkFreq>:
    10e0:	b580      	push	{r7, lr}
    10e2:	b084      	sub	sp, #16
    10e4:	af00      	add	r7, sp, #0
    10e6:	4b21      	ldr	r3, [pc, #132]	; (116c <CLOCK_GetOutClkFreq+0x8c>)
    10e8:	799b      	ldrb	r3, [r3, #6]
    10ea:	b2db      	uxtb	r3, r3
    10ec:	089b      	lsrs	r3, r3, #2
    10ee:	f003 0303 	and.w	r3, r3, #3
    10f2:	60bb      	str	r3, [r7, #8]
    10f4:	4b1d      	ldr	r3, [pc, #116]	; (116c <CLOCK_GetOutClkFreq+0x8c>)
    10f6:	7c9b      	ldrb	r3, [r3, #18]
    10f8:	b2db      	uxtb	r3, r3
    10fa:	091b      	lsrs	r3, r3, #4
    10fc:	f003 0301 	and.w	r3, r3, #1
    1100:	607b      	str	r3, [r7, #4]
    1102:	68bb      	ldr	r3, [r7, #8]
    1104:	2b03      	cmp	r3, #3
    1106:	d828      	bhi.n	115a <CLOCK_GetOutClkFreq+0x7a>
    1108:	a201      	add	r2, pc, #4	; (adr r2, 1110 <CLOCK_GetOutClkFreq+0x30>)
    110a:	f852 f023 	ldr.w	pc, [r2, r3, lsl #2]
    110e:	bf00      	nop
    1110:	00001143 	.word	0x00001143
    1114:	0000114b 	.word	0x0000114b
    1118:	00001153 	.word	0x00001153
    111c:	00001121 	.word	0x00001121
    1120:	687b      	ldr	r3, [r7, #4]
    1122:	2b00      	cmp	r3, #0
    1124:	d005      	beq.n	1132 <CLOCK_GetOutClkFreq+0x52>
    1126:	2b01      	cmp	r3, #1
    1128:	d107      	bne.n	113a <CLOCK_GetOutClkFreq+0x5a>
    112a:	f000 f895 	bl	1258 <CLOCK_GetExtPllFreq>
    112e:	60f8      	str	r0, [r7, #12]
    1130:	e006      	b.n	1140 <CLOCK_GetOutClkFreq+0x60>
    1132:	f000 f85b 	bl	11ec <CLOCK_GetPll0Freq>
    1136:	60f8      	str	r0, [r7, #12]
    1138:	e002      	b.n	1140 <CLOCK_GetOutClkFreq+0x60>
    113a:	2300      	movs	r3, #0
    113c:	60fb      	str	r3, [r7, #12]
    113e:	bf00      	nop
    1140:	e00e      	b.n	1160 <CLOCK_GetOutClkFreq+0x80>
    1142:	f000 f815 	bl	1170 <CLOCK_GetFllFreq>
    1146:	60f8      	str	r0, [r7, #12]
    1148:	e00a      	b.n	1160 <CLOCK_GetOutClkFreq+0x80>
    114a:	f7ff ff3d 	bl	fc8 <CLOCK_GetInternalRefClkSelectFreq>
    114e:	60f8      	str	r0, [r7, #12]
    1150:	e006      	b.n	1160 <CLOCK_GetOutClkFreq+0x80>
    1152:	f7ff fe95 	bl	e80 <CLOCK_GetMcgExtClkFreq>
    1156:	60f8      	str	r0, [r7, #12]
    1158:	e002      	b.n	1160 <CLOCK_GetOutClkFreq+0x80>
    115a:	2300      	movs	r3, #0
    115c:	60fb      	str	r3, [r7, #12]
    115e:	bf00      	nop
    1160:	68fb      	ldr	r3, [r7, #12]
    1162:	4618      	mov	r0, r3
    1164:	3710      	adds	r7, #16
    1166:	46bd      	mov	sp, r7
    1168:	bd80      	pop	{r7, pc}
    116a:	bf00      	nop
    116c:	40064000 	.word	0x40064000

00001170 <CLOCK_GetFllFreq>:
    1170:	b580      	push	{r7, lr}
    1172:	b082      	sub	sp, #8
    1174:	af00      	add	r7, sp, #0
    1176:	4b1b      	ldr	r3, [pc, #108]	; (11e4 <CLOCK_GetFllFreq+0x74>)
    1178:	785b      	ldrb	r3, [r3, #1]
    117a:	b2db      	uxtb	r3, r3
    117c:	f003 0302 	and.w	r3, r3, #2
    1180:	2b00      	cmp	r3, #0
    1182:	d106      	bne.n	1192 <CLOCK_GetFllFreq+0x22>
    1184:	4b17      	ldr	r3, [pc, #92]	; (11e4 <CLOCK_GetFllFreq+0x74>)
    1186:	799b      	ldrb	r3, [r3, #6]
    1188:	b2db      	uxtb	r3, r3
    118a:	f003 0320 	and.w	r3, r3, #32
    118e:	2b00      	cmp	r3, #0
    1190:	d001      	beq.n	1196 <CLOCK_GetFllFreq+0x26>
    1192:	2300      	movs	r3, #0
    1194:	e022      	b.n	11dc <CLOCK_GetFllFreq+0x6c>
    1196:	f7ff ff39 	bl	100c <CLOCK_GetFllRefClkFreq>
    119a:	6078      	str	r0, [r7, #4]
    119c:	687b      	ldr	r3, [r7, #4]
    119e:	2b00      	cmp	r3, #0
    11a0:	d101      	bne.n	11a6 <CLOCK_GetFllFreq+0x36>
    11a2:	687b      	ldr	r3, [r7, #4]
    11a4:	e01a      	b.n	11dc <CLOCK_GetFllFreq+0x6c>
    11a6:	4b0f      	ldr	r3, [pc, #60]	; (11e4 <CLOCK_GetFllFreq+0x74>)
    11a8:	78db      	ldrb	r3, [r3, #3]
    11aa:	b2db      	uxtb	r3, r3
    11ac:	095b      	lsrs	r3, r3, #5
    11ae:	b2db      	uxtb	r3, r3
    11b0:	f003 0303 	and.w	r3, r3, #3
    11b4:	70fb      	strb	r3, [r7, #3]
    11b6:	4b0b      	ldr	r3, [pc, #44]	; (11e4 <CLOCK_GetFllFreq+0x74>)
    11b8:	78db      	ldrb	r3, [r3, #3]
    11ba:	b2db      	uxtb	r3, r3
    11bc:	09db      	lsrs	r3, r3, #7
    11be:	b2db      	uxtb	r3, r3
    11c0:	f003 0301 	and.w	r3, r3, #1
    11c4:	70bb      	strb	r3, [r7, #2]
    11c6:	78fa      	ldrb	r2, [r7, #3]
    11c8:	78bb      	ldrb	r3, [r7, #2]
    11ca:	4907      	ldr	r1, [pc, #28]	; (11e8 <CLOCK_GetFllFreq+0x78>)
    11cc:	0052      	lsls	r2, r2, #1
    11ce:	4413      	add	r3, r2
    11d0:	f831 3013 	ldrh.w	r3, [r1, r3, lsl #1]
    11d4:	461a      	mov	r2, r3
    11d6:	687b      	ldr	r3, [r7, #4]
    11d8:	fb03 f302 	mul.w	r3, r3, r2
    11dc:	4618      	mov	r0, r3
    11de:	3708      	adds	r7, #8
    11e0:	46bd      	mov	sp, r7
    11e2:	bd80      	pop	{r7, pc}
    11e4:	40064000 	.word	0x40064000
    11e8:	00005ec0 	.word	0x00005ec0

000011ec <CLOCK_GetPll0Freq>:
    11ec:	b580      	push	{r7, lr}
    11ee:	b082      	sub	sp, #8
    11f0:	af00      	add	r7, sp, #0
    11f2:	4b17      	ldr	r3, [pc, #92]	; (1250 <CLOCK_GetPll0Freq+0x64>)
    11f4:	799b      	ldrb	r3, [r3, #6]
    11f6:	b2db      	uxtb	r3, r3
    11f8:	f003 0340 	and.w	r3, r3, #64	; 0x40
    11fc:	2b00      	cmp	r3, #0
    11fe:	d101      	bne.n	1204 <CLOCK_GetPll0Freq+0x18>
    1200:	2300      	movs	r3, #0
    1202:	e021      	b.n	1248 <CLOCK_GetPll0Freq+0x5c>
    1204:	f003 fd7d 	bl	4d02 <CLOCK_GetPll0RefFreq>
    1208:	6078      	str	r0, [r7, #4]
    120a:	687b      	ldr	r3, [r7, #4]
    120c:	2b00      	cmp	r3, #0
    120e:	d102      	bne.n	1216 <CLOCK_GetPll0Freq+0x2a>
    1210:	4810      	ldr	r0, [pc, #64]	; (1254 <CLOCK_GetPll0Freq+0x68>)
    1212:	f002 fe23 	bl	3e5c <__assertion_failed>
    1216:	4b0e      	ldr	r3, [pc, #56]	; (1250 <CLOCK_GetPll0Freq+0x64>)
    1218:	791b      	ldrb	r3, [r3, #4]
    121a:	b2db      	uxtb	r3, r3
    121c:	f003 0307 	and.w	r3, r3, #7
    1220:	3301      	adds	r3, #1
    1222:	687a      	ldr	r2, [r7, #4]
    1224:	fbb2 f3f3 	udiv	r3, r2, r3
    1228:	607b      	str	r3, [r7, #4]
    122a:	4b09      	ldr	r3, [pc, #36]	; (1250 <CLOCK_GetPll0Freq+0x64>)
    122c:	795b      	ldrb	r3, [r3, #5]
    122e:	b2db      	uxtb	r3, r3
    1230:	f003 031f 	and.w	r3, r3, #31
    1234:	f103 0210 	add.w	r2, r3, #16
    1238:	687b      	ldr	r3, [r7, #4]
    123a:	fb02 f303 	mul.w	r3, r2, r3
    123e:	607b      	str	r3, [r7, #4]
    1240:	687b      	ldr	r3, [r7, #4]
    1242:	085b      	lsrs	r3, r3, #1
    1244:	607b      	str	r3, [r7, #4]
    1246:	687b      	ldr	r3, [r7, #4]
    1248:	4618      	mov	r0, r3
    124a:	3708      	adds	r7, #8
    124c:	46bd      	mov	sp, r7
    124e:	bd80      	pop	{r7, pc}
    1250:	40064000 	.word	0x40064000
    1254:	00005e20 	.word	0x00005e20

00001258 <CLOCK_GetExtPllFreq>:
    1258:	b480      	push	{r7}
    125a:	af00      	add	r7, sp, #0
    125c:	4b03      	ldr	r3, [pc, #12]	; (126c <CLOCK_GetExtPllFreq+0x14>)
    125e:	681b      	ldr	r3, [r3, #0]
    1260:	4618      	mov	r0, r3
    1262:	46bd      	mov	sp, r7
    1264:	f85d 7b04 	ldr.w	r7, [sp], #4
    1268:	4770      	bx	lr
    126a:	bf00      	nop
    126c:	20000018 	.word	0x20000018

00001270 <CLOCK_SetExternalRefClkConfig>:
    1270:	b480      	push	{r7}
    1272:	b085      	sub	sp, #20
    1274:	af00      	add	r7, sp, #0
    1276:	4603      	mov	r3, r0
    1278:	71fb      	strb	r3, [r7, #7]
    127a:	4b17      	ldr	r3, [pc, #92]	; (12d8 <CLOCK_SetExternalRefClkConfig+0x68>)
    127c:	7b1b      	ldrb	r3, [r3, #12]
    127e:	b2db      	uxtb	r3, r3
    1280:	f003 0203 	and.w	r2, r3, #3
    1284:	79fb      	ldrb	r3, [r7, #7]
    1286:	429a      	cmp	r2, r3
    1288:	d002      	beq.n	1290 <CLOCK_SetExternalRefClkConfig+0x20>
    128a:	2301      	movs	r3, #1
    128c:	73fb      	strb	r3, [r7, #15]
    128e:	e001      	b.n	1294 <CLOCK_SetExternalRefClkConfig+0x24>
    1290:	2300      	movs	r3, #0
    1292:	73fb      	strb	r3, [r7, #15]
    1294:	4b10      	ldr	r3, [pc, #64]	; (12d8 <CLOCK_SetExternalRefClkConfig+0x68>)
    1296:	7b1b      	ldrb	r3, [r3, #12]
    1298:	b2db      	uxtb	r3, r3
    129a:	f023 0303 	bic.w	r3, r3, #3
    129e:	b2da      	uxtb	r2, r3
    12a0:	79fb      	ldrb	r3, [r7, #7]
    12a2:	f003 0303 	and.w	r3, r3, #3
    12a6:	b2db      	uxtb	r3, r3
    12a8:	490b      	ldr	r1, [pc, #44]	; (12d8 <CLOCK_SetExternalRefClkConfig+0x68>)
    12aa:	4313      	orrs	r3, r2
    12ac:	b2db      	uxtb	r3, r3
    12ae:	730b      	strb	r3, [r1, #12]
    12b0:	7bfb      	ldrb	r3, [r7, #15]
    12b2:	2b00      	cmp	r3, #0
    12b4:	d009      	beq.n	12ca <CLOCK_SetExternalRefClkConfig+0x5a>
    12b6:	f240 53dc 	movw	r3, #1500	; 0x5dc
    12ba:	60bb      	str	r3, [r7, #8]
    12bc:	e000      	b.n	12c0 <CLOCK_SetExternalRefClkConfig+0x50>
    12be:	bf00      	nop
    12c0:	68bb      	ldr	r3, [r7, #8]
    12c2:	1e5a      	subs	r2, r3, #1
    12c4:	60ba      	str	r2, [r7, #8]
    12c6:	2b00      	cmp	r3, #0
    12c8:	d1f9      	bne.n	12be <CLOCK_SetExternalRefClkConfig+0x4e>
    12ca:	2300      	movs	r3, #0
    12cc:	4618      	mov	r0, r3
    12ce:	3714      	adds	r7, #20
    12d0:	46bd      	mov	sp, r7
    12d2:	f85d 7b04 	ldr.w	r7, [sp], #4
    12d6:	4770      	bx	lr
    12d8:	40064000 	.word	0x40064000

000012dc <CLOCK_SetInternalRefClkConfig>:
    12dc:	b480      	push	{r7}
    12de:	b085      	sub	sp, #20
    12e0:	af00      	add	r7, sp, #0
    12e2:	4603      	mov	r3, r0
    12e4:	71fb      	strb	r3, [r7, #7]
    12e6:	460b      	mov	r3, r1
    12e8:	71bb      	strb	r3, [r7, #6]
    12ea:	4613      	mov	r3, r2
    12ec:	717b      	strb	r3, [r7, #5]
    12ee:	4b3b      	ldr	r3, [pc, #236]	; (13dc <CLOCK_SetInternalRefClkConfig+0x100>)
    12f0:	799b      	ldrb	r3, [r3, #6]
    12f2:	b2db      	uxtb	r3, r3
    12f4:	089b      	lsrs	r3, r3, #2
    12f6:	f003 0303 	and.w	r3, r3, #3
    12fa:	60fb      	str	r3, [r7, #12]
    12fc:	4b37      	ldr	r3, [pc, #220]	; (13dc <CLOCK_SetInternalRefClkConfig+0x100>)
    12fe:	799b      	ldrb	r3, [r3, #6]
    1300:	b2db      	uxtb	r3, r3
    1302:	f003 0301 	and.w	r3, r3, #1
    1306:	72fb      	strb	r3, [r7, #11]
    1308:	4b34      	ldr	r3, [pc, #208]	; (13dc <CLOCK_SetInternalRefClkConfig+0x100>)
    130a:	7a1b      	ldrb	r3, [r3, #8]
    130c:	b2db      	uxtb	r3, r3
    130e:	085b      	lsrs	r3, r3, #1
    1310:	b2db      	uxtb	r3, r3
    1312:	f003 0307 	and.w	r3, r3, #7
    1316:	72bb      	strb	r3, [r7, #10]
    1318:	797a      	ldrb	r2, [r7, #5]
    131a:	7abb      	ldrb	r3, [r7, #10]
    131c:	429a      	cmp	r2, r3
    131e:	d02c      	beq.n	137a <CLOCK_SetInternalRefClkConfig+0x9e>
    1320:	7afb      	ldrb	r3, [r7, #11]
    1322:	2b01      	cmp	r3, #1
    1324:	d119      	bne.n	135a <CLOCK_SetInternalRefClkConfig+0x7e>
    1326:	68fb      	ldr	r3, [r7, #12]
    1328:	2b01      	cmp	r3, #1
    132a:	d006      	beq.n	133a <CLOCK_SetInternalRefClkConfig+0x5e>
    132c:	4b2b      	ldr	r3, [pc, #172]	; (13dc <CLOCK_SetInternalRefClkConfig+0x100>)
    132e:	781b      	ldrb	r3, [r3, #0]
    1330:	b2db      	uxtb	r3, r3
    1332:	f003 0302 	and.w	r3, r3, #2
    1336:	2b00      	cmp	r3, #0
    1338:	d00f      	beq.n	135a <CLOCK_SetInternalRefClkConfig+0x7e>
    133a:	4b28      	ldr	r3, [pc, #160]	; (13dc <CLOCK_SetInternalRefClkConfig+0x100>)
    133c:	785b      	ldrb	r3, [r3, #1]
    133e:	b2db      	uxtb	r3, r3
    1340:	4a26      	ldr	r2, [pc, #152]	; (13dc <CLOCK_SetInternalRefClkConfig+0x100>)
    1342:	f023 0301 	bic.w	r3, r3, #1
    1346:	b2db      	uxtb	r3, r3
    1348:	7053      	strb	r3, [r2, #1]
    134a:	bf00      	nop
    134c:	4b23      	ldr	r3, [pc, #140]	; (13dc <CLOCK_SetInternalRefClkConfig+0x100>)
    134e:	799b      	ldrb	r3, [r3, #6]
    1350:	b2db      	uxtb	r3, r3
    1352:	f003 0301 	and.w	r3, r3, #1
    1356:	2b00      	cmp	r3, #0
    1358:	d1f8      	bne.n	134c <CLOCK_SetInternalRefClkConfig+0x70>
    135a:	4b20      	ldr	r3, [pc, #128]	; (13dc <CLOCK_SetInternalRefClkConfig+0x100>)
    135c:	7a1b      	ldrb	r3, [r3, #8]
    135e:	b2db      	uxtb	r3, r3
    1360:	f023 032f 	bic.w	r3, r3, #47	; 0x2f
    1364:	b2da      	uxtb	r2, r3
    1366:	797b      	ldrb	r3, [r7, #5]
    1368:	005b      	lsls	r3, r3, #1
    136a:	b2db      	uxtb	r3, r3
    136c:	f003 030e 	and.w	r3, r3, #14
    1370:	b2db      	uxtb	r3, r3
    1372:	491a      	ldr	r1, [pc, #104]	; (13dc <CLOCK_SetInternalRefClkConfig+0x100>)
    1374:	4313      	orrs	r3, r2
    1376:	b2db      	uxtb	r3, r3
    1378:	720b      	strb	r3, [r1, #8]
    137a:	4b18      	ldr	r3, [pc, #96]	; (13dc <CLOCK_SetInternalRefClkConfig+0x100>)
    137c:	785b      	ldrb	r3, [r3, #1]
    137e:	b2db      	uxtb	r3, r3
    1380:	f023 0301 	bic.w	r3, r3, #1
    1384:	b2da      	uxtb	r2, r3
    1386:	79bb      	ldrb	r3, [r7, #6]
    1388:	f003 0301 	and.w	r3, r3, #1
    138c:	b2db      	uxtb	r3, r3
    138e:	4913      	ldr	r1, [pc, #76]	; (13dc <CLOCK_SetInternalRefClkConfig+0x100>)
    1390:	4313      	orrs	r3, r2
    1392:	b2db      	uxtb	r3, r3
    1394:	704b      	strb	r3, [r1, #1]
    1396:	4b11      	ldr	r3, [pc, #68]	; (13dc <CLOCK_SetInternalRefClkConfig+0x100>)
    1398:	781b      	ldrb	r3, [r3, #0]
    139a:	b2db      	uxtb	r3, r3
    139c:	f023 0303 	bic.w	r3, r3, #3
    13a0:	b2da      	uxtb	r2, r3
    13a2:	490e      	ldr	r1, [pc, #56]	; (13dc <CLOCK_SetInternalRefClkConfig+0x100>)
    13a4:	79fb      	ldrb	r3, [r7, #7]
    13a6:	4313      	orrs	r3, r2
    13a8:	b2db      	uxtb	r3, r3
    13aa:	700b      	strb	r3, [r1, #0]
    13ac:	68fb      	ldr	r3, [r7, #12]
    13ae:	2b01      	cmp	r3, #1
    13b0:	d004      	beq.n	13bc <CLOCK_SetInternalRefClkConfig+0xe0>
    13b2:	79fb      	ldrb	r3, [r7, #7]
    13b4:	f003 0302 	and.w	r3, r3, #2
    13b8:	2b00      	cmp	r3, #0
    13ba:	d008      	beq.n	13ce <CLOCK_SetInternalRefClkConfig+0xf2>
    13bc:	bf00      	nop
    13be:	4b07      	ldr	r3, [pc, #28]	; (13dc <CLOCK_SetInternalRefClkConfig+0x100>)
    13c0:	799b      	ldrb	r3, [r3, #6]
    13c2:	b2db      	uxtb	r3, r3
    13c4:	f003 0201 	and.w	r2, r3, #1
    13c8:	79bb      	ldrb	r3, [r7, #6]
    13ca:	429a      	cmp	r2, r3
    13cc:	d1f7      	bne.n	13be <CLOCK_SetInternalRefClkConfig+0xe2>
    13ce:	2300      	movs	r3, #0
    13d0:	4618      	mov	r0, r3
    13d2:	3714      	adds	r7, #20
    13d4:	46bd      	mov	sp, r7
    13d6:	f85d 7b04 	ldr.w	r7, [sp], #4
    13da:	4770      	bx	lr
    13dc:	40064000 	.word	0x40064000

000013e0 <CLOCK_EnablePll0>:
    13e0:	b580      	push	{r7, lr}
    13e2:	b084      	sub	sp, #16
    13e4:	af00      	add	r7, sp, #0
    13e6:	6078      	str	r0, [r7, #4]
    13e8:	687b      	ldr	r3, [r7, #4]
    13ea:	2b00      	cmp	r3, #0
    13ec:	d102      	bne.n	13f4 <CLOCK_EnablePll0+0x14>
    13ee:	481b      	ldr	r0, [pc, #108]	; (145c <CLOCK_EnablePll0+0x7c>)
    13f0:	f002 fd34 	bl	3e5c <__assertion_failed>
    13f4:	2300      	movs	r3, #0
    13f6:	73fb      	strb	r3, [r7, #15]
    13f8:	687b      	ldr	r3, [r7, #4]
    13fa:	785b      	ldrb	r3, [r3, #1]
    13fc:	f003 0307 	and.w	r3, r3, #7
    1400:	b2da      	uxtb	r2, r3
    1402:	7bfb      	ldrb	r3, [r7, #15]
    1404:	4313      	orrs	r3, r2
    1406:	73fb      	strb	r3, [r7, #15]
    1408:	4a15      	ldr	r2, [pc, #84]	; (1460 <CLOCK_EnablePll0+0x80>)
    140a:	7bfb      	ldrb	r3, [r7, #15]
    140c:	7113      	strb	r3, [r2, #4]
    140e:	4b14      	ldr	r3, [pc, #80]	; (1460 <CLOCK_EnablePll0+0x80>)
    1410:	795b      	ldrb	r3, [r3, #5]
    1412:	b2db      	uxtb	r3, r3
    1414:	f023 031f 	bic.w	r3, r3, #31
    1418:	b2da      	uxtb	r2, r3
    141a:	687b      	ldr	r3, [r7, #4]
    141c:	789b      	ldrb	r3, [r3, #2]
    141e:	f003 031f 	and.w	r3, r3, #31
    1422:	b2db      	uxtb	r3, r3
    1424:	490e      	ldr	r1, [pc, #56]	; (1460 <CLOCK_EnablePll0+0x80>)
    1426:	4313      	orrs	r3, r2
    1428:	b2db      	uxtb	r3, r3
    142a:	714b      	strb	r3, [r1, #5]
    142c:	4b0c      	ldr	r3, [pc, #48]	; (1460 <CLOCK_EnablePll0+0x80>)
    142e:	791b      	ldrb	r3, [r3, #4]
    1430:	b2da      	uxtb	r2, r3
    1432:	687b      	ldr	r3, [r7, #4]
    1434:	781b      	ldrb	r3, [r3, #0]
    1436:	4313      	orrs	r3, r2
    1438:	b2db      	uxtb	r3, r3
    143a:	4a09      	ldr	r2, [pc, #36]	; (1460 <CLOCK_EnablePll0+0x80>)
    143c:	f043 0340 	orr.w	r3, r3, #64	; 0x40
    1440:	b2db      	uxtb	r3, r3
    1442:	7113      	strb	r3, [r2, #4]
    1444:	bf00      	nop
    1446:	4b06      	ldr	r3, [pc, #24]	; (1460 <CLOCK_EnablePll0+0x80>)
    1448:	799b      	ldrb	r3, [r3, #6]
    144a:	b2db      	uxtb	r3, r3
    144c:	f003 0340 	and.w	r3, r3, #64	; 0x40
    1450:	2b00      	cmp	r3, #0
    1452:	d0f8      	beq.n	1446 <CLOCK_EnablePll0+0x66>
    1454:	bf00      	nop
    1456:	3710      	adds	r7, #16
    1458:	46bd      	mov	sp, r7
    145a:	bd80      	pop	{r7, pc}
    145c:	00005e48 	.word	0x00005e48
    1460:	40064000 	.word	0x40064000

00001464 <CLOCK_InitOsc0>:
    1464:	b580      	push	{r7, lr}
    1466:	b084      	sub	sp, #16
    1468:	af00      	add	r7, sp, #0
    146a:	6078      	str	r0, [r7, #4]
    146c:	687b      	ldr	r3, [r7, #4]
    146e:	681b      	ldr	r3, [r3, #0]
    1470:	4618      	mov	r0, r3
    1472:	f7ff fde1 	bl	1038 <CLOCK_GetOscRangeFromFreq>
    1476:	4603      	mov	r3, r0
    1478:	73fb      	strb	r3, [r7, #15]
    147a:	687b      	ldr	r3, [r7, #4]
    147c:	791b      	ldrb	r3, [r3, #4]
    147e:	4619      	mov	r1, r3
    1480:	4819      	ldr	r0, [pc, #100]	; (14e8 <CLOCK_InitOsc0+0x84>)
    1482:	f003 fc24 	bl	4cce <OSC_SetCapLoad>
    1486:	687b      	ldr	r3, [r7, #4]
    1488:	3306      	adds	r3, #6
    148a:	4619      	mov	r1, r3
    148c:	4816      	ldr	r0, [pc, #88]	; (14e8 <CLOCK_InitOsc0+0x84>)
    148e:	f003 fbfe 	bl	4c8e <OSC_SetExtRefClkConfig>
    1492:	4b16      	ldr	r3, [pc, #88]	; (14ec <CLOCK_InitOsc0+0x88>)
    1494:	785b      	ldrb	r3, [r3, #1]
    1496:	b2db      	uxtb	r3, r3
    1498:	f023 033c 	bic.w	r3, r3, #60	; 0x3c
    149c:	b2da      	uxtb	r2, r3
    149e:	7bfb      	ldrb	r3, [r7, #15]
    14a0:	011b      	lsls	r3, r3, #4
    14a2:	b2db      	uxtb	r3, r3
    14a4:	f003 0330 	and.w	r3, r3, #48	; 0x30
    14a8:	b2db      	uxtb	r3, r3
    14aa:	4313      	orrs	r3, r2
    14ac:	b2da      	uxtb	r2, r3
    14ae:	687b      	ldr	r3, [r7, #4]
    14b0:	795b      	ldrb	r3, [r3, #5]
    14b2:	490e      	ldr	r1, [pc, #56]	; (14ec <CLOCK_InitOsc0+0x88>)
    14b4:	4313      	orrs	r3, r2
    14b6:	b2db      	uxtb	r3, r3
    14b8:	704b      	strb	r3, [r1, #1]
    14ba:	687b      	ldr	r3, [r7, #4]
    14bc:	795b      	ldrb	r3, [r3, #5]
    14be:	2b00      	cmp	r3, #0
    14c0:	d00d      	beq.n	14de <CLOCK_InitOsc0+0x7a>
    14c2:	4b09      	ldr	r3, [pc, #36]	; (14e8 <CLOCK_InitOsc0+0x84>)
    14c4:	781b      	ldrb	r3, [r3, #0]
    14c6:	b2db      	uxtb	r3, r3
    14c8:	b25b      	sxtb	r3, r3
    14ca:	2b00      	cmp	r3, #0
    14cc:	da07      	bge.n	14de <CLOCK_InitOsc0+0x7a>
    14ce:	bf00      	nop
    14d0:	4b06      	ldr	r3, [pc, #24]	; (14ec <CLOCK_InitOsc0+0x88>)
    14d2:	799b      	ldrb	r3, [r3, #6]
    14d4:	b2db      	uxtb	r3, r3
    14d6:	f003 0302 	and.w	r3, r3, #2
    14da:	2b00      	cmp	r3, #0
    14dc:	d0f8      	beq.n	14d0 <CLOCK_InitOsc0+0x6c>
    14de:	bf00      	nop
    14e0:	3710      	adds	r7, #16
    14e2:	46bd      	mov	sp, r7
    14e4:	bd80      	pop	{r7, pc}
    14e6:	bf00      	nop
    14e8:	40065000 	.word	0x40065000
    14ec:	40064000 	.word	0x40064000

000014f0 <CLOCK_SetPbeMode>:
    14f0:	b580      	push	{r7, lr}
    14f2:	b082      	sub	sp, #8
    14f4:	af00      	add	r7, sp, #0
    14f6:	4603      	mov	r3, r0
    14f8:	6039      	str	r1, [r7, #0]
    14fa:	71fb      	strb	r3, [r7, #7]
    14fc:	79fb      	ldrb	r3, [r7, #7]
    14fe:	2b01      	cmp	r3, #1
    1500:	d005      	beq.n	150e <CLOCK_SetPbeMode+0x1e>
    1502:	683b      	ldr	r3, [r7, #0]
    1504:	2b00      	cmp	r3, #0
    1506:	d102      	bne.n	150e <CLOCK_SetPbeMode+0x1e>
    1508:	4831      	ldr	r0, [pc, #196]	; (15d0 <CLOCK_SetPbeMode+0xe0>)
    150a:	f002 fca7 	bl	3e5c <__assertion_failed>
    150e:	4b31      	ldr	r3, [pc, #196]	; (15d4 <CLOCK_SetPbeMode+0xe4>)
    1510:	785b      	ldrb	r3, [r3, #1]
    1512:	b2db      	uxtb	r3, r3
    1514:	4a2f      	ldr	r2, [pc, #188]	; (15d4 <CLOCK_SetPbeMode+0xe4>)
    1516:	f023 0302 	bic.w	r3, r3, #2
    151a:	b2db      	uxtb	r3, r3
    151c:	7053      	strb	r3, [r2, #1]
    151e:	4b2d      	ldr	r3, [pc, #180]	; (15d4 <CLOCK_SetPbeMode+0xe4>)
    1520:	781b      	ldrb	r3, [r3, #0]
    1522:	b2db      	uxtb	r3, r3
    1524:	f003 033b 	and.w	r3, r3, #59	; 0x3b
    1528:	b2db      	uxtb	r3, r3
    152a:	4a2a      	ldr	r2, [pc, #168]	; (15d4 <CLOCK_SetPbeMode+0xe4>)
    152c:	f063 037f 	orn	r3, r3, #127	; 0x7f
    1530:	b2db      	uxtb	r3, r3
    1532:	7013      	strb	r3, [r2, #0]
    1534:	bf00      	nop
    1536:	4b27      	ldr	r3, [pc, #156]	; (15d4 <CLOCK_SetPbeMode+0xe4>)
    1538:	799b      	ldrb	r3, [r3, #6]
    153a:	b2db      	uxtb	r3, r3
    153c:	f003 031c 	and.w	r3, r3, #28
    1540:	2b08      	cmp	r3, #8
    1542:	d1f8      	bne.n	1536 <CLOCK_SetPbeMode+0x46>
    1544:	4b23      	ldr	r3, [pc, #140]	; (15d4 <CLOCK_SetPbeMode+0xe4>)
    1546:	795b      	ldrb	r3, [r3, #5]
    1548:	b2db      	uxtb	r3, r3
    154a:	4a22      	ldr	r2, [pc, #136]	; (15d4 <CLOCK_SetPbeMode+0xe4>)
    154c:	f023 0340 	bic.w	r3, r3, #64	; 0x40
    1550:	b2db      	uxtb	r3, r3
    1552:	7153      	strb	r3, [r2, #5]
    1554:	bf00      	nop
    1556:	4b1f      	ldr	r3, [pc, #124]	; (15d4 <CLOCK_SetPbeMode+0xe4>)
    1558:	799b      	ldrb	r3, [r3, #6]
    155a:	b2db      	uxtb	r3, r3
    155c:	f003 0320 	and.w	r3, r3, #32
    1560:	2b00      	cmp	r3, #0
    1562:	d1f8      	bne.n	1556 <CLOCK_SetPbeMode+0x66>
    1564:	79fb      	ldrb	r3, [r7, #7]
    1566:	2b00      	cmp	r3, #0
    1568:	d102      	bne.n	1570 <CLOCK_SetPbeMode+0x80>
    156a:	6838      	ldr	r0, [r7, #0]
    156c:	f7ff ff38 	bl	13e0 <CLOCK_EnablePll0>
    1570:	4b18      	ldr	r3, [pc, #96]	; (15d4 <CLOCK_SetPbeMode+0xe4>)
    1572:	795b      	ldrb	r3, [r3, #5]
    1574:	b2db      	uxtb	r3, r3
    1576:	4a17      	ldr	r2, [pc, #92]	; (15d4 <CLOCK_SetPbeMode+0xe4>)
    1578:	f043 0340 	orr.w	r3, r3, #64	; 0x40
    157c:	b2db      	uxtb	r3, r3
    157e:	7153      	strb	r3, [r2, #5]
    1580:	4b14      	ldr	r3, [pc, #80]	; (15d4 <CLOCK_SetPbeMode+0xe4>)
    1582:	7c1b      	ldrb	r3, [r3, #16]
    1584:	b2db      	uxtb	r3, r3
    1586:	f023 0310 	bic.w	r3, r3, #16
    158a:	b2da      	uxtb	r2, r3
    158c:	79fb      	ldrb	r3, [r7, #7]
    158e:	011b      	lsls	r3, r3, #4
    1590:	b2db      	uxtb	r3, r3
    1592:	f003 0310 	and.w	r3, r3, #16
    1596:	b2db      	uxtb	r3, r3
    1598:	490e      	ldr	r1, [pc, #56]	; (15d4 <CLOCK_SetPbeMode+0xe4>)
    159a:	4313      	orrs	r3, r2
    159c:	b2db      	uxtb	r3, r3
    159e:	740b      	strb	r3, [r1, #16]
    15a0:	bf00      	nop
    15a2:	79fa      	ldrb	r2, [r7, #7]
    15a4:	4b0b      	ldr	r3, [pc, #44]	; (15d4 <CLOCK_SetPbeMode+0xe4>)
    15a6:	7c9b      	ldrb	r3, [r3, #18]
    15a8:	b2db      	uxtb	r3, r3
    15aa:	091b      	lsrs	r3, r3, #4
    15ac:	f003 0301 	and.w	r3, r3, #1
    15b0:	429a      	cmp	r2, r3
    15b2:	d1f6      	bne.n	15a2 <CLOCK_SetPbeMode+0xb2>
    15b4:	bf00      	nop
    15b6:	4b07      	ldr	r3, [pc, #28]	; (15d4 <CLOCK_SetPbeMode+0xe4>)
    15b8:	799b      	ldrb	r3, [r3, #6]
    15ba:	b2db      	uxtb	r3, r3
    15bc:	f003 0320 	and.w	r3, r3, #32
    15c0:	2b00      	cmp	r3, #0
    15c2:	d0f8      	beq.n	15b6 <CLOCK_SetPbeMode+0xc6>
    15c4:	2300      	movs	r3, #0
    15c6:	4618      	mov	r0, r3
    15c8:	3708      	adds	r7, #8
    15ca:	46bd      	mov	sp, r7
    15cc:	bd80      	pop	{r7, pc}
    15ce:	bf00      	nop
    15d0:	00005e70 	.word	0x00005e70
    15d4:	40064000 	.word	0x40064000

000015d8 <CLOCK_BootToPeeMode>:
    15d8:	b580      	push	{r7, lr}
    15da:	b082      	sub	sp, #8
    15dc:	af00      	add	r7, sp, #0
    15de:	4603      	mov	r3, r0
    15e0:	603a      	str	r2, [r7, #0]
    15e2:	71fb      	strb	r3, [r7, #7]
    15e4:	460b      	mov	r3, r1
    15e6:	71bb      	strb	r3, [r7, #6]
    15e8:	79bb      	ldrb	r3, [r7, #6]
    15ea:	2b01      	cmp	r3, #1
    15ec:	d005      	beq.n	15fa <CLOCK_BootToPeeMode+0x22>
    15ee:	683b      	ldr	r3, [r7, #0]
    15f0:	2b00      	cmp	r3, #0
    15f2:	d102      	bne.n	15fa <CLOCK_BootToPeeMode+0x22>
    15f4:	4810      	ldr	r0, [pc, #64]	; (1638 <CLOCK_BootToPeeMode+0x60>)
    15f6:	f002 fc31 	bl	3e5c <__assertion_failed>
    15fa:	79fb      	ldrb	r3, [r7, #7]
    15fc:	4618      	mov	r0, r3
    15fe:	f7ff fe37 	bl	1270 <CLOCK_SetExternalRefClkConfig>
    1602:	79bb      	ldrb	r3, [r7, #6]
    1604:	6839      	ldr	r1, [r7, #0]
    1606:	4618      	mov	r0, r3
    1608:	f7ff ff72 	bl	14f0 <CLOCK_SetPbeMode>
    160c:	4b0b      	ldr	r3, [pc, #44]	; (163c <CLOCK_BootToPeeMode+0x64>)
    160e:	781b      	ldrb	r3, [r3, #0]
    1610:	b2db      	uxtb	r3, r3
    1612:	4a0a      	ldr	r2, [pc, #40]	; (163c <CLOCK_BootToPeeMode+0x64>)
    1614:	f003 033f 	and.w	r3, r3, #63	; 0x3f
    1618:	b2db      	uxtb	r3, r3
    161a:	7013      	strb	r3, [r2, #0]
    161c:	bf00      	nop
    161e:	4b07      	ldr	r3, [pc, #28]	; (163c <CLOCK_BootToPeeMode+0x64>)
    1620:	799b      	ldrb	r3, [r3, #6]
    1622:	b2db      	uxtb	r3, r3
    1624:	089b      	lsrs	r3, r3, #2
    1626:	f003 0303 	and.w	r3, r3, #3
    162a:	2b03      	cmp	r3, #3
    162c:	d1f7      	bne.n	161e <CLOCK_BootToPeeMode+0x46>
    162e:	2300      	movs	r3, #0
    1630:	4618      	mov	r0, r3
    1632:	3708      	adds	r7, #8
    1634:	46bd      	mov	sp, r7
    1636:	bd80      	pop	{r7, pc}
    1638:	00005e98 	.word	0x00005e98
    163c:	40064000 	.word	0x40064000

00001640 <LPUART_GetInstance>:
    1640:	b580      	push	{r7, lr}
    1642:	b084      	sub	sp, #16
    1644:	af00      	add	r7, sp, #0
    1646:	6078      	str	r0, [r7, #4]
    1648:	2300      	movs	r3, #0
    164a:	60fb      	str	r3, [r7, #12]
    164c:	e006      	b.n	165c <LPUART_GetInstance+0x1c>
    164e:	4a0b      	ldr	r2, [pc, #44]	; (167c <LPUART_GetInstance+0x3c>)
    1650:	687b      	ldr	r3, [r7, #4]
    1652:	4293      	cmp	r3, r2
    1654:	d006      	beq.n	1664 <LPUART_GetInstance+0x24>
    1656:	68fb      	ldr	r3, [r7, #12]
    1658:	3301      	adds	r3, #1
    165a:	60fb      	str	r3, [r7, #12]
    165c:	68fb      	ldr	r3, [r7, #12]
    165e:	2b00      	cmp	r3, #0
    1660:	d0f5      	beq.n	164e <LPUART_GetInstance+0xe>
    1662:	e000      	b.n	1666 <LPUART_GetInstance+0x26>
    1664:	bf00      	nop
    1666:	68fb      	ldr	r3, [r7, #12]
    1668:	2b00      	cmp	r3, #0
    166a:	d002      	beq.n	1672 <LPUART_GetInstance+0x32>
    166c:	4804      	ldr	r0, [pc, #16]	; (1680 <LPUART_GetInstance+0x40>)
    166e:	f002 fbf5 	bl	3e5c <__assertion_failed>
    1672:	68fb      	ldr	r3, [r7, #12]
    1674:	4618      	mov	r0, r3
    1676:	3710      	adds	r7, #16
    1678:	46bd      	mov	sp, r7
    167a:	bd80      	pop	{r7, pc}
    167c:	400c4000 	.word	0x400c4000
    1680:	00005ed0 	.word	0x00005ed0

00001684 <LPUART_Init>:
    1684:	b580      	push	{r7, lr}
    1686:	b08c      	sub	sp, #48	; 0x30
    1688:	af00      	add	r7, sp, #0
    168a:	60f8      	str	r0, [r7, #12]
    168c:	60b9      	str	r1, [r7, #8]
    168e:	607a      	str	r2, [r7, #4]
    1690:	68bb      	ldr	r3, [r7, #8]
    1692:	2b00      	cmp	r3, #0
    1694:	d102      	bne.n	169c <LPUART_Init+0x18>
    1696:	489a      	ldr	r0, [pc, #616]	; (1900 <LPUART_Init+0x27c>)
    1698:	f002 fbe0 	bl	3e5c <__assertion_failed>
    169c:	68bb      	ldr	r3, [r7, #8]
    169e:	681b      	ldr	r3, [r3, #0]
    16a0:	2b00      	cmp	r3, #0
    16a2:	d102      	bne.n	16aa <LPUART_Init+0x26>
    16a4:	4897      	ldr	r0, [pc, #604]	; (1904 <LPUART_Init+0x280>)
    16a6:	f002 fbd9 	bl	3e5c <__assertion_failed>
    16aa:	68bb      	ldr	r3, [r7, #8]
    16ac:	681b      	ldr	r3, [r3, #0]
    16ae:	61bb      	str	r3, [r7, #24]
    16b0:	2300      	movs	r3, #0
    16b2:	627b      	str	r3, [r7, #36]	; 0x24
    16b4:	2300      	movs	r3, #0
    16b6:	857b      	strh	r3, [r7, #42]	; 0x2a
    16b8:	2304      	movs	r3, #4
    16ba:	623b      	str	r3, [r7, #32]
    16bc:	e046      	b.n	174c <LPUART_Init+0xc8>
    16be:	68bb      	ldr	r3, [r7, #8]
    16c0:	681b      	ldr	r3, [r3, #0]
    16c2:	6a3a      	ldr	r2, [r7, #32]
    16c4:	fb02 f303 	mul.w	r3, r2, r3
    16c8:	687a      	ldr	r2, [r7, #4]
    16ca:	fbb2 f3f3 	udiv	r3, r2, r3
    16ce:	853b      	strh	r3, [r7, #40]	; 0x28
    16d0:	8d3b      	ldrh	r3, [r7, #40]	; 0x28
    16d2:	2b00      	cmp	r3, #0
    16d4:	d101      	bne.n	16da <LPUART_Init+0x56>
    16d6:	2301      	movs	r3, #1
    16d8:	853b      	strh	r3, [r7, #40]	; 0x28
    16da:	8d3b      	ldrh	r3, [r7, #40]	; 0x28
    16dc:	6a3a      	ldr	r2, [r7, #32]
    16de:	fb02 f303 	mul.w	r3, r2, r3
    16e2:	687a      	ldr	r2, [r7, #4]
    16e4:	fbb2 f3f3 	udiv	r3, r2, r3
    16e8:	613b      	str	r3, [r7, #16]
    16ea:	68bb      	ldr	r3, [r7, #8]
    16ec:	681b      	ldr	r3, [r3, #0]
    16ee:	693a      	ldr	r2, [r7, #16]
    16f0:	1ad3      	subs	r3, r2, r3
    16f2:	61fb      	str	r3, [r7, #28]
    16f4:	68bb      	ldr	r3, [r7, #8]
    16f6:	681a      	ldr	r2, [r3, #0]
    16f8:	8d3b      	ldrh	r3, [r7, #40]	; 0x28
    16fa:	3301      	adds	r3, #1
    16fc:	4619      	mov	r1, r3
    16fe:	6a3b      	ldr	r3, [r7, #32]
    1700:	fb03 f301 	mul.w	r3, r3, r1
    1704:	6879      	ldr	r1, [r7, #4]
    1706:	fbb1 f3f3 	udiv	r3, r1, r3
    170a:	1ad3      	subs	r3, r2, r3
    170c:	69fa      	ldr	r2, [r7, #28]
    170e:	429a      	cmp	r2, r3
    1710:	d90f      	bls.n	1732 <LPUART_Init+0xae>
    1712:	68bb      	ldr	r3, [r7, #8]
    1714:	681a      	ldr	r2, [r3, #0]
    1716:	8d3b      	ldrh	r3, [r7, #40]	; 0x28
    1718:	3301      	adds	r3, #1
    171a:	4619      	mov	r1, r3
    171c:	6a3b      	ldr	r3, [r7, #32]
    171e:	fb03 f301 	mul.w	r3, r3, r1
    1722:	6879      	ldr	r1, [r7, #4]
    1724:	fbb1 f3f3 	udiv	r3, r1, r3
    1728:	1ad3      	subs	r3, r2, r3
    172a:	61fb      	str	r3, [r7, #28]
    172c:	8d3b      	ldrh	r3, [r7, #40]	; 0x28
    172e:	3301      	adds	r3, #1
    1730:	853b      	strh	r3, [r7, #40]	; 0x28
    1732:	69fa      	ldr	r2, [r7, #28]
    1734:	69bb      	ldr	r3, [r7, #24]
    1736:	429a      	cmp	r2, r3
    1738:	d805      	bhi.n	1746 <LPUART_Init+0xc2>
    173a:	69fb      	ldr	r3, [r7, #28]
    173c:	61bb      	str	r3, [r7, #24]
    173e:	6a3b      	ldr	r3, [r7, #32]
    1740:	627b      	str	r3, [r7, #36]	; 0x24
    1742:	8d3b      	ldrh	r3, [r7, #40]	; 0x28
    1744:	857b      	strh	r3, [r7, #42]	; 0x2a
    1746:	6a3b      	ldr	r3, [r7, #32]
    1748:	3301      	adds	r3, #1
    174a:	623b      	str	r3, [r7, #32]
    174c:	6a3b      	ldr	r3, [r7, #32]
    174e:	2b20      	cmp	r3, #32
    1750:	d9b5      	bls.n	16be <LPUART_Init+0x3a>
    1752:	68bb      	ldr	r3, [r7, #8]
    1754:	681b      	ldr	r3, [r3, #0]
    1756:	4a6c      	ldr	r2, [pc, #432]	; (1908 <LPUART_Init+0x284>)
    1758:	fba2 2303 	umull	r2, r3, r2, r3
    175c:	095a      	lsrs	r2, r3, #5
    175e:	4613      	mov	r3, r2
    1760:	005b      	lsls	r3, r3, #1
    1762:	4413      	add	r3, r2
    1764:	69ba      	ldr	r2, [r7, #24]
    1766:	429a      	cmp	r2, r3
    1768:	d902      	bls.n	1770 <LPUART_Init+0xec>
    176a:	f240 5321 	movw	r3, #1313	; 0x521
    176e:	e0c3      	b.n	18f8 <LPUART_Init+0x274>
    1770:	68f8      	ldr	r0, [r7, #12]
    1772:	f7ff ff65 	bl	1640 <LPUART_GetInstance>
    1776:	6178      	str	r0, [r7, #20]
    1778:	4b64      	ldr	r3, [pc, #400]	; (190c <LPUART_Init+0x288>)
    177a:	4618      	mov	r0, r3
    177c:	f003 fac8 	bl	4d10 <CLOCK_EnableClock>
    1780:	68fb      	ldr	r3, [r7, #12]
    1782:	689b      	ldr	r3, [r3, #8]
    1784:	f423 2240 	bic.w	r2, r3, #786432	; 0xc0000
    1788:	68fb      	ldr	r3, [r7, #12]
    178a:	609a      	str	r2, [r3, #8]
    178c:	68fb      	ldr	r3, [r7, #12]
    178e:	681b      	ldr	r3, [r3, #0]
    1790:	62fb      	str	r3, [r7, #44]	; 0x2c
    1792:	6a7b      	ldr	r3, [r7, #36]	; 0x24
    1794:	2b03      	cmp	r3, #3
    1796:	d906      	bls.n	17a6 <LPUART_Init+0x122>
    1798:	6a7b      	ldr	r3, [r7, #36]	; 0x24
    179a:	2b07      	cmp	r3, #7
    179c:	d803      	bhi.n	17a6 <LPUART_Init+0x122>
    179e:	6afb      	ldr	r3, [r7, #44]	; 0x2c
    17a0:	f443 3300 	orr.w	r3, r3, #131072	; 0x20000
    17a4:	62fb      	str	r3, [r7, #44]	; 0x2c
    17a6:	6afb      	ldr	r3, [r7, #44]	; 0x2c
    17a8:	f023 53f8 	bic.w	r3, r3, #520093696	; 0x1f000000
    17ac:	62fb      	str	r3, [r7, #44]	; 0x2c
    17ae:	6a7b      	ldr	r3, [r7, #36]	; 0x24
    17b0:	3b01      	subs	r3, #1
    17b2:	061b      	lsls	r3, r3, #24
    17b4:	f003 53f8 	and.w	r3, r3, #520093696	; 0x1f000000
    17b8:	6afa      	ldr	r2, [r7, #44]	; 0x2c
    17ba:	4313      	orrs	r3, r2
    17bc:	62fb      	str	r3, [r7, #44]	; 0x2c
    17be:	6afb      	ldr	r3, [r7, #44]	; 0x2c
    17c0:	f423 53ff 	bic.w	r3, r3, #8160	; 0x1fe0
    17c4:	f023 031f 	bic.w	r3, r3, #31
    17c8:	62fb      	str	r3, [r7, #44]	; 0x2c
    17ca:	8d7b      	ldrh	r3, [r7, #42]	; 0x2a
    17cc:	f3c3 020c 	ubfx	r2, r3, #0, #13
    17d0:	6afb      	ldr	r3, [r7, #44]	; 0x2c
    17d2:	431a      	orrs	r2, r3
    17d4:	68fb      	ldr	r3, [r7, #12]
    17d6:	601a      	str	r2, [r3, #0]
    17d8:	68fb      	ldr	r3, [r7, #12]
    17da:	681b      	ldr	r3, [r3, #0]
    17dc:	f023 5200 	bic.w	r2, r3, #536870912	; 0x20000000
    17e0:	68fb      	ldr	r3, [r7, #12]
    17e2:	601a      	str	r2, [r3, #0]
    17e4:	68fb      	ldr	r3, [r7, #12]
    17e6:	689b      	ldr	r3, [r3, #8]
    17e8:	f423 63e2 	bic.w	r3, r3, #1808	; 0x710
    17ec:	f023 0307 	bic.w	r3, r3, #7
    17f0:	62fb      	str	r3, [r7, #44]	; 0x2c
    17f2:	68bb      	ldr	r3, [r7, #8]
    17f4:	791b      	ldrb	r3, [r3, #4]
    17f6:	461a      	mov	r2, r3
    17f8:	68bb      	ldr	r3, [r7, #8]
    17fa:	7b5b      	ldrb	r3, [r3, #13]
    17fc:	021b      	lsls	r3, r3, #8
    17fe:	f403 63e0 	and.w	r3, r3, #1792	; 0x700
    1802:	431a      	orrs	r2, r3
    1804:	68bb      	ldr	r3, [r7, #8]
    1806:	7b1b      	ldrb	r3, [r3, #12]
    1808:	009b      	lsls	r3, r3, #2
    180a:	f003 0304 	and.w	r3, r3, #4
    180e:	4313      	orrs	r3, r2
    1810:	6afa      	ldr	r2, [r7, #44]	; 0x2c
    1812:	4313      	orrs	r3, r2
    1814:	62fb      	str	r3, [r7, #44]	; 0x2c
    1816:	68bb      	ldr	r3, [r7, #8]
    1818:	791b      	ldrb	r3, [r3, #4]
    181a:	2b00      	cmp	r3, #0
    181c:	d003      	beq.n	1826 <LPUART_Init+0x1a2>
    181e:	6afb      	ldr	r3, [r7, #44]	; 0x2c
    1820:	f043 0310 	orr.w	r3, r3, #16
    1824:	62fb      	str	r3, [r7, #44]	; 0x2c
    1826:	68fb      	ldr	r3, [r7, #12]
    1828:	6afa      	ldr	r2, [r7, #44]	; 0x2c
    182a:	609a      	str	r2, [r3, #8]
    182c:	68fb      	ldr	r3, [r7, #12]
    182e:	681b      	ldr	r3, [r3, #0]
    1830:	f423 5300 	bic.w	r3, r3, #8192	; 0x2000
    1834:	62fb      	str	r3, [r7, #44]	; 0x2c
    1836:	68bb      	ldr	r3, [r7, #8]
    1838:	79db      	ldrb	r3, [r3, #7]
    183a:	035b      	lsls	r3, r3, #13
    183c:	f403 5200 	and.w	r2, r3, #8192	; 0x2000
    1840:	6afb      	ldr	r3, [r7, #44]	; 0x2c
    1842:	431a      	orrs	r2, r3
    1844:	68fb      	ldr	r3, [r7, #12]
    1846:	601a      	str	r2, [r3, #0]
    1848:	4b31      	ldr	r3, [pc, #196]	; (1910 <LPUART_Init+0x28c>)
    184a:	62fb      	str	r3, [r7, #44]	; 0x2c
    184c:	6afb      	ldr	r3, [r7, #44]	; 0x2c
    184e:	f043 4300 	orr.w	r3, r3, #2147483648	; 0x80000000
    1852:	62fb      	str	r3, [r7, #44]	; 0x2c
    1854:	6afb      	ldr	r3, [r7, #44]	; 0x2c
    1856:	f443 4340 	orr.w	r3, r3, #49152	; 0xc000
    185a:	62fb      	str	r3, [r7, #44]	; 0x2c
    185c:	68fb      	ldr	r3, [r7, #12]
    185e:	695a      	ldr	r2, [r3, #20]
    1860:	68bb      	ldr	r3, [r7, #8]
    1862:	7adb      	ldrb	r3, [r3, #11]
    1864:	011b      	lsls	r3, r3, #4
    1866:	f003 0110 	and.w	r1, r3, #16
    186a:	68bb      	ldr	r3, [r7, #8]
    186c:	7a9b      	ldrb	r3, [r3, #10]
    186e:	015b      	lsls	r3, r3, #5
    1870:	f003 0320 	and.w	r3, r3, #32
    1874:	430b      	orrs	r3, r1
    1876:	431a      	orrs	r2, r3
    1878:	68fb      	ldr	r3, [r7, #12]
    187a:	615a      	str	r2, [r3, #20]
    187c:	68bb      	ldr	r3, [r7, #8]
    187e:	7a1b      	ldrb	r3, [r3, #8]
    1880:	2b00      	cmp	r3, #0
    1882:	d005      	beq.n	1890 <LPUART_Init+0x20c>
    1884:	68fb      	ldr	r3, [r7, #12]
    1886:	695b      	ldr	r3, [r3, #20]
    1888:	f043 0208 	orr.w	r2, r3, #8
    188c:	68fb      	ldr	r3, [r7, #12]
    188e:	615a      	str	r2, [r3, #20]
    1890:	68bb      	ldr	r3, [r7, #8]
    1892:	7a5b      	ldrb	r3, [r3, #9]
    1894:	2b00      	cmp	r3, #0
    1896:	d005      	beq.n	18a4 <LPUART_Init+0x220>
    1898:	68fb      	ldr	r3, [r7, #12]
    189a:	695b      	ldr	r3, [r3, #20]
    189c:	f043 0201 	orr.w	r2, r3, #1
    18a0:	68fb      	ldr	r3, [r7, #12]
    18a2:	615a      	str	r2, [r3, #20]
    18a4:	68bb      	ldr	r3, [r7, #8]
    18a6:	799b      	ldrb	r3, [r3, #6]
    18a8:	2b00      	cmp	r3, #0
    18aa:	d004      	beq.n	18b6 <LPUART_Init+0x232>
    18ac:	6afb      	ldr	r3, [r7, #44]	; 0x2c
    18ae:	f043 5300 	orr.w	r3, r3, #536870912	; 0x20000000
    18b2:	62fb      	str	r3, [r7, #44]	; 0x2c
    18b4:	e003      	b.n	18be <LPUART_Init+0x23a>
    18b6:	6afb      	ldr	r3, [r7, #44]	; 0x2c
    18b8:	f023 5300 	bic.w	r3, r3, #536870912	; 0x20000000
    18bc:	62fb      	str	r3, [r7, #44]	; 0x2c
    18be:	68fb      	ldr	r3, [r7, #12]
    18c0:	685a      	ldr	r2, [r3, #4]
    18c2:	6afb      	ldr	r3, [r7, #44]	; 0x2c
    18c4:	431a      	orrs	r2, r3
    18c6:	68fb      	ldr	r3, [r7, #12]
    18c8:	605a      	str	r2, [r3, #4]
    18ca:	68fb      	ldr	r3, [r7, #12]
    18cc:	689b      	ldr	r3, [r3, #8]
    18ce:	62fb      	str	r3, [r7, #44]	; 0x2c
    18d0:	68bb      	ldr	r3, [r7, #8]
    18d2:	7b9b      	ldrb	r3, [r3, #14]
    18d4:	2b00      	cmp	r3, #0
    18d6:	d003      	beq.n	18e0 <LPUART_Init+0x25c>
    18d8:	6afb      	ldr	r3, [r7, #44]	; 0x2c
    18da:	f443 2300 	orr.w	r3, r3, #524288	; 0x80000
    18de:	62fb      	str	r3, [r7, #44]	; 0x2c
    18e0:	68bb      	ldr	r3, [r7, #8]
    18e2:	7bdb      	ldrb	r3, [r3, #15]
    18e4:	2b00      	cmp	r3, #0
    18e6:	d003      	beq.n	18f0 <LPUART_Init+0x26c>
    18e8:	6afb      	ldr	r3, [r7, #44]	; 0x2c
    18ea:	f443 2380 	orr.w	r3, r3, #262144	; 0x40000
    18ee:	62fb      	str	r3, [r7, #44]	; 0x2c
    18f0:	68fb      	ldr	r3, [r7, #12]
    18f2:	6afa      	ldr	r2, [r7, #44]	; 0x2c
    18f4:	609a      	str	r2, [r3, #8]
    18f6:	2300      	movs	r3, #0
    18f8:	4618      	mov	r0, r3
    18fa:	3730      	adds	r7, #48	; 0x30
    18fc:	46bd      	mov	sp, r7
    18fe:	bd80      	pop	{r7, pc}
    1900:	00005fac 	.word	0x00005fac
    1904:	00005fd4 	.word	0x00005fd4
    1908:	51eb851f 	.word	0x51eb851f
    190c:	102c0004 	.word	0x102c0004
    1910:	401f0000 	.word	0x401f0000

00001914 <LPUART_GetDefaultConfig>:
    1914:	b580      	push	{r7, lr}
    1916:	b082      	sub	sp, #8
    1918:	af00      	add	r7, sp, #0
    191a:	6078      	str	r0, [r7, #4]
    191c:	687b      	ldr	r3, [r7, #4]
    191e:	2b00      	cmp	r3, #0
    1920:	d102      	bne.n	1928 <LPUART_GetDefaultConfig+0x14>
    1922:	4817      	ldr	r0, [pc, #92]	; (1980 <LPUART_GetDefaultConfig+0x6c>)
    1924:	f002 fa9a 	bl	3e5c <__assertion_failed>
    1928:	687b      	ldr	r3, [r7, #4]
    192a:	f44f 32e1 	mov.w	r2, #115200	; 0x1c200
    192e:	601a      	str	r2, [r3, #0]
    1930:	687b      	ldr	r3, [r7, #4]
    1932:	2200      	movs	r2, #0
    1934:	711a      	strb	r2, [r3, #4]
    1936:	687b      	ldr	r3, [r7, #4]
    1938:	2200      	movs	r2, #0
    193a:	715a      	strb	r2, [r3, #5]
    193c:	687b      	ldr	r3, [r7, #4]
    193e:	2200      	movs	r2, #0
    1940:	719a      	strb	r2, [r3, #6]
    1942:	687b      	ldr	r3, [r7, #4]
    1944:	2200      	movs	r2, #0
    1946:	71da      	strb	r2, [r3, #7]
    1948:	687b      	ldr	r3, [r7, #4]
    194a:	2200      	movs	r2, #0
    194c:	721a      	strb	r2, [r3, #8]
    194e:	687b      	ldr	r3, [r7, #4]
    1950:	2200      	movs	r2, #0
    1952:	725a      	strb	r2, [r3, #9]
    1954:	687b      	ldr	r3, [r7, #4]
    1956:	2200      	movs	r2, #0
    1958:	72da      	strb	r2, [r3, #11]
    195a:	687b      	ldr	r3, [r7, #4]
    195c:	2200      	movs	r2, #0
    195e:	729a      	strb	r2, [r3, #10]
    1960:	687b      	ldr	r3, [r7, #4]
    1962:	2200      	movs	r2, #0
    1964:	731a      	strb	r2, [r3, #12]
    1966:	687b      	ldr	r3, [r7, #4]
    1968:	2200      	movs	r2, #0
    196a:	735a      	strb	r2, [r3, #13]
    196c:	687b      	ldr	r3, [r7, #4]
    196e:	2200      	movs	r2, #0
    1970:	739a      	strb	r2, [r3, #14]
    1972:	687b      	ldr	r3, [r7, #4]
    1974:	2200      	movs	r2, #0
    1976:	73da      	strb	r2, [r3, #15]
    1978:	bf00      	nop
    197a:	3708      	adds	r7, #8
    197c:	46bd      	mov	sp, r7
    197e:	bd80      	pop	{r7, pc}
    1980:	00006008 	.word	0x00006008

00001984 <LPUART_ClearStatusFlags>:
    1984:	b580      	push	{r7, lr}
    1986:	b084      	sub	sp, #16
    1988:	af00      	add	r7, sp, #0
    198a:	6078      	str	r0, [r7, #4]
    198c:	6039      	str	r1, [r7, #0]
    198e:	687b      	ldr	r3, [r7, #4]
    1990:	685b      	ldr	r3, [r3, #4]
    1992:	60bb      	str	r3, [r7, #8]
    1994:	68bb      	ldr	r3, [r7, #8]
    1996:	f023 4300 	bic.w	r3, r3, #2147483648	; 0x80000000
    199a:	60bb      	str	r3, [r7, #8]
    199c:	683b      	ldr	r3, [r7, #0]
    199e:	f003 4300 	and.w	r3, r3, #2147483648	; 0x80000000
    19a2:	68ba      	ldr	r2, [r7, #8]
    19a4:	4313      	orrs	r3, r2
    19a6:	60bb      	str	r3, [r7, #8]
    19a8:	68bb      	ldr	r3, [r7, #8]
    19aa:	f023 4380 	bic.w	r3, r3, #1073741824	; 0x40000000
    19ae:	f423 13f8 	bic.w	r3, r3, #2031616	; 0x1f0000
    19b2:	60bb      	str	r3, [r7, #8]
    19b4:	683a      	ldr	r2, [r7, #0]
    19b6:	4b12      	ldr	r3, [pc, #72]	; (1a00 <LPUART_ClearStatusFlags+0x7c>)
    19b8:	4013      	ands	r3, r2
    19ba:	68ba      	ldr	r2, [r7, #8]
    19bc:	4313      	orrs	r3, r2
    19be:	60bb      	str	r3, [r7, #8]
    19c0:	68bb      	ldr	r3, [r7, #8]
    19c2:	f423 4340 	bic.w	r3, r3, #49152	; 0xc000
    19c6:	60bb      	str	r3, [r7, #8]
    19c8:	683b      	ldr	r3, [r7, #0]
    19ca:	f403 4340 	and.w	r3, r3, #49152	; 0xc000
    19ce:	68ba      	ldr	r2, [r7, #8]
    19d0:	4313      	orrs	r3, r2
    19d2:	60bb      	str	r3, [r7, #8]
    19d4:	687b      	ldr	r3, [r7, #4]
    19d6:	68ba      	ldr	r2, [r7, #8]
    19d8:	605a      	str	r2, [r3, #4]
    19da:	6878      	ldr	r0, [r7, #4]
    19dc:	f003 f9b2 	bl	4d44 <LPUART_GetStatusFlags>
    19e0:	4602      	mov	r2, r0
    19e2:	683b      	ldr	r3, [r7, #0]
    19e4:	4013      	ands	r3, r2
    19e6:	2b00      	cmp	r3, #0
    19e8:	d003      	beq.n	19f2 <LPUART_ClearStatusFlags+0x6e>
    19ea:	f240 531a 	movw	r3, #1306	; 0x51a
    19ee:	60fb      	str	r3, [r7, #12]
    19f0:	e001      	b.n	19f6 <LPUART_ClearStatusFlags+0x72>
    19f2:	2300      	movs	r3, #0
    19f4:	60fb      	str	r3, [r7, #12]
    19f6:	68fb      	ldr	r3, [r7, #12]
    19f8:	4618      	mov	r0, r3
    19fa:	3710      	adds	r7, #16
    19fc:	46bd      	mov	sp, r7
    19fe:	bd80      	pop	{r7, pc}
    1a00:	401f0000 	.word	0x401f0000

00001a04 <LPUART_WriteBlocking>:
    1a04:	b580      	push	{r7, lr}
    1a06:	b084      	sub	sp, #16
    1a08:	af00      	add	r7, sp, #0
    1a0a:	60f8      	str	r0, [r7, #12]
    1a0c:	60b9      	str	r1, [r7, #8]
    1a0e:	607a      	str	r2, [r7, #4]
    1a10:	68bb      	ldr	r3, [r7, #8]
    1a12:	2b00      	cmp	r3, #0
    1a14:	d110      	bne.n	1a38 <LPUART_WriteBlocking+0x34>
    1a16:	480d      	ldr	r0, [pc, #52]	; (1a4c <LPUART_WriteBlocking+0x48>)
    1a18:	f002 fa20 	bl	3e5c <__assertion_failed>
    1a1c:	bf00      	nop
    1a1e:	68fb      	ldr	r3, [r7, #12]
    1a20:	685b      	ldr	r3, [r3, #4]
    1a22:	f403 0300 	and.w	r3, r3, #8388608	; 0x800000
    1a26:	2b00      	cmp	r3, #0
    1a28:	d0f9      	beq.n	1a1e <LPUART_WriteBlocking+0x1a>
    1a2a:	68bb      	ldr	r3, [r7, #8]
    1a2c:	1c5a      	adds	r2, r3, #1
    1a2e:	60ba      	str	r2, [r7, #8]
    1a30:	781b      	ldrb	r3, [r3, #0]
    1a32:	461a      	mov	r2, r3
    1a34:	68fb      	ldr	r3, [r7, #12]
    1a36:	60da      	str	r2, [r3, #12]
    1a38:	687b      	ldr	r3, [r7, #4]
    1a3a:	1e5a      	subs	r2, r3, #1
    1a3c:	607a      	str	r2, [r7, #4]
    1a3e:	2b00      	cmp	r3, #0
    1a40:	d1ec      	bne.n	1a1c <LPUART_WriteBlocking+0x18>
    1a42:	bf00      	nop
    1a44:	3710      	adds	r7, #16
    1a46:	46bd      	mov	sp, r7
    1a48:	bd80      	pop	{r7, pc}
    1a4a:	bf00      	nop
    1a4c:	0000605c 	.word	0x0000605c

00001a50 <LPUART_ReadBlocking>:
    1a50:	b580      	push	{r7, lr}
    1a52:	b086      	sub	sp, #24
    1a54:	af00      	add	r7, sp, #0
    1a56:	60f8      	str	r0, [r7, #12]
    1a58:	60b9      	str	r1, [r7, #8]
    1a5a:	607a      	str	r2, [r7, #4]
    1a5c:	68bb      	ldr	r3, [r7, #8]
    1a5e:	2b00      	cmp	r3, #0
    1a60:	d147      	bne.n	1af2 <LPUART_ReadBlocking+0xa2>
    1a62:	4829      	ldr	r0, [pc, #164]	; (1b08 <LPUART_ReadBlocking+0xb8>)
    1a64:	f002 f9fa 	bl	3e5c <__assertion_failed>
    1a68:	68f8      	ldr	r0, [r7, #12]
    1a6a:	f003 f96b 	bl	4d44 <LPUART_GetStatusFlags>
    1a6e:	6178      	str	r0, [r7, #20]
    1a70:	697b      	ldr	r3, [r7, #20]
    1a72:	f403 2300 	and.w	r3, r3, #524288	; 0x80000
    1a76:	2b00      	cmp	r3, #0
    1a78:	d007      	beq.n	1a8a <LPUART_ReadBlocking+0x3a>
    1a7a:	f44f 2100 	mov.w	r1, #524288	; 0x80000
    1a7e:	68f8      	ldr	r0, [r7, #12]
    1a80:	f7ff ff80 	bl	1984 <LPUART_ClearStatusFlags>
    1a84:	f240 531d 	movw	r3, #1309	; 0x51d
    1a88:	e039      	b.n	1afe <LPUART_ReadBlocking+0xae>
    1a8a:	697b      	ldr	r3, [r7, #20]
    1a8c:	f403 2380 	and.w	r3, r3, #262144	; 0x40000
    1a90:	2b00      	cmp	r3, #0
    1a92:	d007      	beq.n	1aa4 <LPUART_ReadBlocking+0x54>
    1a94:	f44f 2180 	mov.w	r1, #262144	; 0x40000
    1a98:	68f8      	ldr	r0, [r7, #12]
    1a9a:	f7ff ff73 	bl	1984 <LPUART_ClearStatusFlags>
    1a9e:	f240 531e 	movw	r3, #1310	; 0x51e
    1aa2:	e02c      	b.n	1afe <LPUART_ReadBlocking+0xae>
    1aa4:	697b      	ldr	r3, [r7, #20]
    1aa6:	f403 3300 	and.w	r3, r3, #131072	; 0x20000
    1aaa:	2b00      	cmp	r3, #0
    1aac:	d007      	beq.n	1abe <LPUART_ReadBlocking+0x6e>
    1aae:	f44f 3100 	mov.w	r1, #131072	; 0x20000
    1ab2:	68f8      	ldr	r0, [r7, #12]
    1ab4:	f7ff ff66 	bl	1984 <LPUART_ClearStatusFlags>
    1ab8:	f240 531f 	movw	r3, #1311	; 0x51f
    1abc:	e01f      	b.n	1afe <LPUART_ReadBlocking+0xae>
    1abe:	697b      	ldr	r3, [r7, #20]
    1ac0:	f403 3380 	and.w	r3, r3, #65536	; 0x10000
    1ac4:	2b00      	cmp	r3, #0
    1ac6:	d007      	beq.n	1ad8 <LPUART_ReadBlocking+0x88>
    1ac8:	f44f 3180 	mov.w	r1, #65536	; 0x10000
    1acc:	68f8      	ldr	r0, [r7, #12]
    1ace:	f7ff ff59 	bl	1984 <LPUART_ClearStatusFlags>
    1ad2:	f44f 63a4 	mov.w	r3, #1312	; 0x520
    1ad6:	e012      	b.n	1afe <LPUART_ReadBlocking+0xae>
    1ad8:	68fb      	ldr	r3, [r7, #12]
    1ada:	685b      	ldr	r3, [r3, #4]
    1adc:	f403 1300 	and.w	r3, r3, #2097152	; 0x200000
    1ae0:	2b00      	cmp	r3, #0
    1ae2:	d0c1      	beq.n	1a68 <LPUART_ReadBlocking+0x18>
    1ae4:	68fb      	ldr	r3, [r7, #12]
    1ae6:	68d9      	ldr	r1, [r3, #12]
    1ae8:	68bb      	ldr	r3, [r7, #8]
    1aea:	1c5a      	adds	r2, r3, #1
    1aec:	60ba      	str	r2, [r7, #8]
    1aee:	b2ca      	uxtb	r2, r1
    1af0:	701a      	strb	r2, [r3, #0]
    1af2:	687b      	ldr	r3, [r7, #4]
    1af4:	1e5a      	subs	r2, r3, #1
    1af6:	607a      	str	r2, [r7, #4]
    1af8:	2b00      	cmp	r3, #0
    1afa:	d1ed      	bne.n	1ad8 <LPUART_ReadBlocking+0x88>
    1afc:	2300      	movs	r3, #0
    1afe:	4618      	mov	r0, r3
    1b00:	3718      	adds	r7, #24
    1b02:	46bd      	mov	sp, r7
    1b04:	bd80      	pop	{r7, pc}
    1b06:	bf00      	nop
    1b08:	00006080 	.word	0x00006080

00001b0c <LPUART0_DriverIRQHandler>:
    1b0c:	b580      	push	{r7, lr}
    1b0e:	af00      	add	r7, sp, #0
    1b10:	4b05      	ldr	r3, [pc, #20]	; (1b28 <LPUART0_DriverIRQHandler+0x1c>)
    1b12:	681b      	ldr	r3, [r3, #0]
    1b14:	4a05      	ldr	r2, [pc, #20]	; (1b2c <LPUART0_DriverIRQHandler+0x20>)
    1b16:	6812      	ldr	r2, [r2, #0]
    1b18:	4611      	mov	r1, r2
    1b1a:	4805      	ldr	r0, [pc, #20]	; (1b30 <LPUART0_DriverIRQHandler+0x24>)
    1b1c:	4798      	blx	r3
    1b1e:	f3bf 8f4f 	dsb	sy
    1b22:	bf00      	nop
    1b24:	bd80      	pop	{r7, pc}
    1b26:	bf00      	nop
    1b28:	20000028 	.word	0x20000028
    1b2c:	20000024 	.word	0x20000024
    1b30:	400c4000 	.word	0x400c4000

00001b34 <UART_GetInstance>:
    1b34:	b580      	push	{r7, lr}
    1b36:	b084      	sub	sp, #16
    1b38:	af00      	add	r7, sp, #0
    1b3a:	6078      	str	r0, [r7, #4]
    1b3c:	2305      	movs	r3, #5
    1b3e:	60bb      	str	r3, [r7, #8]
    1b40:	2300      	movs	r3, #0
    1b42:	60fb      	str	r3, [r7, #12]
    1b44:	e009      	b.n	1b5a <UART_GetInstance+0x26>
    1b46:	4a0e      	ldr	r2, [pc, #56]	; (1b80 <UART_GetInstance+0x4c>)
    1b48:	68fb      	ldr	r3, [r7, #12]
    1b4a:	f852 3023 	ldr.w	r3, [r2, r3, lsl #2]
    1b4e:	687a      	ldr	r2, [r7, #4]
    1b50:	429a      	cmp	r2, r3
    1b52:	d007      	beq.n	1b64 <UART_GetInstance+0x30>
    1b54:	68fb      	ldr	r3, [r7, #12]
    1b56:	3301      	adds	r3, #1
    1b58:	60fb      	str	r3, [r7, #12]
    1b5a:	68fa      	ldr	r2, [r7, #12]
    1b5c:	68bb      	ldr	r3, [r7, #8]
    1b5e:	429a      	cmp	r2, r3
    1b60:	d3f1      	bcc.n	1b46 <UART_GetInstance+0x12>
    1b62:	e000      	b.n	1b66 <UART_GetInstance+0x32>
    1b64:	bf00      	nop
    1b66:	68fa      	ldr	r2, [r7, #12]
    1b68:	68bb      	ldr	r3, [r7, #8]
    1b6a:	429a      	cmp	r2, r3
    1b6c:	d302      	bcc.n	1b74 <UART_GetInstance+0x40>
    1b6e:	4805      	ldr	r0, [pc, #20]	; (1b84 <UART_GetInstance+0x50>)
    1b70:	f002 f974 	bl	3e5c <__assertion_failed>
    1b74:	68fb      	ldr	r3, [r7, #12]
    1b76:	4618      	mov	r0, r3
    1b78:	3710      	adds	r7, #16
    1b7a:	46bd      	mov	sp, r7
    1b7c:	bd80      	pop	{r7, pc}
    1b7e:	bf00      	nop
    1b80:	000063ac 	.word	0x000063ac
    1b84:	000063d4 	.word	0x000063d4

00001b88 <UART_Init>:
    1b88:	b580      	push	{r7, lr}
    1b8a:	b088      	sub	sp, #32
    1b8c:	af00      	add	r7, sp, #0
    1b8e:	60f8      	str	r0, [r7, #12]
    1b90:	60b9      	str	r1, [r7, #8]
    1b92:	607a      	str	r2, [r7, #4]
    1b94:	68bb      	ldr	r3, [r7, #8]
    1b96:	2b00      	cmp	r3, #0
    1b98:	d102      	bne.n	1ba0 <UART_Init+0x18>
    1b9a:	48a6      	ldr	r0, [pc, #664]	; (1e34 <UART_Init+0x2ac>)
    1b9c:	f002 f95e 	bl	3e5c <__assertion_failed>
    1ba0:	68bb      	ldr	r3, [r7, #8]
    1ba2:	681b      	ldr	r3, [r3, #0]
    1ba4:	2b00      	cmp	r3, #0
    1ba6:	d102      	bne.n	1bae <UART_Init+0x26>
    1ba8:	48a3      	ldr	r0, [pc, #652]	; (1e38 <UART_Init+0x2b0>)
    1baa:	f002 f957 	bl	3e5c <__assertion_failed>
    1bae:	68fb      	ldr	r3, [r7, #12]
    1bb0:	4aa2      	ldr	r2, [pc, #648]	; (1e3c <UART_Init+0x2b4>)
    1bb2:	4293      	cmp	r3, r2
    1bb4:	d01a      	beq.n	1bec <UART_Init+0x64>
    1bb6:	68fb      	ldr	r3, [r7, #12]
    1bb8:	4aa1      	ldr	r2, [pc, #644]	; (1e40 <UART_Init+0x2b8>)
    1bba:	4293      	cmp	r3, r2
    1bbc:	d014      	beq.n	1be8 <UART_Init+0x60>
    1bbe:	68fb      	ldr	r3, [r7, #12]
    1bc0:	4aa0      	ldr	r2, [pc, #640]	; (1e44 <UART_Init+0x2bc>)
    1bc2:	4293      	cmp	r3, r2
    1bc4:	d00e      	beq.n	1be4 <UART_Init+0x5c>
    1bc6:	68fb      	ldr	r3, [r7, #12]
    1bc8:	4a9f      	ldr	r2, [pc, #636]	; (1e48 <UART_Init+0x2c0>)
    1bca:	4293      	cmp	r3, r2
    1bcc:	d008      	beq.n	1be0 <UART_Init+0x58>
    1bce:	68fb      	ldr	r3, [r7, #12]
    1bd0:	4a9e      	ldr	r2, [pc, #632]	; (1e4c <UART_Init+0x2c4>)
    1bd2:	4293      	cmp	r3, r2
    1bd4:	d101      	bne.n	1bda <UART_Init+0x52>
    1bd6:	2301      	movs	r3, #1
    1bd8:	e009      	b.n	1bee <UART_Init+0x66>
    1bda:	f04f 33ff 	mov.w	r3, #4294967295	; 0xffffffff
    1bde:	e006      	b.n	1bee <UART_Init+0x66>
    1be0:	2301      	movs	r3, #1
    1be2:	e004      	b.n	1bee <UART_Init+0x66>
    1be4:	2301      	movs	r3, #1
    1be6:	e002      	b.n	1bee <UART_Init+0x66>
    1be8:	2308      	movs	r3, #8
    1bea:	e000      	b.n	1bee <UART_Init+0x66>
    1bec:	2308      	movs	r3, #8
    1bee:	68ba      	ldr	r2, [r7, #8]
    1bf0:	7992      	ldrb	r2, [r2, #6]
    1bf2:	4293      	cmp	r3, r2
    1bf4:	da02      	bge.n	1bfc <UART_Init+0x74>
    1bf6:	4896      	ldr	r0, [pc, #600]	; (1e50 <UART_Init+0x2c8>)
    1bf8:	f002 f930 	bl	3e5c <__assertion_failed>
    1bfc:	68fb      	ldr	r3, [r7, #12]
    1bfe:	4a8f      	ldr	r2, [pc, #572]	; (1e3c <UART_Init+0x2b4>)
    1c00:	4293      	cmp	r3, r2
    1c02:	d01a      	beq.n	1c3a <UART_Init+0xb2>
    1c04:	68fb      	ldr	r3, [r7, #12]
    1c06:	4a8e      	ldr	r2, [pc, #568]	; (1e40 <UART_Init+0x2b8>)
    1c08:	4293      	cmp	r3, r2
    1c0a:	d014      	beq.n	1c36 <UART_Init+0xae>
    1c0c:	68fb      	ldr	r3, [r7, #12]
    1c0e:	4a8d      	ldr	r2, [pc, #564]	; (1e44 <UART_Init+0x2bc>)
    1c10:	4293      	cmp	r3, r2
    1c12:	d00e      	beq.n	1c32 <UART_Init+0xaa>
    1c14:	68fb      	ldr	r3, [r7, #12]
    1c16:	4a8c      	ldr	r2, [pc, #560]	; (1e48 <UART_Init+0x2c0>)
    1c18:	4293      	cmp	r3, r2
    1c1a:	d008      	beq.n	1c2e <UART_Init+0xa6>
    1c1c:	68fb      	ldr	r3, [r7, #12]
    1c1e:	4a8b      	ldr	r2, [pc, #556]	; (1e4c <UART_Init+0x2c4>)
    1c20:	4293      	cmp	r3, r2
    1c22:	d101      	bne.n	1c28 <UART_Init+0xa0>
    1c24:	2301      	movs	r3, #1
    1c26:	e009      	b.n	1c3c <UART_Init+0xb4>
    1c28:	f04f 33ff 	mov.w	r3, #4294967295	; 0xffffffff
    1c2c:	e006      	b.n	1c3c <UART_Init+0xb4>
    1c2e:	2301      	movs	r3, #1
    1c30:	e004      	b.n	1c3c <UART_Init+0xb4>
    1c32:	2301      	movs	r3, #1
    1c34:	e002      	b.n	1c3c <UART_Init+0xb4>
    1c36:	2308      	movs	r3, #8
    1c38:	e000      	b.n	1c3c <UART_Init+0xb4>
    1c3a:	2308      	movs	r3, #8
    1c3c:	68ba      	ldr	r2, [r7, #8]
    1c3e:	79d2      	ldrb	r2, [r2, #7]
    1c40:	4293      	cmp	r3, r2
    1c42:	da02      	bge.n	1c4a <UART_Init+0xc2>
    1c44:	4883      	ldr	r0, [pc, #524]	; (1e54 <UART_Init+0x2cc>)
    1c46:	f002 f909 	bl	3e5c <__assertion_failed>
    1c4a:	2300      	movs	r3, #0
    1c4c:	83fb      	strh	r3, [r7, #30]
    1c4e:	2300      	movs	r3, #0
    1c50:	777b      	strb	r3, [r7, #29]
    1c52:	2300      	movs	r3, #0
    1c54:	61bb      	str	r3, [r7, #24]
    1c56:	68bb      	ldr	r3, [r7, #8]
    1c58:	681b      	ldr	r3, [r3, #0]
    1c5a:	011b      	lsls	r3, r3, #4
    1c5c:	687a      	ldr	r2, [r7, #4]
    1c5e:	fbb2 f3f3 	udiv	r3, r2, r3
    1c62:	83fb      	strh	r3, [r7, #30]
    1c64:	8bfb      	ldrh	r3, [r7, #30]
    1c66:	2b00      	cmp	r3, #0
    1c68:	d101      	bne.n	1c6e <UART_Init+0xe6>
    1c6a:	2301      	movs	r3, #1
    1c6c:	83fb      	strh	r3, [r7, #30]
    1c6e:	2300      	movs	r3, #0
    1c70:	617b      	str	r3, [r7, #20]
    1c72:	687b      	ldr	r3, [r7, #4]
    1c74:	005a      	lsls	r2, r3, #1
    1c76:	68bb      	ldr	r3, [r7, #8]
    1c78:	681b      	ldr	r3, [r3, #0]
    1c7a:	fbb2 f3f3 	udiv	r3, r2, r3
    1c7e:	b29a      	uxth	r2, r3
    1c80:	8bfb      	ldrh	r3, [r7, #30]
    1c82:	015b      	lsls	r3, r3, #5
    1c84:	b29b      	uxth	r3, r3
    1c86:	1ad3      	subs	r3, r2, r3
    1c88:	827b      	strh	r3, [r7, #18]
    1c8a:	687b      	ldr	r3, [r7, #4]
    1c8c:	005b      	lsls	r3, r3, #1
    1c8e:	8bfa      	ldrh	r2, [r7, #30]
    1c90:	0151      	lsls	r1, r2, #5
    1c92:	8a7a      	ldrh	r2, [r7, #18]
    1c94:	440a      	add	r2, r1
    1c96:	fbb3 f3f2 	udiv	r3, r3, r2
    1c9a:	617b      	str	r3, [r7, #20]
    1c9c:	68bb      	ldr	r3, [r7, #8]
    1c9e:	681b      	ldr	r3, [r3, #0]
    1ca0:	697a      	ldr	r2, [r7, #20]
    1ca2:	429a      	cmp	r2, r3
    1ca4:	d904      	bls.n	1cb0 <UART_Init+0x128>
    1ca6:	68bb      	ldr	r3, [r7, #8]
    1ca8:	681b      	ldr	r3, [r3, #0]
    1caa:	697a      	ldr	r2, [r7, #20]
    1cac:	1ad3      	subs	r3, r2, r3
    1cae:	e003      	b.n	1cb8 <UART_Init+0x130>
    1cb0:	68bb      	ldr	r3, [r7, #8]
    1cb2:	681a      	ldr	r2, [r3, #0]
    1cb4:	697b      	ldr	r3, [r7, #20]
    1cb6:	1ad3      	subs	r3, r2, r3
    1cb8:	61bb      	str	r3, [r7, #24]
    1cba:	68bb      	ldr	r3, [r7, #8]
    1cbc:	681b      	ldr	r3, [r3, #0]
    1cbe:	4a66      	ldr	r2, [pc, #408]	; (1e58 <UART_Init+0x2d0>)
    1cc0:	fba2 2303 	umull	r2, r3, r2, r3
    1cc4:	095a      	lsrs	r2, r3, #5
    1cc6:	4613      	mov	r3, r2
    1cc8:	005b      	lsls	r3, r3, #1
    1cca:	4413      	add	r3, r2
    1ccc:	69ba      	ldr	r2, [r7, #24]
    1cce:	429a      	cmp	r2, r3
    1cd0:	d902      	bls.n	1cd8 <UART_Init+0x150>
    1cd2:	f240 33f5 	movw	r3, #1013	; 0x3f5
    1cd6:	e0a9      	b.n	1e2c <UART_Init+0x2a4>
    1cd8:	68f8      	ldr	r0, [r7, #12]
    1cda:	f7ff ff2b 	bl	1b34 <UART_GetInstance>
    1cde:	4602      	mov	r2, r0
    1ce0:	4b5e      	ldr	r3, [pc, #376]	; (1e5c <UART_Init+0x2d4>)
    1ce2:	f853 3022 	ldr.w	r3, [r3, r2, lsl #2]
    1ce6:	4618      	mov	r0, r3
    1ce8:	f003 f83a 	bl	4d60 <CLOCK_EnableClock>
    1cec:	68fb      	ldr	r3, [r7, #12]
    1cee:	78db      	ldrb	r3, [r3, #3]
    1cf0:	b2db      	uxtb	r3, r3
    1cf2:	f023 030c 	bic.w	r3, r3, #12
    1cf6:	b2da      	uxtb	r2, r3
    1cf8:	68fb      	ldr	r3, [r7, #12]
    1cfa:	70da      	strb	r2, [r3, #3]
    1cfc:	68fb      	ldr	r3, [r7, #12]
    1cfe:	781b      	ldrb	r3, [r3, #0]
    1d00:	b2db      	uxtb	r3, r3
    1d02:	f023 031f 	bic.w	r3, r3, #31
    1d06:	b2da      	uxtb	r2, r3
    1d08:	8bfb      	ldrh	r3, [r7, #30]
    1d0a:	0a1b      	lsrs	r3, r3, #8
    1d0c:	b29b      	uxth	r3, r3
    1d0e:	b2db      	uxtb	r3, r3
    1d10:	4313      	orrs	r3, r2
    1d12:	b2da      	uxtb	r2, r3
    1d14:	68fb      	ldr	r3, [r7, #12]
    1d16:	701a      	strb	r2, [r3, #0]
    1d18:	8bfb      	ldrh	r3, [r7, #30]
    1d1a:	b2da      	uxtb	r2, r3
    1d1c:	68fb      	ldr	r3, [r7, #12]
    1d1e:	705a      	strb	r2, [r3, #1]
    1d20:	68fb      	ldr	r3, [r7, #12]
    1d22:	7a9b      	ldrb	r3, [r3, #10]
    1d24:	b2db      	uxtb	r3, r3
    1d26:	f023 031f 	bic.w	r3, r3, #31
    1d2a:	b2da      	uxtb	r2, r3
    1d2c:	8a7b      	ldrh	r3, [r7, #18]
    1d2e:	b2db      	uxtb	r3, r3
    1d30:	f003 031f 	and.w	r3, r3, #31
    1d34:	b2db      	uxtb	r3, r3
    1d36:	4313      	orrs	r3, r2
    1d38:	b2da      	uxtb	r2, r3
    1d3a:	68fb      	ldr	r3, [r7, #12]
    1d3c:	729a      	strb	r2, [r3, #10]
    1d3e:	68fb      	ldr	r3, [r7, #12]
    1d40:	789b      	ldrb	r3, [r3, #2]
    1d42:	b2db      	uxtb	r3, r3
    1d44:	f023 0317 	bic.w	r3, r3, #23
    1d48:	777b      	strb	r3, [r7, #29]
    1d4a:	68bb      	ldr	r3, [r7, #8]
    1d4c:	7a9b      	ldrb	r3, [r3, #10]
    1d4e:	009b      	lsls	r3, r3, #2
    1d50:	b2db      	uxtb	r3, r3
    1d52:	f003 0304 	and.w	r3, r3, #4
    1d56:	b2da      	uxtb	r2, r3
    1d58:	7f7b      	ldrb	r3, [r7, #29]
    1d5a:	4313      	orrs	r3, r2
    1d5c:	777b      	strb	r3, [r7, #29]
    1d5e:	68bb      	ldr	r3, [r7, #8]
    1d60:	791b      	ldrb	r3, [r3, #4]
    1d62:	2b00      	cmp	r3, #0
    1d64:	d007      	beq.n	1d76 <UART_Init+0x1ee>
    1d66:	68bb      	ldr	r3, [r7, #8]
    1d68:	791a      	ldrb	r2, [r3, #4]
    1d6a:	7f7b      	ldrb	r3, [r7, #29]
    1d6c:	4313      	orrs	r3, r2
    1d6e:	b2db      	uxtb	r3, r3
    1d70:	f043 0310 	orr.w	r3, r3, #16
    1d74:	777b      	strb	r3, [r7, #29]
    1d76:	68fb      	ldr	r3, [r7, #12]
    1d78:	7f7a      	ldrb	r2, [r7, #29]
    1d7a:	709a      	strb	r2, [r3, #2]
    1d7c:	68fb      	ldr	r3, [r7, #12]
    1d7e:	781b      	ldrb	r3, [r3, #0]
    1d80:	b2db      	uxtb	r3, r3
    1d82:	f023 0320 	bic.w	r3, r3, #32
    1d86:	b2da      	uxtb	r2, r3
    1d88:	68bb      	ldr	r3, [r7, #8]
    1d8a:	795b      	ldrb	r3, [r3, #5]
    1d8c:	015b      	lsls	r3, r3, #5
    1d8e:	b2db      	uxtb	r3, r3
    1d90:	f003 0320 	and.w	r3, r3, #32
    1d94:	b2db      	uxtb	r3, r3
    1d96:	4313      	orrs	r3, r2
    1d98:	b2da      	uxtb	r2, r3
    1d9a:	68fb      	ldr	r3, [r7, #12]
    1d9c:	701a      	strb	r2, [r3, #0]
    1d9e:	68bb      	ldr	r3, [r7, #8]
    1da0:	799a      	ldrb	r2, [r3, #6]
    1da2:	68fb      	ldr	r3, [r7, #12]
    1da4:	74da      	strb	r2, [r3, #19]
    1da6:	68bb      	ldr	r3, [r7, #8]
    1da8:	79da      	ldrb	r2, [r3, #7]
    1daa:	68fb      	ldr	r3, [r7, #12]
    1dac:	755a      	strb	r2, [r3, #21]
    1dae:	68fb      	ldr	r3, [r7, #12]
    1db0:	7c1b      	ldrb	r3, [r3, #16]
    1db2:	b2db      	uxtb	r3, r3
    1db4:	f063 0377 	orn	r3, r3, #119	; 0x77
    1db8:	b2da      	uxtb	r2, r3
    1dba:	68fb      	ldr	r3, [r7, #12]
    1dbc:	741a      	strb	r2, [r3, #16]
    1dbe:	68fb      	ldr	r3, [r7, #12]
    1dc0:	7c5b      	ldrb	r3, [r3, #17]
    1dc2:	b2db      	uxtb	r3, r3
    1dc4:	f063 033f 	orn	r3, r3, #63	; 0x3f
    1dc8:	b2da      	uxtb	r2, r3
    1dca:	68fb      	ldr	r3, [r7, #12]
    1dcc:	745a      	strb	r2, [r3, #17]
    1dce:	68bb      	ldr	r3, [r7, #8]
    1dd0:	7a1b      	ldrb	r3, [r3, #8]
    1dd2:	2b00      	cmp	r3, #0
    1dd4:	d007      	beq.n	1de6 <UART_Init+0x25e>
    1dd6:	68fb      	ldr	r3, [r7, #12]
    1dd8:	7b5b      	ldrb	r3, [r3, #13]
    1dda:	b2db      	uxtb	r3, r3
    1ddc:	f043 0308 	orr.w	r3, r3, #8
    1de0:	b2da      	uxtb	r2, r3
    1de2:	68fb      	ldr	r3, [r7, #12]
    1de4:	735a      	strb	r2, [r3, #13]
    1de6:	68bb      	ldr	r3, [r7, #8]
    1de8:	7a5b      	ldrb	r3, [r3, #9]
    1dea:	2b00      	cmp	r3, #0
    1dec:	d007      	beq.n	1dfe <UART_Init+0x276>
    1dee:	68fb      	ldr	r3, [r7, #12]
    1df0:	7b5b      	ldrb	r3, [r3, #13]
    1df2:	b2db      	uxtb	r3, r3
    1df4:	f043 0301 	orr.w	r3, r3, #1
    1df8:	b2da      	uxtb	r2, r3
    1dfa:	68fb      	ldr	r3, [r7, #12]
    1dfc:	735a      	strb	r2, [r3, #13]
    1dfe:	68fb      	ldr	r3, [r7, #12]
    1e00:	78db      	ldrb	r3, [r3, #3]
    1e02:	777b      	strb	r3, [r7, #29]
    1e04:	68bb      	ldr	r3, [r7, #8]
    1e06:	7adb      	ldrb	r3, [r3, #11]
    1e08:	2b00      	cmp	r3, #0
    1e0a:	d003      	beq.n	1e14 <UART_Init+0x28c>
    1e0c:	7f7b      	ldrb	r3, [r7, #29]
    1e0e:	f043 0308 	orr.w	r3, r3, #8
    1e12:	777b      	strb	r3, [r7, #29]
    1e14:	68bb      	ldr	r3, [r7, #8]
    1e16:	7b1b      	ldrb	r3, [r3, #12]
    1e18:	2b00      	cmp	r3, #0
    1e1a:	d003      	beq.n	1e24 <UART_Init+0x29c>
    1e1c:	7f7b      	ldrb	r3, [r7, #29]
    1e1e:	f043 0304 	orr.w	r3, r3, #4
    1e22:	777b      	strb	r3, [r7, #29]
    1e24:	68fb      	ldr	r3, [r7, #12]
    1e26:	7f7a      	ldrb	r2, [r7, #29]
    1e28:	70da      	strb	r2, [r3, #3]
    1e2a:	2300      	movs	r3, #0
    1e2c:	4618      	mov	r0, r3
    1e2e:	3720      	adds	r7, #32
    1e30:	46bd      	mov	sp, r7
    1e32:	bd80      	pop	{r7, pc}
    1e34:	00006454 	.word	0x00006454
    1e38:	00006478 	.word	0x00006478
    1e3c:	4006a000 	.word	0x4006a000
    1e40:	4006b000 	.word	0x4006b000
    1e44:	4006c000 	.word	0x4006c000
    1e48:	4006d000 	.word	0x4006d000
    1e4c:	400ea000 	.word	0x400ea000
    1e50:	000064ac 	.word	0x000064ac
    1e54:	00006508 	.word	0x00006508
    1e58:	51eb851f 	.word	0x51eb851f
    1e5c:	000063c0 	.word	0x000063c0

00001e60 <UART_GetDefaultConfig>:
    1e60:	b580      	push	{r7, lr}
    1e62:	b082      	sub	sp, #8
    1e64:	af00      	add	r7, sp, #0
    1e66:	6078      	str	r0, [r7, #4]
    1e68:	687b      	ldr	r3, [r7, #4]
    1e6a:	2b00      	cmp	r3, #0
    1e6c:	d102      	bne.n	1e74 <UART_GetDefaultConfig+0x14>
    1e6e:	4813      	ldr	r0, [pc, #76]	; (1ebc <UART_GetDefaultConfig+0x5c>)
    1e70:	f001 fff4 	bl	3e5c <__assertion_failed>
    1e74:	687b      	ldr	r3, [r7, #4]
    1e76:	f44f 32e1 	mov.w	r2, #115200	; 0x1c200
    1e7a:	601a      	str	r2, [r3, #0]
    1e7c:	687b      	ldr	r3, [r7, #4]
    1e7e:	2200      	movs	r2, #0
    1e80:	711a      	strb	r2, [r3, #4]
    1e82:	687b      	ldr	r3, [r7, #4]
    1e84:	2200      	movs	r2, #0
    1e86:	715a      	strb	r2, [r3, #5]
    1e88:	687b      	ldr	r3, [r7, #4]
    1e8a:	2200      	movs	r2, #0
    1e8c:	719a      	strb	r2, [r3, #6]
    1e8e:	687b      	ldr	r3, [r7, #4]
    1e90:	2201      	movs	r2, #1
    1e92:	71da      	strb	r2, [r3, #7]
    1e94:	687b      	ldr	r3, [r7, #4]
    1e96:	2200      	movs	r2, #0
    1e98:	721a      	strb	r2, [r3, #8]
    1e9a:	687b      	ldr	r3, [r7, #4]
    1e9c:	2200      	movs	r2, #0
    1e9e:	725a      	strb	r2, [r3, #9]
    1ea0:	687b      	ldr	r3, [r7, #4]
    1ea2:	2200      	movs	r2, #0
    1ea4:	729a      	strb	r2, [r3, #10]
    1ea6:	687b      	ldr	r3, [r7, #4]
    1ea8:	2200      	movs	r2, #0
    1eaa:	72da      	strb	r2, [r3, #11]
    1eac:	687b      	ldr	r3, [r7, #4]
    1eae:	2200      	movs	r2, #0
    1eb0:	731a      	strb	r2, [r3, #12]
    1eb2:	bf00      	nop
    1eb4:	3708      	adds	r7, #8
    1eb6:	46bd      	mov	sp, r7
    1eb8:	bd80      	pop	{r7, pc}
    1eba:	bf00      	nop
    1ebc:	00006564 	.word	0x00006564

00001ec0 <UART_ReadBlocking>:
    1ec0:	b580      	push	{r7, lr}
    1ec2:	b086      	sub	sp, #24
    1ec4:	af00      	add	r7, sp, #0
    1ec6:	60f8      	str	r0, [r7, #12]
    1ec8:	60b9      	str	r1, [r7, #8]
    1eca:	607a      	str	r2, [r7, #4]
    1ecc:	68bb      	ldr	r3, [r7, #8]
    1ece:	2b00      	cmp	r3, #0
    1ed0:	d132      	bne.n	1f38 <UART_ReadBlocking+0x78>
    1ed2:	481e      	ldr	r0, [pc, #120]	; (1f4c <UART_ReadBlocking+0x8c>)
    1ed4:	f001 ffc2 	bl	3e5c <__assertion_failed>
    1ed8:	68f8      	ldr	r0, [r7, #12]
    1eda:	f002 ff5b 	bl	4d94 <UART_GetStatusFlags>
    1ede:	6178      	str	r0, [r7, #20]
    1ee0:	697b      	ldr	r3, [r7, #20]
    1ee2:	f003 0308 	and.w	r3, r3, #8
    1ee6:	2b00      	cmp	r3, #0
    1ee8:	d002      	beq.n	1ef0 <UART_ReadBlocking+0x30>
    1eea:	f240 33f1 	movw	r3, #1009	; 0x3f1
    1eee:	e029      	b.n	1f44 <UART_ReadBlocking+0x84>
    1ef0:	697b      	ldr	r3, [r7, #20]
    1ef2:	f003 0304 	and.w	r3, r3, #4
    1ef6:	2b00      	cmp	r3, #0
    1ef8:	d002      	beq.n	1f00 <UART_ReadBlocking+0x40>
    1efa:	f240 33f2 	movw	r3, #1010	; 0x3f2
    1efe:	e021      	b.n	1f44 <UART_ReadBlocking+0x84>
    1f00:	697b      	ldr	r3, [r7, #20]
    1f02:	f003 0302 	and.w	r3, r3, #2
    1f06:	2b00      	cmp	r3, #0
    1f08:	d002      	beq.n	1f10 <UART_ReadBlocking+0x50>
    1f0a:	f240 33f3 	movw	r3, #1011	; 0x3f3
    1f0e:	e019      	b.n	1f44 <UART_ReadBlocking+0x84>
    1f10:	697b      	ldr	r3, [r7, #20]
    1f12:	f003 0301 	and.w	r3, r3, #1
    1f16:	2b00      	cmp	r3, #0
    1f18:	d002      	beq.n	1f20 <UART_ReadBlocking+0x60>
    1f1a:	f44f 737d 	mov.w	r3, #1012	; 0x3f4
    1f1e:	e011      	b.n	1f44 <UART_ReadBlocking+0x84>
    1f20:	68fb      	ldr	r3, [r7, #12]
    1f22:	7d9b      	ldrb	r3, [r3, #22]
    1f24:	b2db      	uxtb	r3, r3
    1f26:	2b00      	cmp	r3, #0
    1f28:	d0d6      	beq.n	1ed8 <UART_ReadBlocking+0x18>
    1f2a:	68bb      	ldr	r3, [r7, #8]
    1f2c:	1c5a      	adds	r2, r3, #1
    1f2e:	60ba      	str	r2, [r7, #8]
    1f30:	68fa      	ldr	r2, [r7, #12]
    1f32:	79d2      	ldrb	r2, [r2, #7]
    1f34:	b2d2      	uxtb	r2, r2
    1f36:	701a      	strb	r2, [r3, #0]
    1f38:	687b      	ldr	r3, [r7, #4]
    1f3a:	1e5a      	subs	r2, r3, #1
    1f3c:	607a      	str	r2, [r7, #4]
    1f3e:	2b00      	cmp	r3, #0
    1f40:	d1ee      	bne.n	1f20 <UART_ReadBlocking+0x60>
    1f42:	2300      	movs	r3, #0
    1f44:	4618      	mov	r0, r3
    1f46:	3718      	adds	r7, #24
    1f48:	46bd      	mov	sp, r7
    1f4a:	bd80      	pop	{r7, pc}
    1f4c:	000065d8 	.word	0x000065d8

00001f50 <UART0_DriverIRQHandler>:
    1f50:	b580      	push	{r7, lr}
    1f52:	af00      	add	r7, sp, #0
    1f54:	4b05      	ldr	r3, [pc, #20]	; (1f6c <UART0_DriverIRQHandler+0x1c>)
    1f56:	681b      	ldr	r3, [r3, #0]
    1f58:	4a05      	ldr	r2, [pc, #20]	; (1f70 <UART0_DriverIRQHandler+0x20>)
    1f5a:	6812      	ldr	r2, [r2, #0]
    1f5c:	4611      	mov	r1, r2
    1f5e:	4805      	ldr	r0, [pc, #20]	; (1f74 <UART0_DriverIRQHandler+0x24>)
    1f60:	4798      	blx	r3
    1f62:	f3bf 8f4f 	dsb	sy
    1f66:	bf00      	nop
    1f68:	bd80      	pop	{r7, pc}
    1f6a:	bf00      	nop
    1f6c:	20000040 	.word	0x20000040
    1f70:	2000002c 	.word	0x2000002c
    1f74:	4006a000 	.word	0x4006a000

00001f78 <UART1_DriverIRQHandler>:
    1f78:	b580      	push	{r7, lr}
    1f7a:	af00      	add	r7, sp, #0
    1f7c:	4b05      	ldr	r3, [pc, #20]	; (1f94 <UART1_DriverIRQHandler+0x1c>)
    1f7e:	681b      	ldr	r3, [r3, #0]
    1f80:	4a05      	ldr	r2, [pc, #20]	; (1f98 <UART1_DriverIRQHandler+0x20>)
    1f82:	6852      	ldr	r2, [r2, #4]
    1f84:	4611      	mov	r1, r2
    1f86:	4805      	ldr	r0, [pc, #20]	; (1f9c <UART1_DriverIRQHandler+0x24>)
    1f88:	4798      	blx	r3
    1f8a:	f3bf 8f4f 	dsb	sy
    1f8e:	bf00      	nop
    1f90:	bd80      	pop	{r7, pc}
    1f92:	bf00      	nop
    1f94:	20000040 	.word	0x20000040
    1f98:	2000002c 	.word	0x2000002c
    1f9c:	4006b000 	.word	0x4006b000

00001fa0 <UART2_DriverIRQHandler>:
    1fa0:	b580      	push	{r7, lr}
    1fa2:	af00      	add	r7, sp, #0
    1fa4:	4b05      	ldr	r3, [pc, #20]	; (1fbc <UART2_DriverIRQHandler+0x1c>)
    1fa6:	681b      	ldr	r3, [r3, #0]
    1fa8:	4a05      	ldr	r2, [pc, #20]	; (1fc0 <UART2_DriverIRQHandler+0x20>)
    1faa:	6892      	ldr	r2, [r2, #8]
    1fac:	4611      	mov	r1, r2
    1fae:	4805      	ldr	r0, [pc, #20]	; (1fc4 <UART2_DriverIRQHandler+0x24>)
    1fb0:	4798      	blx	r3
    1fb2:	f3bf 8f4f 	dsb	sy
    1fb6:	bf00      	nop
    1fb8:	bd80      	pop	{r7, pc}
    1fba:	bf00      	nop
    1fbc:	20000040 	.word	0x20000040
    1fc0:	2000002c 	.word	0x2000002c
    1fc4:	4006c000 	.word	0x4006c000

00001fc8 <UART3_DriverIRQHandler>:
    1fc8:	b580      	push	{r7, lr}
    1fca:	af00      	add	r7, sp, #0
    1fcc:	4b05      	ldr	r3, [pc, #20]	; (1fe4 <UART3_DriverIRQHandler+0x1c>)
    1fce:	681b      	ldr	r3, [r3, #0]
    1fd0:	4a05      	ldr	r2, [pc, #20]	; (1fe8 <UART3_DriverIRQHandler+0x20>)
    1fd2:	68d2      	ldr	r2, [r2, #12]
    1fd4:	4611      	mov	r1, r2
    1fd6:	4805      	ldr	r0, [pc, #20]	; (1fec <UART3_DriverIRQHandler+0x24>)
    1fd8:	4798      	blx	r3
    1fda:	f3bf 8f4f 	dsb	sy
    1fde:	bf00      	nop
    1fe0:	bd80      	pop	{r7, pc}
    1fe2:	bf00      	nop
    1fe4:	20000040 	.word	0x20000040
    1fe8:	2000002c 	.word	0x2000002c
    1fec:	4006d000 	.word	0x4006d000

00001ff0 <UART4_DriverIRQHandler>:
    1ff0:	b580      	push	{r7, lr}
    1ff2:	af00      	add	r7, sp, #0
    1ff4:	4b05      	ldr	r3, [pc, #20]	; (200c <UART4_DriverIRQHandler+0x1c>)
    1ff6:	681b      	ldr	r3, [r3, #0]
    1ff8:	4a05      	ldr	r2, [pc, #20]	; (2010 <UART4_DriverIRQHandler+0x20>)
    1ffa:	6912      	ldr	r2, [r2, #16]
    1ffc:	4611      	mov	r1, r2
    1ffe:	4805      	ldr	r0, [pc, #20]	; (2014 <UART4_DriverIRQHandler+0x24>)
    2000:	4798      	blx	r3
    2002:	f3bf 8f4f 	dsb	sy
    2006:	bf00      	nop
    2008:	bd80      	pop	{r7, pc}
    200a:	bf00      	nop
    200c:	20000040 	.word	0x20000040
    2010:	2000002c 	.word	0x2000002c
    2014:	400ea000 	.word	0x400ea000

00002018 <BOARD_InitDebugConsole>:
    2018:	b580      	push	{r7, lr}
    201a:	b082      	sub	sp, #8
    201c:	af00      	add	r7, sp, #0
    201e:	f7ff f829 	bl	1074 <CLOCK_GetCoreSysClkFreq>
    2022:	6078      	str	r0, [r7, #4]
    2024:	687b      	ldr	r3, [r7, #4]
    2026:	2201      	movs	r2, #1
    2028:	f44f 31e1 	mov.w	r1, #115200	; 0x1c200
    202c:	4803      	ldr	r0, [pc, #12]	; (203c <BOARD_InitDebugConsole+0x24>)
    202e:	f7fe fa3b 	bl	4a8 <DbgConsole_Init>
    2032:	bf00      	nop
    2034:	3708      	adds	r7, #8
    2036:	46bd      	mov	sp, r7
    2038:	bd80      	pop	{r7, pc}
    203a:	bf00      	nop
    203c:	4006a000 	.word	0x4006a000

00002040 <CLOCK_SetSimSafeDivs>:
    2040:	b480      	push	{r7}
    2042:	af00      	add	r7, sp, #0
    2044:	4b05      	ldr	r3, [pc, #20]	; (205c <CLOCK_SetSimSafeDivs+0x1c>)
    2046:	f503 5382 	add.w	r3, r3, #4160	; 0x1040
    204a:	3304      	adds	r3, #4
    204c:	4a04      	ldr	r2, [pc, #16]	; (2060 <CLOCK_SetSimSafeDivs+0x20>)
    204e:	601a      	str	r2, [r3, #0]
    2050:	bf00      	nop
    2052:	46bd      	mov	sp, r7
    2054:	f85d 7b04 	ldr.w	r7, [sp], #4
    2058:	4770      	bx	lr
    205a:	bf00      	nop
    205c:	40047000 	.word	0x40047000
    2060:	02260000 	.word	0x02260000

00002064 <CLOCK_SetXtal0Freq>:
    2064:	b480      	push	{r7}
    2066:	b083      	sub	sp, #12
    2068:	af00      	add	r7, sp, #0
    206a:	6078      	str	r0, [r7, #4]
    206c:	4a04      	ldr	r2, [pc, #16]	; (2080 <CLOCK_SetXtal0Freq+0x1c>)
    206e:	687b      	ldr	r3, [r7, #4]
    2070:	6013      	str	r3, [r2, #0]
    2072:	bf00      	nop
    2074:	370c      	adds	r7, #12
    2076:	46bd      	mov	sp, r7
    2078:	f85d 7b04 	ldr.w	r7, [sp], #4
    207c:	4770      	bx	lr
    207e:	bf00      	nop
    2080:	2000001c 	.word	0x2000001c

00002084 <CLOCK_CONFIG_SetFllExtRefDiv>:
    2084:	b480      	push	{r7}
    2086:	b083      	sub	sp, #12
    2088:	af00      	add	r7, sp, #0
    208a:	4603      	mov	r3, r0
    208c:	71fb      	strb	r3, [r7, #7]
    208e:	4b0b      	ldr	r3, [pc, #44]	; (20bc <CLOCK_CONFIG_SetFllExtRefDiv+0x38>)
    2090:	781b      	ldrb	r3, [r3, #0]
    2092:	b2db      	uxtb	r3, r3
    2094:	f023 0338 	bic.w	r3, r3, #56	; 0x38
    2098:	b2da      	uxtb	r2, r3
    209a:	79fb      	ldrb	r3, [r7, #7]
    209c:	00db      	lsls	r3, r3, #3
    209e:	b2db      	uxtb	r3, r3
    20a0:	f003 0338 	and.w	r3, r3, #56	; 0x38
    20a4:	b2db      	uxtb	r3, r3
    20a6:	4905      	ldr	r1, [pc, #20]	; (20bc <CLOCK_CONFIG_SetFllExtRefDiv+0x38>)
    20a8:	4313      	orrs	r3, r2
    20aa:	b2db      	uxtb	r3, r3
    20ac:	700b      	strb	r3, [r1, #0]
    20ae:	bf00      	nop
    20b0:	370c      	adds	r7, #12
    20b2:	46bd      	mov	sp, r7
    20b4:	f85d 7b04 	ldr.w	r7, [sp], #4
    20b8:	4770      	bx	lr
    20ba:	bf00      	nop
    20bc:	40064000 	.word	0x40064000

000020c0 <BOARD_BootClockRUN>:
    20c0:	b580      	push	{r7, lr}
    20c2:	af00      	add	r7, sp, #0
    20c4:	f7ff ffbc 	bl	2040 <CLOCK_SetSimSafeDivs>
    20c8:	480f      	ldr	r0, [pc, #60]	; (2108 <BOARD_BootClockRUN+0x48>)
    20ca:	f7ff f9cb 	bl	1464 <CLOCK_InitOsc0>
    20ce:	4b0f      	ldr	r3, [pc, #60]	; (210c <BOARD_BootClockRUN+0x4c>)
    20d0:	4618      	mov	r0, r3
    20d2:	f7ff ffc7 	bl	2064 <CLOCK_SetXtal0Freq>
    20d6:	2302      	movs	r3, #2
    20d8:	2100      	movs	r1, #0
    20da:	2200      	movs	r2, #0
    20dc:	4618      	mov	r0, r3
    20de:	f7ff f8fd 	bl	12dc <CLOCK_SetInternalRefClkConfig>
    20e2:	2300      	movs	r3, #0
    20e4:	4618      	mov	r0, r3
    20e6:	f7ff ffcd 	bl	2084 <CLOCK_CONFIG_SetFllExtRefDiv>
    20ea:	2300      	movs	r3, #0
    20ec:	2100      	movs	r1, #0
    20ee:	4a08      	ldr	r2, [pc, #32]	; (2110 <BOARD_BootClockRUN+0x50>)
    20f0:	4618      	mov	r0, r3
    20f2:	f7ff fa71 	bl	15d8 <CLOCK_BootToPeeMode>
    20f6:	4807      	ldr	r0, [pc, #28]	; (2114 <BOARD_BootClockRUN+0x54>)
    20f8:	f7fe ffd0 	bl	109c <CLOCK_SetSimConfig>
    20fc:	4b06      	ldr	r3, [pc, #24]	; (2118 <BOARD_BootClockRUN+0x58>)
    20fe:	4a07      	ldr	r2, [pc, #28]	; (211c <BOARD_BootClockRUN+0x5c>)
    2100:	601a      	str	r2, [r3, #0]
    2102:	bf00      	nop
    2104:	bd80      	pop	{r7, pc}
    2106:	bf00      	nop
    2108:	000068fc 	.word	0x000068fc
    210c:	00b71b00 	.word	0x00b71b00
    2110:	000068f0 	.word	0x000068f0
    2114:	000068f4 	.word	0x000068f4
    2118:	2000000c 	.word	0x2000000c
    211c:	07270e00 	.word	0x07270e00

00002120 <BOARD_InitPins>:
    2120:	b580      	push	{r7, lr}
    2122:	af00      	add	r7, sp, #0
    2124:	480d      	ldr	r0, [pc, #52]	; (215c <BOARD_InitPins+0x3c>)
    2126:	f002 fe9f 	bl	4e68 <CLOCK_EnableClock>
    212a:	2203      	movs	r2, #3
    212c:	2110      	movs	r1, #16
    212e:	480c      	ldr	r0, [pc, #48]	; (2160 <BOARD_InitPins+0x40>)
    2130:	f002 feb4 	bl	4e9c <PORT_SetPinMux>
    2134:	2203      	movs	r2, #3
    2136:	2111      	movs	r1, #17
    2138:	4809      	ldr	r0, [pc, #36]	; (2160 <BOARD_InitPins+0x40>)
    213a:	f002 feaf 	bl	4e9c <PORT_SetPinMux>
    213e:	4b09      	ldr	r3, [pc, #36]	; (2164 <BOARD_InitPins+0x44>)
    2140:	f503 5380 	add.w	r3, r3, #4096	; 0x1000
    2144:	3310      	adds	r3, #16
    2146:	681b      	ldr	r3, [r3, #0]
    2148:	4906      	ldr	r1, [pc, #24]	; (2164 <BOARD_InitPins+0x44>)
    214a:	f023 0203 	bic.w	r2, r3, #3
    214e:	f501 5380 	add.w	r3, r1, #4096	; 0x1000
    2152:	3310      	adds	r3, #16
    2154:	601a      	str	r2, [r3, #0]
    2156:	bf00      	nop
    2158:	bd80      	pop	{r7, pc}
    215a:	bf00      	nop
    215c:	1038000a 	.word	0x1038000a
    2160:	4004a000 	.word	0x4004a000
    2164:	40047000 	.word	0x40047000

00002168 <vPortSetupTimerInterrupt>:
    2168:	b480      	push	{r7}
    216a:	af00      	add	r7, sp, #0
    216c:	4b0b      	ldr	r3, [pc, #44]	; (219c <vPortSetupTimerInterrupt+0x34>)
    216e:	2200      	movs	r2, #0
    2170:	601a      	str	r2, [r3, #0]
    2172:	4b0b      	ldr	r3, [pc, #44]	; (21a0 <vPortSetupTimerInterrupt+0x38>)
    2174:	2200      	movs	r2, #0
    2176:	601a      	str	r2, [r3, #0]
    2178:	4b0a      	ldr	r3, [pc, #40]	; (21a4 <vPortSetupTimerInterrupt+0x3c>)
    217a:	681b      	ldr	r3, [r3, #0]
    217c:	4a0a      	ldr	r2, [pc, #40]	; (21a8 <vPortSetupTimerInterrupt+0x40>)
    217e:	fba2 2303 	umull	r2, r3, r2, r3
    2182:	099b      	lsrs	r3, r3, #6
    2184:	4a09      	ldr	r2, [pc, #36]	; (21ac <vPortSetupTimerInterrupt+0x44>)
    2186:	3b01      	subs	r3, #1
    2188:	6013      	str	r3, [r2, #0]
    218a:	4b04      	ldr	r3, [pc, #16]	; (219c <vPortSetupTimerInterrupt+0x34>)
    218c:	2207      	movs	r2, #7
    218e:	601a      	str	r2, [r3, #0]
    2190:	bf00      	nop
    2192:	46bd      	mov	sp, r7
    2194:	f85d 7b04 	ldr.w	r7, [sp], #4
    2198:	4770      	bx	lr
    219a:	bf00      	nop
    219c:	e000e010 	.word	0xe000e010
    21a0:	e000e018 	.word	0xe000e018
    21a4:	2000000c 	.word	0x2000000c
    21a8:	51eb851f 	.word	0x51eb851f
    21ac:	e000e014 	.word	0xe000e014

000021b0 <pvPortMalloc>:
    21b0:	b580      	push	{r7, lr}
    21b2:	b08a      	sub	sp, #40	; 0x28
    21b4:	af00      	add	r7, sp, #0
    21b6:	6078      	str	r0, [r7, #4]
    21b8:	2300      	movs	r3, #0
    21ba:	61fb      	str	r3, [r7, #28]
    21bc:	f000 febc 	bl	2f38 <vTaskSuspendAll>
    21c0:	4b57      	ldr	r3, [pc, #348]	; (2320 <pvPortMalloc+0x170>)
    21c2:	681b      	ldr	r3, [r3, #0]
    21c4:	2b00      	cmp	r3, #0
    21c6:	d101      	bne.n	21cc <pvPortMalloc+0x1c>
    21c8:	f000 f90c 	bl	23e4 <prvHeapInit>
    21cc:	4b55      	ldr	r3, [pc, #340]	; (2324 <pvPortMalloc+0x174>)
    21ce:	681a      	ldr	r2, [r3, #0]
    21d0:	687b      	ldr	r3, [r7, #4]
    21d2:	4013      	ands	r3, r2
    21d4:	2b00      	cmp	r3, #0
    21d6:	f040 808c 	bne.w	22f2 <pvPortMalloc+0x142>
    21da:	687b      	ldr	r3, [r7, #4]
    21dc:	2b00      	cmp	r3, #0
    21de:	d01c      	beq.n	221a <pvPortMalloc+0x6a>
    21e0:	2208      	movs	r2, #8
    21e2:	687b      	ldr	r3, [r7, #4]
    21e4:	4413      	add	r3, r2
    21e6:	607b      	str	r3, [r7, #4]
    21e8:	687b      	ldr	r3, [r7, #4]
    21ea:	f003 0307 	and.w	r3, r3, #7
    21ee:	2b00      	cmp	r3, #0
    21f0:	d013      	beq.n	221a <pvPortMalloc+0x6a>
    21f2:	687b      	ldr	r3, [r7, #4]
    21f4:	f023 0307 	bic.w	r3, r3, #7
    21f8:	3308      	adds	r3, #8
    21fa:	607b      	str	r3, [r7, #4]
    21fc:	687b      	ldr	r3, [r7, #4]
    21fe:	f003 0307 	and.w	r3, r3, #7
    2202:	2b00      	cmp	r3, #0
    2204:	d009      	beq.n	221a <pvPortMalloc+0x6a>
    2206:	f04f 0320 	mov.w	r3, #32
    220a:	f383 8811 	msr	BASEPRI, r3
    220e:	f3bf 8f6f 	isb	sy
    2212:	f3bf 8f4f 	dsb	sy
    2216:	617b      	str	r3, [r7, #20]
    2218:	e7fe      	b.n	2218 <pvPortMalloc+0x68>
    221a:	687b      	ldr	r3, [r7, #4]
    221c:	2b00      	cmp	r3, #0
    221e:	d068      	beq.n	22f2 <pvPortMalloc+0x142>
    2220:	4b41      	ldr	r3, [pc, #260]	; (2328 <pvPortMalloc+0x178>)
    2222:	681b      	ldr	r3, [r3, #0]
    2224:	687a      	ldr	r2, [r7, #4]
    2226:	429a      	cmp	r2, r3
    2228:	d863      	bhi.n	22f2 <pvPortMalloc+0x142>
    222a:	4b40      	ldr	r3, [pc, #256]	; (232c <pvPortMalloc+0x17c>)
    222c:	623b      	str	r3, [r7, #32]
    222e:	4b3f      	ldr	r3, [pc, #252]	; (232c <pvPortMalloc+0x17c>)
    2230:	681b      	ldr	r3, [r3, #0]
    2232:	627b      	str	r3, [r7, #36]	; 0x24
    2234:	e004      	b.n	2240 <pvPortMalloc+0x90>
    2236:	6a7b      	ldr	r3, [r7, #36]	; 0x24
    2238:	623b      	str	r3, [r7, #32]
    223a:	6a7b      	ldr	r3, [r7, #36]	; 0x24
    223c:	681b      	ldr	r3, [r3, #0]
    223e:	627b      	str	r3, [r7, #36]	; 0x24
    2240:	6a7b      	ldr	r3, [r7, #36]	; 0x24
    2242:	685b      	ldr	r3, [r3, #4]
    2244:	687a      	ldr	r2, [r7, #4]
    2246:	429a      	cmp	r2, r3
    2248:	d903      	bls.n	2252 <pvPortMalloc+0xa2>
    224a:	6a7b      	ldr	r3, [r7, #36]	; 0x24
    224c:	681b      	ldr	r3, [r3, #0]
    224e:	2b00      	cmp	r3, #0
    2250:	d1f1      	bne.n	2236 <pvPortMalloc+0x86>
    2252:	4b33      	ldr	r3, [pc, #204]	; (2320 <pvPortMalloc+0x170>)
    2254:	681b      	ldr	r3, [r3, #0]
    2256:	6a7a      	ldr	r2, [r7, #36]	; 0x24
    2258:	429a      	cmp	r2, r3
    225a:	d04a      	beq.n	22f2 <pvPortMalloc+0x142>
    225c:	6a3b      	ldr	r3, [r7, #32]
    225e:	681b      	ldr	r3, [r3, #0]
    2260:	2208      	movs	r2, #8
    2262:	4413      	add	r3, r2
    2264:	61fb      	str	r3, [r7, #28]
    2266:	6a7b      	ldr	r3, [r7, #36]	; 0x24
    2268:	681a      	ldr	r2, [r3, #0]
    226a:	6a3b      	ldr	r3, [r7, #32]
    226c:	601a      	str	r2, [r3, #0]
    226e:	6a7b      	ldr	r3, [r7, #36]	; 0x24
    2270:	685a      	ldr	r2, [r3, #4]
    2272:	687b      	ldr	r3, [r7, #4]
    2274:	1ad2      	subs	r2, r2, r3
    2276:	2308      	movs	r3, #8
    2278:	005b      	lsls	r3, r3, #1
    227a:	429a      	cmp	r2, r3
    227c:	d91e      	bls.n	22bc <pvPortMalloc+0x10c>
    227e:	6a7a      	ldr	r2, [r7, #36]	; 0x24
    2280:	687b      	ldr	r3, [r7, #4]
    2282:	4413      	add	r3, r2
    2284:	61bb      	str	r3, [r7, #24]
    2286:	69bb      	ldr	r3, [r7, #24]
    2288:	f003 0307 	and.w	r3, r3, #7
    228c:	2b00      	cmp	r3, #0
    228e:	d009      	beq.n	22a4 <pvPortMalloc+0xf4>
    2290:	f04f 0320 	mov.w	r3, #32
    2294:	f383 8811 	msr	BASEPRI, r3
    2298:	f3bf 8f6f 	isb	sy
    229c:	f3bf 8f4f 	dsb	sy
    22a0:	613b      	str	r3, [r7, #16]
    22a2:	e7fe      	b.n	22a2 <pvPortMalloc+0xf2>
    22a4:	6a7b      	ldr	r3, [r7, #36]	; 0x24
    22a6:	685a      	ldr	r2, [r3, #4]
    22a8:	687b      	ldr	r3, [r7, #4]
    22aa:	1ad2      	subs	r2, r2, r3
    22ac:	69bb      	ldr	r3, [r7, #24]
    22ae:	605a      	str	r2, [r3, #4]
    22b0:	6a7b      	ldr	r3, [r7, #36]	; 0x24
    22b2:	687a      	ldr	r2, [r7, #4]
    22b4:	605a      	str	r2, [r3, #4]
    22b6:	69b8      	ldr	r0, [r7, #24]
    22b8:	f000 f8f6 	bl	24a8 <prvInsertBlockIntoFreeList>
    22bc:	4b1a      	ldr	r3, [pc, #104]	; (2328 <pvPortMalloc+0x178>)
    22be:	681a      	ldr	r2, [r3, #0]
    22c0:	6a7b      	ldr	r3, [r7, #36]	; 0x24
    22c2:	685b      	ldr	r3, [r3, #4]
    22c4:	1ad3      	subs	r3, r2, r3
    22c6:	4a18      	ldr	r2, [pc, #96]	; (2328 <pvPortMalloc+0x178>)
    22c8:	6013      	str	r3, [r2, #0]
    22ca:	4b17      	ldr	r3, [pc, #92]	; (2328 <pvPortMalloc+0x178>)
    22cc:	681a      	ldr	r2, [r3, #0]
    22ce:	4b18      	ldr	r3, [pc, #96]	; (2330 <pvPortMalloc+0x180>)
    22d0:	681b      	ldr	r3, [r3, #0]
    22d2:	429a      	cmp	r2, r3
    22d4:	d203      	bcs.n	22de <pvPortMalloc+0x12e>
    22d6:	4b14      	ldr	r3, [pc, #80]	; (2328 <pvPortMalloc+0x178>)
    22d8:	681b      	ldr	r3, [r3, #0]
    22da:	4a15      	ldr	r2, [pc, #84]	; (2330 <pvPortMalloc+0x180>)
    22dc:	6013      	str	r3, [r2, #0]
    22de:	6a7b      	ldr	r3, [r7, #36]	; 0x24
    22e0:	685a      	ldr	r2, [r3, #4]
    22e2:	4b10      	ldr	r3, [pc, #64]	; (2324 <pvPortMalloc+0x174>)
    22e4:	681b      	ldr	r3, [r3, #0]
    22e6:	431a      	orrs	r2, r3
    22e8:	6a7b      	ldr	r3, [r7, #36]	; 0x24
    22ea:	605a      	str	r2, [r3, #4]
    22ec:	6a7b      	ldr	r3, [r7, #36]	; 0x24
    22ee:	2200      	movs	r2, #0
    22f0:	601a      	str	r2, [r3, #0]
    22f2:	f000 fe2f 	bl	2f54 <xTaskResumeAll>
    22f6:	69fb      	ldr	r3, [r7, #28]
    22f8:	f003 0307 	and.w	r3, r3, #7
    22fc:	2b00      	cmp	r3, #0
    22fe:	d009      	beq.n	2314 <pvPortMalloc+0x164>
    2300:	f04f 0320 	mov.w	r3, #32
    2304:	f383 8811 	msr	BASEPRI, r3
    2308:	f3bf 8f6f 	isb	sy
    230c:	f3bf 8f4f 	dsb	sy
    2310:	60fb      	str	r3, [r7, #12]
    2312:	e7fe      	b.n	2312 <pvPortMalloc+0x162>
    2314:	69fb      	ldr	r3, [r7, #28]
    2316:	4618      	mov	r0, r3
    2318:	3728      	adds	r7, #40	; 0x28
    231a:	46bd      	mov	sp, r7
    231c:	bd80      	pop	{r7, pc}
    231e:	bf00      	nop
    2320:	2000284c 	.word	0x2000284c
    2324:	20002858 	.word	0x20002858
    2328:	20002850 	.word	0x20002850
    232c:	20002844 	.word	0x20002844
    2330:	20002854 	.word	0x20002854

00002334 <vPortFree>:
    2334:	b580      	push	{r7, lr}
    2336:	b086      	sub	sp, #24
    2338:	af00      	add	r7, sp, #0
    233a:	6078      	str	r0, [r7, #4]
    233c:	687b      	ldr	r3, [r7, #4]
    233e:	617b      	str	r3, [r7, #20]
    2340:	687b      	ldr	r3, [r7, #4]
    2342:	2b00      	cmp	r3, #0
    2344:	d046      	beq.n	23d4 <vPortFree+0xa0>
    2346:	2308      	movs	r3, #8
    2348:	425b      	negs	r3, r3
    234a:	697a      	ldr	r2, [r7, #20]
    234c:	4413      	add	r3, r2
    234e:	617b      	str	r3, [r7, #20]
    2350:	697b      	ldr	r3, [r7, #20]
    2352:	613b      	str	r3, [r7, #16]
    2354:	693b      	ldr	r3, [r7, #16]
    2356:	685a      	ldr	r2, [r3, #4]
    2358:	4b20      	ldr	r3, [pc, #128]	; (23dc <vPortFree+0xa8>)
    235a:	681b      	ldr	r3, [r3, #0]
    235c:	4013      	ands	r3, r2
    235e:	2b00      	cmp	r3, #0
    2360:	d109      	bne.n	2376 <vPortFree+0x42>
    2362:	f04f 0320 	mov.w	r3, #32
    2366:	f383 8811 	msr	BASEPRI, r3
    236a:	f3bf 8f6f 	isb	sy
    236e:	f3bf 8f4f 	dsb	sy
    2372:	60fb      	str	r3, [r7, #12]
    2374:	e7fe      	b.n	2374 <vPortFree+0x40>
    2376:	693b      	ldr	r3, [r7, #16]
    2378:	681b      	ldr	r3, [r3, #0]
    237a:	2b00      	cmp	r3, #0
    237c:	d009      	beq.n	2392 <vPortFree+0x5e>
    237e:	f04f 0320 	mov.w	r3, #32
    2382:	f383 8811 	msr	BASEPRI, r3
    2386:	f3bf 8f6f 	isb	sy
    238a:	f3bf 8f4f 	dsb	sy
    238e:	60bb      	str	r3, [r7, #8]
    2390:	e7fe      	b.n	2390 <vPortFree+0x5c>
    2392:	693b      	ldr	r3, [r7, #16]
    2394:	685a      	ldr	r2, [r3, #4]
    2396:	4b11      	ldr	r3, [pc, #68]	; (23dc <vPortFree+0xa8>)
    2398:	681b      	ldr	r3, [r3, #0]
    239a:	4013      	ands	r3, r2
    239c:	2b00      	cmp	r3, #0
    239e:	d019      	beq.n	23d4 <vPortFree+0xa0>
    23a0:	693b      	ldr	r3, [r7, #16]
    23a2:	681b      	ldr	r3, [r3, #0]
    23a4:	2b00      	cmp	r3, #0
    23a6:	d115      	bne.n	23d4 <vPortFree+0xa0>
    23a8:	693b      	ldr	r3, [r7, #16]
    23aa:	685a      	ldr	r2, [r3, #4]
    23ac:	4b0b      	ldr	r3, [pc, #44]	; (23dc <vPortFree+0xa8>)
    23ae:	681b      	ldr	r3, [r3, #0]
    23b0:	43db      	mvns	r3, r3
    23b2:	401a      	ands	r2, r3
    23b4:	693b      	ldr	r3, [r7, #16]
    23b6:	605a      	str	r2, [r3, #4]
    23b8:	f000 fdbe 	bl	2f38 <vTaskSuspendAll>
    23bc:	693b      	ldr	r3, [r7, #16]
    23be:	685a      	ldr	r2, [r3, #4]
    23c0:	4b07      	ldr	r3, [pc, #28]	; (23e0 <vPortFree+0xac>)
    23c2:	681b      	ldr	r3, [r3, #0]
    23c4:	4413      	add	r3, r2
    23c6:	4a06      	ldr	r2, [pc, #24]	; (23e0 <vPortFree+0xac>)
    23c8:	6013      	str	r3, [r2, #0]
    23ca:	6938      	ldr	r0, [r7, #16]
    23cc:	f000 f86c 	bl	24a8 <prvInsertBlockIntoFreeList>
    23d0:	f000 fdc0 	bl	2f54 <xTaskResumeAll>
    23d4:	bf00      	nop
    23d6:	3718      	adds	r7, #24
    23d8:	46bd      	mov	sp, r7
    23da:	bd80      	pop	{r7, pc}
    23dc:	20002858 	.word	0x20002858
    23e0:	20002850 	.word	0x20002850

000023e4 <prvHeapInit>:
    23e4:	b480      	push	{r7}
    23e6:	b085      	sub	sp, #20
    23e8:	af00      	add	r7, sp, #0
    23ea:	f44f 5320 	mov.w	r3, #10240	; 0x2800
    23ee:	60bb      	str	r3, [r7, #8]
    23f0:	4b27      	ldr	r3, [pc, #156]	; (2490 <prvHeapInit+0xac>)
    23f2:	60fb      	str	r3, [r7, #12]
    23f4:	68fb      	ldr	r3, [r7, #12]
    23f6:	f003 0307 	and.w	r3, r3, #7
    23fa:	2b00      	cmp	r3, #0
    23fc:	d00c      	beq.n	2418 <prvHeapInit+0x34>
    23fe:	68fb      	ldr	r3, [r7, #12]
    2400:	3307      	adds	r3, #7
    2402:	60fb      	str	r3, [r7, #12]
    2404:	68fb      	ldr	r3, [r7, #12]
    2406:	f023 0307 	bic.w	r3, r3, #7
    240a:	60fb      	str	r3, [r7, #12]
    240c:	68ba      	ldr	r2, [r7, #8]
    240e:	68fb      	ldr	r3, [r7, #12]
    2410:	1ad3      	subs	r3, r2, r3
    2412:	4a1f      	ldr	r2, [pc, #124]	; (2490 <prvHeapInit+0xac>)
    2414:	4413      	add	r3, r2
    2416:	60bb      	str	r3, [r7, #8]
    2418:	68fb      	ldr	r3, [r7, #12]
    241a:	607b      	str	r3, [r7, #4]
    241c:	4a1d      	ldr	r2, [pc, #116]	; (2494 <prvHeapInit+0xb0>)
    241e:	687b      	ldr	r3, [r7, #4]
    2420:	6013      	str	r3, [r2, #0]
    2422:	4b1c      	ldr	r3, [pc, #112]	; (2494 <prvHeapInit+0xb0>)
    2424:	2200      	movs	r2, #0
    2426:	605a      	str	r2, [r3, #4]
    2428:	687b      	ldr	r3, [r7, #4]
    242a:	68ba      	ldr	r2, [r7, #8]
    242c:	4413      	add	r3, r2
    242e:	60fb      	str	r3, [r7, #12]
    2430:	2208      	movs	r2, #8
    2432:	68fb      	ldr	r3, [r7, #12]
    2434:	1a9b      	subs	r3, r3, r2
    2436:	60fb      	str	r3, [r7, #12]
    2438:	68fb      	ldr	r3, [r7, #12]
    243a:	f023 0307 	bic.w	r3, r3, #7
    243e:	60fb      	str	r3, [r7, #12]
    2440:	68fb      	ldr	r3, [r7, #12]
    2442:	4a15      	ldr	r2, [pc, #84]	; (2498 <prvHeapInit+0xb4>)
    2444:	6013      	str	r3, [r2, #0]
    2446:	4b14      	ldr	r3, [pc, #80]	; (2498 <prvHeapInit+0xb4>)
    2448:	681b      	ldr	r3, [r3, #0]
    244a:	2200      	movs	r2, #0
    244c:	605a      	str	r2, [r3, #4]
    244e:	4b12      	ldr	r3, [pc, #72]	; (2498 <prvHeapInit+0xb4>)
    2450:	681b      	ldr	r3, [r3, #0]
    2452:	2200      	movs	r2, #0
    2454:	601a      	str	r2, [r3, #0]
    2456:	687b      	ldr	r3, [r7, #4]
    2458:	603b      	str	r3, [r7, #0]
    245a:	683b      	ldr	r3, [r7, #0]
    245c:	68fa      	ldr	r2, [r7, #12]
    245e:	1ad2      	subs	r2, r2, r3
    2460:	683b      	ldr	r3, [r7, #0]
    2462:	605a      	str	r2, [r3, #4]
    2464:	4b0c      	ldr	r3, [pc, #48]	; (2498 <prvHeapInit+0xb4>)
    2466:	681a      	ldr	r2, [r3, #0]
    2468:	683b      	ldr	r3, [r7, #0]
    246a:	601a      	str	r2, [r3, #0]
    246c:	683b      	ldr	r3, [r7, #0]
    246e:	685b      	ldr	r3, [r3, #4]
    2470:	4a0a      	ldr	r2, [pc, #40]	; (249c <prvHeapInit+0xb8>)
    2472:	6013      	str	r3, [r2, #0]
    2474:	683b      	ldr	r3, [r7, #0]
    2476:	685b      	ldr	r3, [r3, #4]
    2478:	4a09      	ldr	r2, [pc, #36]	; (24a0 <prvHeapInit+0xbc>)
    247a:	6013      	str	r3, [r2, #0]
    247c:	4b09      	ldr	r3, [pc, #36]	; (24a4 <prvHeapInit+0xc0>)
    247e:	f04f 4200 	mov.w	r2, #2147483648	; 0x80000000
    2482:	601a      	str	r2, [r3, #0]
    2484:	bf00      	nop
    2486:	3714      	adds	r7, #20
    2488:	46bd      	mov	sp, r7
    248a:	f85d 7b04 	ldr.w	r7, [sp], #4
    248e:	4770      	bx	lr
    2490:	20000044 	.word	0x20000044
    2494:	20002844 	.word	0x20002844
    2498:	2000284c 	.word	0x2000284c
    249c:	20002854 	.word	0x20002854
    24a0:	20002850 	.word	0x20002850
    24a4:	20002858 	.word	0x20002858

000024a8 <prvInsertBlockIntoFreeList>:
    24a8:	b480      	push	{r7}
    24aa:	b085      	sub	sp, #20
    24ac:	af00      	add	r7, sp, #0
    24ae:	6078      	str	r0, [r7, #4]
    24b0:	4b28      	ldr	r3, [pc, #160]	; (2554 <prvInsertBlockIntoFreeList+0xac>)
    24b2:	60fb      	str	r3, [r7, #12]
    24b4:	e002      	b.n	24bc <prvInsertBlockIntoFreeList+0x14>
    24b6:	68fb      	ldr	r3, [r7, #12]
    24b8:	681b      	ldr	r3, [r3, #0]
    24ba:	60fb      	str	r3, [r7, #12]
    24bc:	68fb      	ldr	r3, [r7, #12]
    24be:	681b      	ldr	r3, [r3, #0]
    24c0:	687a      	ldr	r2, [r7, #4]
    24c2:	429a      	cmp	r2, r3
    24c4:	d8f7      	bhi.n	24b6 <prvInsertBlockIntoFreeList+0xe>
    24c6:	68fb      	ldr	r3, [r7, #12]
    24c8:	60bb      	str	r3, [r7, #8]
    24ca:	68fb      	ldr	r3, [r7, #12]
    24cc:	685b      	ldr	r3, [r3, #4]
    24ce:	68ba      	ldr	r2, [r7, #8]
    24d0:	4413      	add	r3, r2
    24d2:	687a      	ldr	r2, [r7, #4]
    24d4:	429a      	cmp	r2, r3
    24d6:	d108      	bne.n	24ea <prvInsertBlockIntoFreeList+0x42>
    24d8:	68fb      	ldr	r3, [r7, #12]
    24da:	685a      	ldr	r2, [r3, #4]
    24dc:	687b      	ldr	r3, [r7, #4]
    24de:	685b      	ldr	r3, [r3, #4]
    24e0:	441a      	add	r2, r3
    24e2:	68fb      	ldr	r3, [r7, #12]
    24e4:	605a      	str	r2, [r3, #4]
    24e6:	68fb      	ldr	r3, [r7, #12]
    24e8:	607b      	str	r3, [r7, #4]
    24ea:	687b      	ldr	r3, [r7, #4]
    24ec:	60bb      	str	r3, [r7, #8]
    24ee:	687b      	ldr	r3, [r7, #4]
    24f0:	685b      	ldr	r3, [r3, #4]
    24f2:	68ba      	ldr	r2, [r7, #8]
    24f4:	441a      	add	r2, r3
    24f6:	68fb      	ldr	r3, [r7, #12]
    24f8:	681b      	ldr	r3, [r3, #0]
    24fa:	429a      	cmp	r2, r3
    24fc:	d118      	bne.n	2530 <prvInsertBlockIntoFreeList+0x88>
    24fe:	68fb      	ldr	r3, [r7, #12]
    2500:	681a      	ldr	r2, [r3, #0]
    2502:	4b15      	ldr	r3, [pc, #84]	; (2558 <prvInsertBlockIntoFreeList+0xb0>)
    2504:	681b      	ldr	r3, [r3, #0]
    2506:	429a      	cmp	r2, r3
    2508:	d00d      	beq.n	2526 <prvInsertBlockIntoFreeList+0x7e>
    250a:	687b      	ldr	r3, [r7, #4]
    250c:	685a      	ldr	r2, [r3, #4]
    250e:	68fb      	ldr	r3, [r7, #12]
    2510:	681b      	ldr	r3, [r3, #0]
    2512:	685b      	ldr	r3, [r3, #4]
    2514:	441a      	add	r2, r3
    2516:	687b      	ldr	r3, [r7, #4]
    2518:	605a      	str	r2, [r3, #4]
    251a:	68fb      	ldr	r3, [r7, #12]
    251c:	681b      	ldr	r3, [r3, #0]
    251e:	681a      	ldr	r2, [r3, #0]
    2520:	687b      	ldr	r3, [r7, #4]
    2522:	601a      	str	r2, [r3, #0]
    2524:	e008      	b.n	2538 <prvInsertBlockIntoFreeList+0x90>
    2526:	4b0c      	ldr	r3, [pc, #48]	; (2558 <prvInsertBlockIntoFreeList+0xb0>)
    2528:	681a      	ldr	r2, [r3, #0]
    252a:	687b      	ldr	r3, [r7, #4]
    252c:	601a      	str	r2, [r3, #0]
    252e:	e003      	b.n	2538 <prvInsertBlockIntoFreeList+0x90>
    2530:	68fb      	ldr	r3, [r7, #12]
    2532:	681a      	ldr	r2, [r3, #0]
    2534:	687b      	ldr	r3, [r7, #4]
    2536:	601a      	str	r2, [r3, #0]
    2538:	68fa      	ldr	r2, [r7, #12]
    253a:	687b      	ldr	r3, [r7, #4]
    253c:	429a      	cmp	r2, r3
    253e:	d002      	beq.n	2546 <prvInsertBlockIntoFreeList+0x9e>
    2540:	68fb      	ldr	r3, [r7, #12]
    2542:	687a      	ldr	r2, [r7, #4]
    2544:	601a      	str	r2, [r3, #0]
    2546:	bf00      	nop
    2548:	3714      	adds	r7, #20
    254a:	46bd      	mov	sp, r7
    254c:	f85d 7b04 	ldr.w	r7, [sp], #4
    2550:	4770      	bx	lr
    2552:	bf00      	nop
    2554:	20002844 	.word	0x20002844
    2558:	2000284c 	.word	0x2000284c

0000255c <pxPortInitialiseStack>:
    255c:	b480      	push	{r7}
    255e:	b085      	sub	sp, #20
    2560:	af00      	add	r7, sp, #0
    2562:	60f8      	str	r0, [r7, #12]
    2564:	60b9      	str	r1, [r7, #8]
    2566:	607a      	str	r2, [r7, #4]
    2568:	68fb      	ldr	r3, [r7, #12]
    256a:	3b04      	subs	r3, #4
    256c:	60fb      	str	r3, [r7, #12]
    256e:	68fb      	ldr	r3, [r7, #12]
    2570:	f04f 7280 	mov.w	r2, #16777216	; 0x1000000
    2574:	601a      	str	r2, [r3, #0]
    2576:	68fb      	ldr	r3, [r7, #12]
    2578:	3b04      	subs	r3, #4
    257a:	60fb      	str	r3, [r7, #12]
    257c:	68bb      	ldr	r3, [r7, #8]
    257e:	f023 0201 	bic.w	r2, r3, #1
    2582:	68fb      	ldr	r3, [r7, #12]
    2584:	601a      	str	r2, [r3, #0]
    2586:	68fb      	ldr	r3, [r7, #12]
    2588:	3b04      	subs	r3, #4
    258a:	60fb      	str	r3, [r7, #12]
    258c:	4a0c      	ldr	r2, [pc, #48]	; (25c0 <pxPortInitialiseStack+0x64>)
    258e:	68fb      	ldr	r3, [r7, #12]
    2590:	601a      	str	r2, [r3, #0]
    2592:	68fb      	ldr	r3, [r7, #12]
    2594:	3b14      	subs	r3, #20
    2596:	60fb      	str	r3, [r7, #12]
    2598:	687a      	ldr	r2, [r7, #4]
    259a:	68fb      	ldr	r3, [r7, #12]
    259c:	601a      	str	r2, [r3, #0]
    259e:	68fb      	ldr	r3, [r7, #12]
    25a0:	3b04      	subs	r3, #4
    25a2:	60fb      	str	r3, [r7, #12]
    25a4:	68fb      	ldr	r3, [r7, #12]
    25a6:	f06f 0202 	mvn.w	r2, #2
    25aa:	601a      	str	r2, [r3, #0]
    25ac:	68fb      	ldr	r3, [r7, #12]
    25ae:	3b20      	subs	r3, #32
    25b0:	60fb      	str	r3, [r7, #12]
    25b2:	68fb      	ldr	r3, [r7, #12]
    25b4:	4618      	mov	r0, r3
    25b6:	3714      	adds	r7, #20
    25b8:	46bd      	mov	sp, r7
    25ba:	f85d 7b04 	ldr.w	r7, [sp], #4
    25be:	4770      	bx	lr
    25c0:	000025c5 	.word	0x000025c5

000025c4 <prvTaskExitError>:
    25c4:	b480      	push	{r7}
    25c6:	b085      	sub	sp, #20
    25c8:	af00      	add	r7, sp, #0
    25ca:	2300      	movs	r3, #0
    25cc:	607b      	str	r3, [r7, #4]
    25ce:	4b11      	ldr	r3, [pc, #68]	; (2614 <prvTaskExitError+0x50>)
    25d0:	681b      	ldr	r3, [r3, #0]
    25d2:	f1b3 3fff 	cmp.w	r3, #4294967295	; 0xffffffff
    25d6:	d009      	beq.n	25ec <prvTaskExitError+0x28>
    25d8:	f04f 0320 	mov.w	r3, #32
    25dc:	f383 8811 	msr	BASEPRI, r3
    25e0:	f3bf 8f6f 	isb	sy
    25e4:	f3bf 8f4f 	dsb	sy
    25e8:	60fb      	str	r3, [r7, #12]
    25ea:	e7fe      	b.n	25ea <prvTaskExitError+0x26>
    25ec:	f04f 0320 	mov.w	r3, #32
    25f0:	f383 8811 	msr	BASEPRI, r3
    25f4:	f3bf 8f6f 	isb	sy
    25f8:	f3bf 8f4f 	dsb	sy
    25fc:	60bb      	str	r3, [r7, #8]
    25fe:	bf00      	nop
    2600:	687b      	ldr	r3, [r7, #4]
    2602:	2b00      	cmp	r3, #0
    2604:	d0fc      	beq.n	2600 <prvTaskExitError+0x3c>
    2606:	bf00      	nop
    2608:	3714      	adds	r7, #20
    260a:	46bd      	mov	sp, r7
    260c:	f85d 7b04 	ldr.w	r7, [sp], #4
    2610:	4770      	bx	lr
    2612:	bf00      	nop
    2614:	20000008 	.word	0x20000008

00002618 <prvPortStartFirstTask>:
    2618:	4808      	ldr	r0, [pc, #32]	; (263c <prvPortStartFirstTask+0x24>)
    261a:	6800      	ldr	r0, [r0, #0]
    261c:	6800      	ldr	r0, [r0, #0]
    261e:	f380 8808 	msr	MSP, r0
    2622:	f04f 0000 	mov.w	r0, #0
    2626:	f380 8814 	msr	CONTROL, r0
    262a:	b662      	cpsie	i
    262c:	b661      	cpsie	f
    262e:	f3bf 8f4f 	dsb	sy
    2632:	f3bf 8f6f 	isb	sy
    2636:	df00      	svc	0
    2638:	bf00      	nop
    263a:	bf00      	nop
    263c:	e000ed08 	.word	0xe000ed08

00002640 <xPortStartScheduler>:
    2640:	b580      	push	{r7, lr}
    2642:	b086      	sub	sp, #24
    2644:	af00      	add	r7, sp, #0
    2646:	4b44      	ldr	r3, [pc, #272]	; (2758 <xPortStartScheduler+0x118>)
    2648:	681b      	ldr	r3, [r3, #0]
    264a:	4a44      	ldr	r2, [pc, #272]	; (275c <xPortStartScheduler+0x11c>)
    264c:	4293      	cmp	r3, r2
    264e:	d109      	bne.n	2664 <xPortStartScheduler+0x24>
    2650:	f04f 0320 	mov.w	r3, #32
    2654:	f383 8811 	msr	BASEPRI, r3
    2658:	f3bf 8f6f 	isb	sy
    265c:	f3bf 8f4f 	dsb	sy
    2660:	613b      	str	r3, [r7, #16]
    2662:	e7fe      	b.n	2662 <xPortStartScheduler+0x22>
    2664:	4b3c      	ldr	r3, [pc, #240]	; (2758 <xPortStartScheduler+0x118>)
    2666:	681b      	ldr	r3, [r3, #0]
    2668:	4a3d      	ldr	r2, [pc, #244]	; (2760 <xPortStartScheduler+0x120>)
    266a:	4293      	cmp	r3, r2
    266c:	d109      	bne.n	2682 <xPortStartScheduler+0x42>
    266e:	f04f 0320 	mov.w	r3, #32
    2672:	f383 8811 	msr	BASEPRI, r3
    2676:	f3bf 8f6f 	isb	sy
    267a:	f3bf 8f4f 	dsb	sy
    267e:	60fb      	str	r3, [r7, #12]
    2680:	e7fe      	b.n	2680 <xPortStartScheduler+0x40>
    2682:	4b38      	ldr	r3, [pc, #224]	; (2764 <xPortStartScheduler+0x124>)
    2684:	617b      	str	r3, [r7, #20]
    2686:	697b      	ldr	r3, [r7, #20]
    2688:	781b      	ldrb	r3, [r3, #0]
    268a:	b2db      	uxtb	r3, r3
    268c:	607b      	str	r3, [r7, #4]
    268e:	697b      	ldr	r3, [r7, #20]
    2690:	22ff      	movs	r2, #255	; 0xff
    2692:	701a      	strb	r2, [r3, #0]
    2694:	697b      	ldr	r3, [r7, #20]
    2696:	781b      	ldrb	r3, [r3, #0]
    2698:	b2db      	uxtb	r3, r3
    269a:	70fb      	strb	r3, [r7, #3]
    269c:	78fb      	ldrb	r3, [r7, #3]
    269e:	b2db      	uxtb	r3, r3
    26a0:	f003 0320 	and.w	r3, r3, #32
    26a4:	b2da      	uxtb	r2, r3
    26a6:	4b30      	ldr	r3, [pc, #192]	; (2768 <xPortStartScheduler+0x128>)
    26a8:	701a      	strb	r2, [r3, #0]
    26aa:	4b30      	ldr	r3, [pc, #192]	; (276c <xPortStartScheduler+0x12c>)
    26ac:	2207      	movs	r2, #7
    26ae:	601a      	str	r2, [r3, #0]
    26b0:	e009      	b.n	26c6 <xPortStartScheduler+0x86>
    26b2:	4b2e      	ldr	r3, [pc, #184]	; (276c <xPortStartScheduler+0x12c>)
    26b4:	681b      	ldr	r3, [r3, #0]
    26b6:	3b01      	subs	r3, #1
    26b8:	4a2c      	ldr	r2, [pc, #176]	; (276c <xPortStartScheduler+0x12c>)
    26ba:	6013      	str	r3, [r2, #0]
    26bc:	78fb      	ldrb	r3, [r7, #3]
    26be:	b2db      	uxtb	r3, r3
    26c0:	005b      	lsls	r3, r3, #1
    26c2:	b2db      	uxtb	r3, r3
    26c4:	70fb      	strb	r3, [r7, #3]
    26c6:	78fb      	ldrb	r3, [r7, #3]
    26c8:	b2db      	uxtb	r3, r3
    26ca:	f003 0380 	and.w	r3, r3, #128	; 0x80
    26ce:	2b80      	cmp	r3, #128	; 0x80
    26d0:	d0ef      	beq.n	26b2 <xPortStartScheduler+0x72>
    26d2:	4b26      	ldr	r3, [pc, #152]	; (276c <xPortStartScheduler+0x12c>)
    26d4:	681b      	ldr	r3, [r3, #0]
    26d6:	f1c3 0307 	rsb	r3, r3, #7
    26da:	2b04      	cmp	r3, #4
    26dc:	d009      	beq.n	26f2 <xPortStartScheduler+0xb2>
    26de:	f04f 0320 	mov.w	r3, #32
    26e2:	f383 8811 	msr	BASEPRI, r3
    26e6:	f3bf 8f6f 	isb	sy
    26ea:	f3bf 8f4f 	dsb	sy
    26ee:	60bb      	str	r3, [r7, #8]
    26f0:	e7fe      	b.n	26f0 <xPortStartScheduler+0xb0>
    26f2:	4b1e      	ldr	r3, [pc, #120]	; (276c <xPortStartScheduler+0x12c>)
    26f4:	681b      	ldr	r3, [r3, #0]
    26f6:	021b      	lsls	r3, r3, #8
    26f8:	4a1c      	ldr	r2, [pc, #112]	; (276c <xPortStartScheduler+0x12c>)
    26fa:	6013      	str	r3, [r2, #0]
    26fc:	4b1b      	ldr	r3, [pc, #108]	; (276c <xPortStartScheduler+0x12c>)
    26fe:	681b      	ldr	r3, [r3, #0]
    2700:	f403 63e0 	and.w	r3, r3, #1792	; 0x700
    2704:	4a19      	ldr	r2, [pc, #100]	; (276c <xPortStartScheduler+0x12c>)
    2706:	6013      	str	r3, [r2, #0]
    2708:	687b      	ldr	r3, [r7, #4]
    270a:	b2da      	uxtb	r2, r3
    270c:	697b      	ldr	r3, [r7, #20]
    270e:	701a      	strb	r2, [r3, #0]
    2710:	4b17      	ldr	r3, [pc, #92]	; (2770 <xPortStartScheduler+0x130>)
    2712:	681b      	ldr	r3, [r3, #0]
    2714:	4a16      	ldr	r2, [pc, #88]	; (2770 <xPortStartScheduler+0x130>)
    2716:	f443 0370 	orr.w	r3, r3, #15728640	; 0xf00000
    271a:	6013      	str	r3, [r2, #0]
    271c:	4b14      	ldr	r3, [pc, #80]	; (2770 <xPortStartScheduler+0x130>)
    271e:	681b      	ldr	r3, [r3, #0]
    2720:	4a13      	ldr	r2, [pc, #76]	; (2770 <xPortStartScheduler+0x130>)
    2722:	f043 4370 	orr.w	r3, r3, #4026531840	; 0xf0000000
    2726:	6013      	str	r3, [r2, #0]
    2728:	f7ff fd1e 	bl	2168 <vPortSetupTimerInterrupt>
    272c:	4b11      	ldr	r3, [pc, #68]	; (2774 <xPortStartScheduler+0x134>)
    272e:	2200      	movs	r2, #0
    2730:	601a      	str	r2, [r3, #0]
    2732:	f000 f899 	bl	2868 <vPortEnableVFP>
    2736:	4b10      	ldr	r3, [pc, #64]	; (2778 <xPortStartScheduler+0x138>)
    2738:	681b      	ldr	r3, [r3, #0]
    273a:	4a0f      	ldr	r2, [pc, #60]	; (2778 <xPortStartScheduler+0x138>)
    273c:	f043 4340 	orr.w	r3, r3, #3221225472	; 0xc0000000
    2740:	6013      	str	r3, [r2, #0]
    2742:	f7ff ff69 	bl	2618 <prvPortStartFirstTask>
    2746:	f000 fd5d 	bl	3204 <vTaskSwitchContext>
    274a:	f7ff ff3b 	bl	25c4 <prvTaskExitError>
    274e:	2300      	movs	r3, #0
    2750:	4618      	mov	r0, r3
    2752:	3718      	adds	r7, #24
    2754:	46bd      	mov	sp, r7
    2756:	bd80      	pop	{r7, pc}
    2758:	e000ed00 	.word	0xe000ed00
    275c:	410fc271 	.word	0x410fc271
    2760:	410fc270 	.word	0x410fc270
    2764:	e000e400 	.word	0xe000e400
    2768:	20002aa0 	.word	0x20002aa0
    276c:	2000285c 	.word	0x2000285c
    2770:	e000ed20 	.word	0xe000ed20
    2774:	20000008 	.word	0x20000008
    2778:	e000ef34 	.word	0xe000ef34

0000277c <vPortEnterCritical>:
    277c:	b480      	push	{r7}
    277e:	b083      	sub	sp, #12
    2780:	af00      	add	r7, sp, #0
    2782:	f04f 0320 	mov.w	r3, #32
    2786:	f383 8811 	msr	BASEPRI, r3
    278a:	f3bf 8f6f 	isb	sy
    278e:	f3bf 8f4f 	dsb	sy
    2792:	607b      	str	r3, [r7, #4]
    2794:	4b0e      	ldr	r3, [pc, #56]	; (27d0 <vPortEnterCritical+0x54>)
    2796:	681b      	ldr	r3, [r3, #0]
    2798:	3301      	adds	r3, #1
    279a:	4a0d      	ldr	r2, [pc, #52]	; (27d0 <vPortEnterCritical+0x54>)
    279c:	6013      	str	r3, [r2, #0]
    279e:	4b0c      	ldr	r3, [pc, #48]	; (27d0 <vPortEnterCritical+0x54>)
    27a0:	681b      	ldr	r3, [r3, #0]
    27a2:	2b01      	cmp	r3, #1
    27a4:	d10e      	bne.n	27c4 <vPortEnterCritical+0x48>
    27a6:	4b0b      	ldr	r3, [pc, #44]	; (27d4 <vPortEnterCritical+0x58>)
    27a8:	681b      	ldr	r3, [r3, #0]
    27aa:	b2db      	uxtb	r3, r3
    27ac:	2b00      	cmp	r3, #0
    27ae:	d009      	beq.n	27c4 <vPortEnterCritical+0x48>
    27b0:	f04f 0320 	mov.w	r3, #32
    27b4:	f383 8811 	msr	BASEPRI, r3
    27b8:	f3bf 8f6f 	isb	sy
    27bc:	f3bf 8f4f 	dsb	sy
    27c0:	603b      	str	r3, [r7, #0]
    27c2:	e7fe      	b.n	27c2 <vPortEnterCritical+0x46>
    27c4:	bf00      	nop
    27c6:	370c      	adds	r7, #12
    27c8:	46bd      	mov	sp, r7
    27ca:	f85d 7b04 	ldr.w	r7, [sp], #4
    27ce:	4770      	bx	lr
    27d0:	20000008 	.word	0x20000008
    27d4:	e000ed04 	.word	0xe000ed04

000027d8 <vPortExitCritical>:
    27d8:	b480      	push	{r7}
    27da:	b083      	sub	sp, #12
    27dc:	af00      	add	r7, sp, #0
    27de:	4b11      	ldr	r3, [pc, #68]	; (2824 <vPortExitCritical+0x4c>)
    27e0:	681b      	ldr	r3, [r3, #0]
    27e2:	2b00      	cmp	r3, #0
    27e4:	d109      	bne.n	27fa <vPortExitCritical+0x22>
    27e6:	f04f 0320 	mov.w	r3, #32
    27ea:	f383 8811 	msr	BASEPRI, r3
    27ee:	f3bf 8f6f 	isb	sy
    27f2:	f3bf 8f4f 	dsb	sy
    27f6:	607b      	str	r3, [r7, #4]
    27f8:	e7fe      	b.n	27f8 <vPortExitCritical+0x20>
    27fa:	4b0a      	ldr	r3, [pc, #40]	; (2824 <vPortExitCritical+0x4c>)
    27fc:	681b      	ldr	r3, [r3, #0]
    27fe:	3b01      	subs	r3, #1
    2800:	4a08      	ldr	r2, [pc, #32]	; (2824 <vPortExitCritical+0x4c>)
    2802:	6013      	str	r3, [r2, #0]
    2804:	4b07      	ldr	r3, [pc, #28]	; (2824 <vPortExitCritical+0x4c>)
    2806:	681b      	ldr	r3, [r3, #0]
    2808:	2b00      	cmp	r3, #0
    280a:	d104      	bne.n	2816 <vPortExitCritical+0x3e>
    280c:	2300      	movs	r3, #0
    280e:	603b      	str	r3, [r7, #0]
    2810:	683b      	ldr	r3, [r7, #0]
    2812:	f383 8811 	msr	BASEPRI, r3
    2816:	bf00      	nop
    2818:	370c      	adds	r7, #12
    281a:	46bd      	mov	sp, r7
    281c:	f85d 7b04 	ldr.w	r7, [sp], #4
    2820:	4770      	bx	lr
    2822:	bf00      	nop
    2824:	20000008 	.word	0x20000008

00002828 <SysTick_Handler>:
    2828:	b580      	push	{r7, lr}
    282a:	b082      	sub	sp, #8
    282c:	af00      	add	r7, sp, #0
    282e:	f04f 0320 	mov.w	r3, #32
    2832:	f383 8811 	msr	BASEPRI, r3
    2836:	f3bf 8f6f 	isb	sy
    283a:	f3bf 8f4f 	dsb	sy
    283e:	607b      	str	r3, [r7, #4]
    2840:	f000 fc34 	bl	30ac <xTaskIncrementTick>
    2844:	4603      	mov	r3, r0
    2846:	2b00      	cmp	r3, #0
    2848:	d003      	beq.n	2852 <SysTick_Handler+0x2a>
    284a:	4b06      	ldr	r3, [pc, #24]	; (2864 <SysTick_Handler+0x3c>)
    284c:	f04f 5280 	mov.w	r2, #268435456	; 0x10000000
    2850:	601a      	str	r2, [r3, #0]
    2852:	2300      	movs	r3, #0
    2854:	603b      	str	r3, [r7, #0]
    2856:	683b      	ldr	r3, [r7, #0]
    2858:	f383 8811 	msr	BASEPRI, r3
    285c:	bf00      	nop
    285e:	3708      	adds	r7, #8
    2860:	46bd      	mov	sp, r7
    2862:	bd80      	pop	{r7, pc}
    2864:	e000ed04 	.word	0xe000ed04

00002868 <vPortEnableVFP>:
    2868:	f8df 000c 	ldr.w	r0, [pc, #12]	; 2878 <vPortEnableVFP+0x10>
    286c:	6801      	ldr	r1, [r0, #0]
    286e:	f441 0170 	orr.w	r1, r1, #15728640	; 0xf00000
    2872:	6001      	str	r1, [r0, #0]
    2874:	4770      	bx	lr
    2876:	bf00      	nop
    2878:	e000ed88 	.word	0xe000ed88

0000287c <vPortValidateInterruptPriority>:
    287c:	b480      	push	{r7}
    287e:	b085      	sub	sp, #20
    2880:	af00      	add	r7, sp, #0
    2882:	f3ef 8305 	mrs	r3, IPSR
    2886:	60fb      	str	r3, [r7, #12]
    2888:	68fb      	ldr	r3, [r7, #12]
    288a:	2b0f      	cmp	r3, #15
    288c:	d913      	bls.n	28b6 <vPortValidateInterruptPriority+0x3a>
    288e:	4a16      	ldr	r2, [pc, #88]	; (28e8 <vPortValidateInterruptPriority+0x6c>)
    2890:	68fb      	ldr	r3, [r7, #12]
    2892:	4413      	add	r3, r2
    2894:	781b      	ldrb	r3, [r3, #0]
    2896:	72fb      	strb	r3, [r7, #11]
    2898:	4b14      	ldr	r3, [pc, #80]	; (28ec <vPortValidateInterruptPriority+0x70>)
    289a:	781b      	ldrb	r3, [r3, #0]
    289c:	7afa      	ldrb	r2, [r7, #11]
    289e:	429a      	cmp	r2, r3
    28a0:	d209      	bcs.n	28b6 <vPortValidateInterruptPriority+0x3a>
    28a2:	f04f 0320 	mov.w	r3, #32
    28a6:	f383 8811 	msr	BASEPRI, r3
    28aa:	f3bf 8f6f 	isb	sy
    28ae:	f3bf 8f4f 	dsb	sy
    28b2:	607b      	str	r3, [r7, #4]
    28b4:	e7fe      	b.n	28b4 <vPortValidateInterruptPriority+0x38>
    28b6:	4b0e      	ldr	r3, [pc, #56]	; (28f0 <vPortValidateInterruptPriority+0x74>)
    28b8:	681b      	ldr	r3, [r3, #0]
    28ba:	f403 62e0 	and.w	r2, r3, #1792	; 0x700
    28be:	4b0d      	ldr	r3, [pc, #52]	; (28f4 <vPortValidateInterruptPriority+0x78>)
    28c0:	681b      	ldr	r3, [r3, #0]
    28c2:	429a      	cmp	r2, r3
    28c4:	d909      	bls.n	28da <vPortValidateInterruptPriority+0x5e>
    28c6:	f04f 0320 	mov.w	r3, #32
    28ca:	f383 8811 	msr	BASEPRI, r3
    28ce:	f3bf 8f6f 	isb	sy
    28d2:	f3bf 8f4f 	dsb	sy
    28d6:	603b      	str	r3, [r7, #0]
    28d8:	e7fe      	b.n	28d8 <vPortValidateInterruptPriority+0x5c>
    28da:	bf00      	nop
    28dc:	3714      	adds	r7, #20
    28de:	46bd      	mov	sp, r7
    28e0:	f85d 7b04 	ldr.w	r7, [sp], #4
    28e4:	4770      	bx	lr
    28e6:	bf00      	nop
    28e8:	e000e3f0 	.word	0xe000e3f0
    28ec:	20002aa0 	.word	0x20002aa0
    28f0:	e000ed0c 	.word	0xe000ed0c
    28f4:	2000285c 	.word	0x2000285c

000028f8 <xQueueGenericReset>:
    28f8:	b580      	push	{r7, lr}
    28fa:	b084      	sub	sp, #16
    28fc:	af00      	add	r7, sp, #0
    28fe:	6078      	str	r0, [r7, #4]
    2900:	6039      	str	r1, [r7, #0]
    2902:	687b      	ldr	r3, [r7, #4]
    2904:	60fb      	str	r3, [r7, #12]
    2906:	68fb      	ldr	r3, [r7, #12]
    2908:	2b00      	cmp	r3, #0
    290a:	d109      	bne.n	2920 <xQueueGenericReset+0x28>
    290c:	f04f 0320 	mov.w	r3, #32
    2910:	f383 8811 	msr	BASEPRI, r3
    2914:	f3bf 8f6f 	isb	sy
    2918:	f3bf 8f4f 	dsb	sy
    291c:	60bb      	str	r3, [r7, #8]
    291e:	e7fe      	b.n	291e <xQueueGenericReset+0x26>
    2920:	f7ff ff2c 	bl	277c <vPortEnterCritical>
    2924:	68fb      	ldr	r3, [r7, #12]
    2926:	681a      	ldr	r2, [r3, #0]
    2928:	68fb      	ldr	r3, [r7, #12]
    292a:	6bdb      	ldr	r3, [r3, #60]	; 0x3c
    292c:	68f9      	ldr	r1, [r7, #12]
    292e:	6c09      	ldr	r1, [r1, #64]	; 0x40
    2930:	fb01 f303 	mul.w	r3, r1, r3
    2934:	441a      	add	r2, r3
    2936:	68fb      	ldr	r3, [r7, #12]
    2938:	605a      	str	r2, [r3, #4]
    293a:	68fb      	ldr	r3, [r7, #12]
    293c:	2200      	movs	r2, #0
    293e:	639a      	str	r2, [r3, #56]	; 0x38
    2940:	68fb      	ldr	r3, [r7, #12]
    2942:	681a      	ldr	r2, [r3, #0]
    2944:	68fb      	ldr	r3, [r7, #12]
    2946:	609a      	str	r2, [r3, #8]
    2948:	68fb      	ldr	r3, [r7, #12]
    294a:	681a      	ldr	r2, [r3, #0]
    294c:	68fb      	ldr	r3, [r7, #12]
    294e:	6bdb      	ldr	r3, [r3, #60]	; 0x3c
    2950:	3b01      	subs	r3, #1
    2952:	68f9      	ldr	r1, [r7, #12]
    2954:	6c09      	ldr	r1, [r1, #64]	; 0x40
    2956:	fb01 f303 	mul.w	r3, r1, r3
    295a:	441a      	add	r2, r3
    295c:	68fb      	ldr	r3, [r7, #12]
    295e:	60da      	str	r2, [r3, #12]
    2960:	68fb      	ldr	r3, [r7, #12]
    2962:	22ff      	movs	r2, #255	; 0xff
    2964:	f883 2044 	strb.w	r2, [r3, #68]	; 0x44
    2968:	68fb      	ldr	r3, [r7, #12]
    296a:	22ff      	movs	r2, #255	; 0xff
    296c:	f883 2045 	strb.w	r2, [r3, #69]	; 0x45
    2970:	683b      	ldr	r3, [r7, #0]
    2972:	2b00      	cmp	r3, #0
    2974:	d114      	bne.n	29a0 <xQueueGenericReset+0xa8>
    2976:	68fb      	ldr	r3, [r7, #12]
    2978:	691b      	ldr	r3, [r3, #16]
    297a:	2b00      	cmp	r3, #0
    297c:	d01a      	beq.n	29b4 <xQueueGenericReset+0xbc>
    297e:	68fb      	ldr	r3, [r7, #12]
    2980:	3310      	adds	r3, #16
    2982:	4618      	mov	r0, r3
    2984:	f000 fce6 	bl	3354 <xTaskRemoveFromEventList>
    2988:	4603      	mov	r3, r0
    298a:	2b00      	cmp	r3, #0
    298c:	d012      	beq.n	29b4 <xQueueGenericReset+0xbc>
    298e:	4b0d      	ldr	r3, [pc, #52]	; (29c4 <xQueueGenericReset+0xcc>)
    2990:	f04f 5280 	mov.w	r2, #268435456	; 0x10000000
    2994:	601a      	str	r2, [r3, #0]
    2996:	f3bf 8f4f 	dsb	sy
    299a:	f3bf 8f6f 	isb	sy
    299e:	e009      	b.n	29b4 <xQueueGenericReset+0xbc>
    29a0:	68fb      	ldr	r3, [r7, #12]
    29a2:	3310      	adds	r3, #16
    29a4:	4618      	mov	r0, r3
    29a6:	f002 fa96 	bl	4ed6 <vListInitialise>
    29aa:	68fb      	ldr	r3, [r7, #12]
    29ac:	3324      	adds	r3, #36	; 0x24
    29ae:	4618      	mov	r0, r3
    29b0:	f002 fa91 	bl	4ed6 <vListInitialise>
    29b4:	f7ff ff10 	bl	27d8 <vPortExitCritical>
    29b8:	2301      	movs	r3, #1
    29ba:	4618      	mov	r0, r3
    29bc:	3710      	adds	r7, #16
    29be:	46bd      	mov	sp, r7
    29c0:	bd80      	pop	{r7, pc}
    29c2:	bf00      	nop
    29c4:	e000ed04 	.word	0xe000ed04

000029c8 <xQueueGenericSend>:
    29c8:	b580      	push	{r7, lr}
    29ca:	b08e      	sub	sp, #56	; 0x38
    29cc:	af00      	add	r7, sp, #0
    29ce:	60f8      	str	r0, [r7, #12]
    29d0:	60b9      	str	r1, [r7, #8]
    29d2:	607a      	str	r2, [r7, #4]
    29d4:	603b      	str	r3, [r7, #0]
    29d6:	2300      	movs	r3, #0
    29d8:	637b      	str	r3, [r7, #52]	; 0x34
    29da:	68fb      	ldr	r3, [r7, #12]
    29dc:	633b      	str	r3, [r7, #48]	; 0x30
    29de:	6b3b      	ldr	r3, [r7, #48]	; 0x30
    29e0:	2b00      	cmp	r3, #0
    29e2:	d109      	bne.n	29f8 <xQueueGenericSend+0x30>
    29e4:	f04f 0320 	mov.w	r3, #32
    29e8:	f383 8811 	msr	BASEPRI, r3
    29ec:	f3bf 8f6f 	isb	sy
    29f0:	f3bf 8f4f 	dsb	sy
    29f4:	62bb      	str	r3, [r7, #40]	; 0x28
    29f6:	e7fe      	b.n	29f6 <xQueueGenericSend+0x2e>
    29f8:	68bb      	ldr	r3, [r7, #8]
    29fa:	2b00      	cmp	r3, #0
    29fc:	d103      	bne.n	2a06 <xQueueGenericSend+0x3e>
    29fe:	6b3b      	ldr	r3, [r7, #48]	; 0x30
    2a00:	6c1b      	ldr	r3, [r3, #64]	; 0x40
    2a02:	2b00      	cmp	r3, #0
    2a04:	d101      	bne.n	2a0a <xQueueGenericSend+0x42>
    2a06:	2301      	movs	r3, #1
    2a08:	e000      	b.n	2a0c <xQueueGenericSend+0x44>
    2a0a:	2300      	movs	r3, #0
    2a0c:	2b00      	cmp	r3, #0
    2a0e:	d109      	bne.n	2a24 <xQueueGenericSend+0x5c>
    2a10:	f04f 0320 	mov.w	r3, #32
    2a14:	f383 8811 	msr	BASEPRI, r3
    2a18:	f3bf 8f6f 	isb	sy
    2a1c:	f3bf 8f4f 	dsb	sy
    2a20:	627b      	str	r3, [r7, #36]	; 0x24
    2a22:	e7fe      	b.n	2a22 <xQueueGenericSend+0x5a>
    2a24:	683b      	ldr	r3, [r7, #0]
    2a26:	2b02      	cmp	r3, #2
    2a28:	d103      	bne.n	2a32 <xQueueGenericSend+0x6a>
    2a2a:	6b3b      	ldr	r3, [r7, #48]	; 0x30
    2a2c:	6bdb      	ldr	r3, [r3, #60]	; 0x3c
    2a2e:	2b01      	cmp	r3, #1
    2a30:	d101      	bne.n	2a36 <xQueueGenericSend+0x6e>
    2a32:	2301      	movs	r3, #1
    2a34:	e000      	b.n	2a38 <xQueueGenericSend+0x70>
    2a36:	2300      	movs	r3, #0
    2a38:	2b00      	cmp	r3, #0
    2a3a:	d109      	bne.n	2a50 <xQueueGenericSend+0x88>
    2a3c:	f04f 0320 	mov.w	r3, #32
    2a40:	f383 8811 	msr	BASEPRI, r3
    2a44:	f3bf 8f6f 	isb	sy
    2a48:	f3bf 8f4f 	dsb	sy
    2a4c:	623b      	str	r3, [r7, #32]
    2a4e:	e7fe      	b.n	2a4e <xQueueGenericSend+0x86>
    2a50:	f000 fe0e 	bl	3670 <xTaskGetSchedulerState>
    2a54:	4603      	mov	r3, r0
    2a56:	2b00      	cmp	r3, #0
    2a58:	d102      	bne.n	2a60 <xQueueGenericSend+0x98>
    2a5a:	687b      	ldr	r3, [r7, #4]
    2a5c:	2b00      	cmp	r3, #0
    2a5e:	d101      	bne.n	2a64 <xQueueGenericSend+0x9c>
    2a60:	2301      	movs	r3, #1
    2a62:	e000      	b.n	2a66 <xQueueGenericSend+0x9e>
    2a64:	2300      	movs	r3, #0
    2a66:	2b00      	cmp	r3, #0
    2a68:	d109      	bne.n	2a7e <xQueueGenericSend+0xb6>
    2a6a:	f04f 0320 	mov.w	r3, #32
    2a6e:	f383 8811 	msr	BASEPRI, r3
    2a72:	f3bf 8f6f 	isb	sy
    2a76:	f3bf 8f4f 	dsb	sy
    2a7a:	61fb      	str	r3, [r7, #28]
    2a7c:	e7fe      	b.n	2a7c <xQueueGenericSend+0xb4>
    2a7e:	f7ff fe7d 	bl	277c <vPortEnterCritical>
    2a82:	6b3b      	ldr	r3, [r7, #48]	; 0x30
    2a84:	6b9a      	ldr	r2, [r3, #56]	; 0x38
    2a86:	6b3b      	ldr	r3, [r7, #48]	; 0x30
    2a88:	6bdb      	ldr	r3, [r3, #60]	; 0x3c
    2a8a:	429a      	cmp	r2, r3
    2a8c:	d302      	bcc.n	2a94 <xQueueGenericSend+0xcc>
    2a8e:	683b      	ldr	r3, [r7, #0]
    2a90:	2b02      	cmp	r3, #2
    2a92:	d129      	bne.n	2ae8 <xQueueGenericSend+0x120>
    2a94:	683a      	ldr	r2, [r7, #0]
    2a96:	68b9      	ldr	r1, [r7, #8]
    2a98:	6b38      	ldr	r0, [r7, #48]	; 0x30
    2a9a:	f002 fbc0 	bl	521e <prvCopyDataToQueue>
    2a9e:	62f8      	str	r0, [r7, #44]	; 0x2c
    2aa0:	6b3b      	ldr	r3, [r7, #48]	; 0x30
    2aa2:	6a5b      	ldr	r3, [r3, #36]	; 0x24
    2aa4:	2b00      	cmp	r3, #0
    2aa6:	d010      	beq.n	2aca <xQueueGenericSend+0x102>
    2aa8:	6b3b      	ldr	r3, [r7, #48]	; 0x30
    2aaa:	3324      	adds	r3, #36	; 0x24
    2aac:	4618      	mov	r0, r3
    2aae:	f000 fc51 	bl	3354 <xTaskRemoveFromEventList>
    2ab2:	4603      	mov	r3, r0
    2ab4:	2b00      	cmp	r3, #0
    2ab6:	d013      	beq.n	2ae0 <xQueueGenericSend+0x118>
    2ab8:	4b3f      	ldr	r3, [pc, #252]	; (2bb8 <xQueueGenericSend+0x1f0>)
    2aba:	f04f 5280 	mov.w	r2, #268435456	; 0x10000000
    2abe:	601a      	str	r2, [r3, #0]
    2ac0:	f3bf 8f4f 	dsb	sy
    2ac4:	f3bf 8f6f 	isb	sy
    2ac8:	e00a      	b.n	2ae0 <xQueueGenericSend+0x118>
    2aca:	6afb      	ldr	r3, [r7, #44]	; 0x2c
    2acc:	2b00      	cmp	r3, #0
    2ace:	d007      	beq.n	2ae0 <xQueueGenericSend+0x118>
    2ad0:	4b39      	ldr	r3, [pc, #228]	; (2bb8 <xQueueGenericSend+0x1f0>)
    2ad2:	f04f 5280 	mov.w	r2, #268435456	; 0x10000000
    2ad6:	601a      	str	r2, [r3, #0]
    2ad8:	f3bf 8f4f 	dsb	sy
    2adc:	f3bf 8f6f 	isb	sy
    2ae0:	f7ff fe7a 	bl	27d8 <vPortExitCritical>
    2ae4:	2301      	movs	r3, #1
    2ae6:	e063      	b.n	2bb0 <xQueueGenericSend+0x1e8>
    2ae8:	687b      	ldr	r3, [r7, #4]
    2aea:	2b00      	cmp	r3, #0
    2aec:	d103      	bne.n	2af6 <xQueueGenericSend+0x12e>
    2aee:	f7ff fe73 	bl	27d8 <vPortExitCritical>
    2af2:	2300      	movs	r3, #0
    2af4:	e05c      	b.n	2bb0 <xQueueGenericSend+0x1e8>
    2af6:	6b7b      	ldr	r3, [r7, #52]	; 0x34
    2af8:	2b00      	cmp	r3, #0
    2afa:	d106      	bne.n	2b0a <xQueueGenericSend+0x142>
    2afc:	f107 0314 	add.w	r3, r7, #20
    2b00:	4618      	mov	r0, r3
    2b02:	f000 fc89 	bl	3418 <vTaskInternalSetTimeOutState>
    2b06:	2301      	movs	r3, #1
    2b08:	637b      	str	r3, [r7, #52]	; 0x34
    2b0a:	f7ff fe65 	bl	27d8 <vPortExitCritical>
    2b0e:	f000 fa13 	bl	2f38 <vTaskSuspendAll>
    2b12:	f7ff fe33 	bl	277c <vPortEnterCritical>
    2b16:	6b3b      	ldr	r3, [r7, #48]	; 0x30
    2b18:	f893 3044 	ldrb.w	r3, [r3, #68]	; 0x44
    2b1c:	b25b      	sxtb	r3, r3
    2b1e:	f1b3 3fff 	cmp.w	r3, #4294967295	; 0xffffffff
    2b22:	d103      	bne.n	2b2c <xQueueGenericSend+0x164>
    2b24:	6b3b      	ldr	r3, [r7, #48]	; 0x30
    2b26:	2200      	movs	r2, #0
    2b28:	f883 2044 	strb.w	r2, [r3, #68]	; 0x44
    2b2c:	6b3b      	ldr	r3, [r7, #48]	; 0x30
    2b2e:	f893 3045 	ldrb.w	r3, [r3, #69]	; 0x45
    2b32:	b25b      	sxtb	r3, r3
    2b34:	f1b3 3fff 	cmp.w	r3, #4294967295	; 0xffffffff
    2b38:	d103      	bne.n	2b42 <xQueueGenericSend+0x17a>
    2b3a:	6b3b      	ldr	r3, [r7, #48]	; 0x30
    2b3c:	2200      	movs	r2, #0
    2b3e:	f883 2045 	strb.w	r2, [r3, #69]	; 0x45
    2b42:	f7ff fe49 	bl	27d8 <vPortExitCritical>
    2b46:	1d3a      	adds	r2, r7, #4
    2b48:	f107 0314 	add.w	r3, r7, #20
    2b4c:	4611      	mov	r1, r2
    2b4e:	4618      	mov	r0, r3
    2b50:	f000 fc78 	bl	3444 <xTaskCheckForTimeOut>
    2b54:	4603      	mov	r3, r0
    2b56:	2b00      	cmp	r3, #0
    2b58:	d124      	bne.n	2ba4 <xQueueGenericSend+0x1dc>
    2b5a:	6b38      	ldr	r0, [r7, #48]	; 0x30
    2b5c:	f002 fc57 	bl	540e <prvIsQueueFull>
    2b60:	4603      	mov	r3, r0
    2b62:	2b00      	cmp	r3, #0
    2b64:	d018      	beq.n	2b98 <xQueueGenericSend+0x1d0>
    2b66:	6b3b      	ldr	r3, [r7, #48]	; 0x30
    2b68:	3310      	adds	r3, #16
    2b6a:	687a      	ldr	r2, [r7, #4]
    2b6c:	4611      	mov	r1, r2
    2b6e:	4618      	mov	r0, r3
    2b70:	f000 fba2 	bl	32b8 <vTaskPlaceOnEventList>
    2b74:	6b38      	ldr	r0, [r7, #48]	; 0x30
    2b76:	f002 fbe2 	bl	533e <prvUnlockQueue>
    2b7a:	f000 f9eb 	bl	2f54 <xTaskResumeAll>
    2b7e:	4603      	mov	r3, r0
    2b80:	2b00      	cmp	r3, #0
    2b82:	f47f af7c 	bne.w	2a7e <xQueueGenericSend+0xb6>
    2b86:	4b0c      	ldr	r3, [pc, #48]	; (2bb8 <xQueueGenericSend+0x1f0>)
    2b88:	f04f 5280 	mov.w	r2, #268435456	; 0x10000000
    2b8c:	601a      	str	r2, [r3, #0]
    2b8e:	f3bf 8f4f 	dsb	sy
    2b92:	f3bf 8f6f 	isb	sy
    2b96:	e772      	b.n	2a7e <xQueueGenericSend+0xb6>
    2b98:	6b38      	ldr	r0, [r7, #48]	; 0x30
    2b9a:	f002 fbd0 	bl	533e <prvUnlockQueue>
    2b9e:	f000 f9d9 	bl	2f54 <xTaskResumeAll>
    2ba2:	e76c      	b.n	2a7e <xQueueGenericSend+0xb6>
    2ba4:	6b38      	ldr	r0, [r7, #48]	; 0x30
    2ba6:	f002 fbca 	bl	533e <prvUnlockQueue>
    2baa:	f000 f9d3 	bl	2f54 <xTaskResumeAll>
    2bae:	2300      	movs	r3, #0
    2bb0:	4618      	mov	r0, r3
    2bb2:	3738      	adds	r7, #56	; 0x38
    2bb4:	46bd      	mov	sp, r7
    2bb6:	bd80      	pop	{r7, pc}
    2bb8:	e000ed04 	.word	0xe000ed04

00002bbc <xQueueReceive>:
    2bbc:	b580      	push	{r7, lr}
    2bbe:	b08c      	sub	sp, #48	; 0x30
    2bc0:	af00      	add	r7, sp, #0
    2bc2:	60f8      	str	r0, [r7, #12]
    2bc4:	60b9      	str	r1, [r7, #8]
    2bc6:	607a      	str	r2, [r7, #4]
    2bc8:	2300      	movs	r3, #0
    2bca:	62fb      	str	r3, [r7, #44]	; 0x2c
    2bcc:	68fb      	ldr	r3, [r7, #12]
    2bce:	62bb      	str	r3, [r7, #40]	; 0x28
    2bd0:	6abb      	ldr	r3, [r7, #40]	; 0x28
    2bd2:	2b00      	cmp	r3, #0
    2bd4:	d109      	bne.n	2bea <xQueueReceive+0x2e>
    2bd6:	f04f 0320 	mov.w	r3, #32
    2bda:	f383 8811 	msr	BASEPRI, r3
    2bde:	f3bf 8f6f 	isb	sy
    2be2:	f3bf 8f4f 	dsb	sy
    2be6:	623b      	str	r3, [r7, #32]
    2be8:	e7fe      	b.n	2be8 <xQueueReceive+0x2c>
    2bea:	68bb      	ldr	r3, [r7, #8]
    2bec:	2b00      	cmp	r3, #0
    2bee:	d103      	bne.n	2bf8 <xQueueReceive+0x3c>
    2bf0:	6abb      	ldr	r3, [r7, #40]	; 0x28
    2bf2:	6c1b      	ldr	r3, [r3, #64]	; 0x40
    2bf4:	2b00      	cmp	r3, #0
    2bf6:	d101      	bne.n	2bfc <xQueueReceive+0x40>
    2bf8:	2301      	movs	r3, #1
    2bfa:	e000      	b.n	2bfe <xQueueReceive+0x42>
    2bfc:	2300      	movs	r3, #0
    2bfe:	2b00      	cmp	r3, #0
    2c00:	d109      	bne.n	2c16 <xQueueReceive+0x5a>
    2c02:	f04f 0320 	mov.w	r3, #32
    2c06:	f383 8811 	msr	BASEPRI, r3
    2c0a:	f3bf 8f6f 	isb	sy
    2c0e:	f3bf 8f4f 	dsb	sy
    2c12:	61fb      	str	r3, [r7, #28]
    2c14:	e7fe      	b.n	2c14 <xQueueReceive+0x58>
    2c16:	f000 fd2b 	bl	3670 <xTaskGetSchedulerState>
    2c1a:	4603      	mov	r3, r0
    2c1c:	2b00      	cmp	r3, #0
    2c1e:	d102      	bne.n	2c26 <xQueueReceive+0x6a>
    2c20:	687b      	ldr	r3, [r7, #4]
    2c22:	2b00      	cmp	r3, #0
    2c24:	d101      	bne.n	2c2a <xQueueReceive+0x6e>
    2c26:	2301      	movs	r3, #1
    2c28:	e000      	b.n	2c2c <xQueueReceive+0x70>
    2c2a:	2300      	movs	r3, #0
    2c2c:	2b00      	cmp	r3, #0
    2c2e:	d109      	bne.n	2c44 <xQueueReceive+0x88>
    2c30:	f04f 0320 	mov.w	r3, #32
    2c34:	f383 8811 	msr	BASEPRI, r3
    2c38:	f3bf 8f6f 	isb	sy
    2c3c:	f3bf 8f4f 	dsb	sy
    2c40:	61bb      	str	r3, [r7, #24]
    2c42:	e7fe      	b.n	2c42 <xQueueReceive+0x86>
    2c44:	f7ff fd9a 	bl	277c <vPortEnterCritical>
    2c48:	6abb      	ldr	r3, [r7, #40]	; 0x28
    2c4a:	6b9b      	ldr	r3, [r3, #56]	; 0x38
    2c4c:	627b      	str	r3, [r7, #36]	; 0x24
    2c4e:	6a7b      	ldr	r3, [r7, #36]	; 0x24
    2c50:	2b00      	cmp	r3, #0
    2c52:	d01f      	beq.n	2c94 <xQueueReceive+0xd8>
    2c54:	68b9      	ldr	r1, [r7, #8]
    2c56:	6ab8      	ldr	r0, [r7, #40]	; 0x28
    2c58:	f002 fb4b 	bl	52f2 <prvCopyDataFromQueue>
    2c5c:	6a7b      	ldr	r3, [r7, #36]	; 0x24
    2c5e:	1e5a      	subs	r2, r3, #1
    2c60:	6abb      	ldr	r3, [r7, #40]	; 0x28
    2c62:	639a      	str	r2, [r3, #56]	; 0x38
    2c64:	6abb      	ldr	r3, [r7, #40]	; 0x28
    2c66:	691b      	ldr	r3, [r3, #16]
    2c68:	2b00      	cmp	r3, #0
    2c6a:	d00f      	beq.n	2c8c <xQueueReceive+0xd0>
    2c6c:	6abb      	ldr	r3, [r7, #40]	; 0x28
    2c6e:	3310      	adds	r3, #16
    2c70:	4618      	mov	r0, r3
    2c72:	f000 fb6f 	bl	3354 <xTaskRemoveFromEventList>
    2c76:	4603      	mov	r3, r0
    2c78:	2b00      	cmp	r3, #0
    2c7a:	d007      	beq.n	2c8c <xQueueReceive+0xd0>
    2c7c:	4b3c      	ldr	r3, [pc, #240]	; (2d70 <xQueueReceive+0x1b4>)
    2c7e:	f04f 5280 	mov.w	r2, #268435456	; 0x10000000
    2c82:	601a      	str	r2, [r3, #0]
    2c84:	f3bf 8f4f 	dsb	sy
    2c88:	f3bf 8f6f 	isb	sy
    2c8c:	f7ff fda4 	bl	27d8 <vPortExitCritical>
    2c90:	2301      	movs	r3, #1
    2c92:	e069      	b.n	2d68 <xQueueReceive+0x1ac>
    2c94:	687b      	ldr	r3, [r7, #4]
    2c96:	2b00      	cmp	r3, #0
    2c98:	d103      	bne.n	2ca2 <xQueueReceive+0xe6>
    2c9a:	f7ff fd9d 	bl	27d8 <vPortExitCritical>
    2c9e:	2300      	movs	r3, #0
    2ca0:	e062      	b.n	2d68 <xQueueReceive+0x1ac>
    2ca2:	6afb      	ldr	r3, [r7, #44]	; 0x2c
    2ca4:	2b00      	cmp	r3, #0
    2ca6:	d106      	bne.n	2cb6 <xQueueReceive+0xfa>
    2ca8:	f107 0310 	add.w	r3, r7, #16
    2cac:	4618      	mov	r0, r3
    2cae:	f000 fbb3 	bl	3418 <vTaskInternalSetTimeOutState>
    2cb2:	2301      	movs	r3, #1
    2cb4:	62fb      	str	r3, [r7, #44]	; 0x2c
    2cb6:	f7ff fd8f 	bl	27d8 <vPortExitCritical>
    2cba:	f000 f93d 	bl	2f38 <vTaskSuspendAll>
    2cbe:	f7ff fd5d 	bl	277c <vPortEnterCritical>
    2cc2:	6abb      	ldr	r3, [r7, #40]	; 0x28
    2cc4:	f893 3044 	ldrb.w	r3, [r3, #68]	; 0x44
    2cc8:	b25b      	sxtb	r3, r3
    2cca:	f1b3 3fff 	cmp.w	r3, #4294967295	; 0xffffffff
    2cce:	d103      	bne.n	2cd8 <xQueueReceive+0x11c>
    2cd0:	6abb      	ldr	r3, [r7, #40]	; 0x28
    2cd2:	2200      	movs	r2, #0
    2cd4:	f883 2044 	strb.w	r2, [r3, #68]	; 0x44
    2cd8:	6abb      	ldr	r3, [r7, #40]	; 0x28
    2cda:	f893 3045 	ldrb.w	r3, [r3, #69]	; 0x45
    2cde:	b25b      	sxtb	r3, r3
    2ce0:	f1b3 3fff 	cmp.w	r3, #4294967295	; 0xffffffff
    2ce4:	d103      	bne.n	2cee <xQueueReceive+0x132>
    2ce6:	6abb      	ldr	r3, [r7, #40]	; 0x28
    2ce8:	2200      	movs	r2, #0
    2cea:	f883 2045 	strb.w	r2, [r3, #69]	; 0x45
    2cee:	f7ff fd73 	bl	27d8 <vPortExitCritical>
    2cf2:	1d3a      	adds	r2, r7, #4
    2cf4:	f107 0310 	add.w	r3, r7, #16
    2cf8:	4611      	mov	r1, r2
    2cfa:	4618      	mov	r0, r3
    2cfc:	f000 fba2 	bl	3444 <xTaskCheckForTimeOut>
    2d00:	4603      	mov	r3, r0
    2d02:	2b00      	cmp	r3, #0
    2d04:	d123      	bne.n	2d4e <xQueueReceive+0x192>
    2d06:	6ab8      	ldr	r0, [r7, #40]	; 0x28
    2d08:	f002 fb6b 	bl	53e2 <prvIsQueueEmpty>
    2d0c:	4603      	mov	r3, r0
    2d0e:	2b00      	cmp	r3, #0
    2d10:	d017      	beq.n	2d42 <xQueueReceive+0x186>
    2d12:	6abb      	ldr	r3, [r7, #40]	; 0x28
    2d14:	3324      	adds	r3, #36	; 0x24
    2d16:	687a      	ldr	r2, [r7, #4]
    2d18:	4611      	mov	r1, r2
    2d1a:	4618      	mov	r0, r3
    2d1c:	f000 facc 	bl	32b8 <vTaskPlaceOnEventList>
    2d20:	6ab8      	ldr	r0, [r7, #40]	; 0x28
    2d22:	f002 fb0c 	bl	533e <prvUnlockQueue>
    2d26:	f000 f915 	bl	2f54 <xTaskResumeAll>
    2d2a:	4603      	mov	r3, r0
    2d2c:	2b00      	cmp	r3, #0
    2d2e:	d189      	bne.n	2c44 <xQueueReceive+0x88>
    2d30:	4b0f      	ldr	r3, [pc, #60]	; (2d70 <xQueueReceive+0x1b4>)
    2d32:	f04f 5280 	mov.w	r2, #268435456	; 0x10000000
    2d36:	601a      	str	r2, [r3, #0]
    2d38:	f3bf 8f4f 	dsb	sy
    2d3c:	f3bf 8f6f 	isb	sy
    2d40:	e780      	b.n	2c44 <xQueueReceive+0x88>
    2d42:	6ab8      	ldr	r0, [r7, #40]	; 0x28
    2d44:	f002 fafb 	bl	533e <prvUnlockQueue>
    2d48:	f000 f904 	bl	2f54 <xTaskResumeAll>
    2d4c:	e77a      	b.n	2c44 <xQueueReceive+0x88>
    2d4e:	6ab8      	ldr	r0, [r7, #40]	; 0x28
    2d50:	f002 faf5 	bl	533e <prvUnlockQueue>
    2d54:	f000 f8fe 	bl	2f54 <xTaskResumeAll>
    2d58:	6ab8      	ldr	r0, [r7, #40]	; 0x28
    2d5a:	f002 fb42 	bl	53e2 <prvIsQueueEmpty>
    2d5e:	4603      	mov	r3, r0
    2d60:	2b00      	cmp	r3, #0
    2d62:	f43f af6f 	beq.w	2c44 <xQueueReceive+0x88>
    2d66:	2300      	movs	r3, #0
    2d68:	4618      	mov	r0, r3
    2d6a:	3730      	adds	r7, #48	; 0x30
    2d6c:	46bd      	mov	sp, r7
    2d6e:	bd80      	pop	{r7, pc}
    2d70:	e000ed04 	.word	0xe000ed04

00002d74 <vQueueAddToRegistry>:
    2d74:	b480      	push	{r7}
    2d76:	b085      	sub	sp, #20
    2d78:	af00      	add	r7, sp, #0
    2d7a:	6078      	str	r0, [r7, #4]
    2d7c:	6039      	str	r1, [r7, #0]
    2d7e:	2300      	movs	r3, #0
    2d80:	60fb      	str	r3, [r7, #12]
    2d82:	e014      	b.n	2dae <vQueueAddToRegistry+0x3a>
    2d84:	4a0e      	ldr	r2, [pc, #56]	; (2dc0 <vQueueAddToRegistry+0x4c>)
    2d86:	68fb      	ldr	r3, [r7, #12]
    2d88:	f852 3033 	ldr.w	r3, [r2, r3, lsl #3]
    2d8c:	2b00      	cmp	r3, #0
    2d8e:	d10b      	bne.n	2da8 <vQueueAddToRegistry+0x34>
    2d90:	490b      	ldr	r1, [pc, #44]	; (2dc0 <vQueueAddToRegistry+0x4c>)
    2d92:	68fb      	ldr	r3, [r7, #12]
    2d94:	683a      	ldr	r2, [r7, #0]
    2d96:	f841 2033 	str.w	r2, [r1, r3, lsl #3]
    2d9a:	4a09      	ldr	r2, [pc, #36]	; (2dc0 <vQueueAddToRegistry+0x4c>)
    2d9c:	68fb      	ldr	r3, [r7, #12]
    2d9e:	00db      	lsls	r3, r3, #3
    2da0:	4413      	add	r3, r2
    2da2:	687a      	ldr	r2, [r7, #4]
    2da4:	605a      	str	r2, [r3, #4]
    2da6:	e005      	b.n	2db4 <vQueueAddToRegistry+0x40>
    2da8:	68fb      	ldr	r3, [r7, #12]
    2daa:	3301      	adds	r3, #1
    2dac:	60fb      	str	r3, [r7, #12]
    2dae:	68fb      	ldr	r3, [r7, #12]
    2db0:	2b07      	cmp	r3, #7
    2db2:	d9e7      	bls.n	2d84 <vQueueAddToRegistry+0x10>
    2db4:	bf00      	nop
    2db6:	3714      	adds	r7, #20
    2db8:	46bd      	mov	sp, r7
    2dba:	f85d 7b04 	ldr.w	r7, [sp], #4
    2dbe:	4770      	bx	lr
    2dc0:	20002860 	.word	0x20002860

00002dc4 <prvAddNewTaskToReadyList>:
    2dc4:	b580      	push	{r7, lr}
    2dc6:	b082      	sub	sp, #8
    2dc8:	af00      	add	r7, sp, #0
    2dca:	6078      	str	r0, [r7, #4]
    2dcc:	f7ff fcd6 	bl	277c <vPortEnterCritical>
    2dd0:	4b2c      	ldr	r3, [pc, #176]	; (2e84 <prvAddNewTaskToReadyList+0xc0>)
    2dd2:	681b      	ldr	r3, [r3, #0]
    2dd4:	3301      	adds	r3, #1
    2dd6:	4a2b      	ldr	r2, [pc, #172]	; (2e84 <prvAddNewTaskToReadyList+0xc0>)
    2dd8:	6013      	str	r3, [r2, #0]
    2dda:	4b2b      	ldr	r3, [pc, #172]	; (2e88 <prvAddNewTaskToReadyList+0xc4>)
    2ddc:	681b      	ldr	r3, [r3, #0]
    2dde:	2b00      	cmp	r3, #0
    2de0:	d109      	bne.n	2df6 <prvAddNewTaskToReadyList+0x32>
    2de2:	4a29      	ldr	r2, [pc, #164]	; (2e88 <prvAddNewTaskToReadyList+0xc4>)
    2de4:	687b      	ldr	r3, [r7, #4]
    2de6:	6013      	str	r3, [r2, #0]
    2de8:	4b26      	ldr	r3, [pc, #152]	; (2e84 <prvAddNewTaskToReadyList+0xc0>)
    2dea:	681b      	ldr	r3, [r3, #0]
    2dec:	2b01      	cmp	r3, #1
    2dee:	d110      	bne.n	2e12 <prvAddNewTaskToReadyList+0x4e>
    2df0:	f000 fbac 	bl	354c <prvInitialiseTaskLists>
    2df4:	e00d      	b.n	2e12 <prvAddNewTaskToReadyList+0x4e>
    2df6:	4b25      	ldr	r3, [pc, #148]	; (2e8c <prvAddNewTaskToReadyList+0xc8>)
    2df8:	681b      	ldr	r3, [r3, #0]
    2dfa:	2b00      	cmp	r3, #0
    2dfc:	d109      	bne.n	2e12 <prvAddNewTaskToReadyList+0x4e>
    2dfe:	4b22      	ldr	r3, [pc, #136]	; (2e88 <prvAddNewTaskToReadyList+0xc4>)
    2e00:	681b      	ldr	r3, [r3, #0]
    2e02:	6ada      	ldr	r2, [r3, #44]	; 0x2c
    2e04:	687b      	ldr	r3, [r7, #4]
    2e06:	6adb      	ldr	r3, [r3, #44]	; 0x2c
    2e08:	429a      	cmp	r2, r3
    2e0a:	d802      	bhi.n	2e12 <prvAddNewTaskToReadyList+0x4e>
    2e0c:	4a1e      	ldr	r2, [pc, #120]	; (2e88 <prvAddNewTaskToReadyList+0xc4>)
    2e0e:	687b      	ldr	r3, [r7, #4]
    2e10:	6013      	str	r3, [r2, #0]
    2e12:	4b1f      	ldr	r3, [pc, #124]	; (2e90 <prvAddNewTaskToReadyList+0xcc>)
    2e14:	681b      	ldr	r3, [r3, #0]
    2e16:	3301      	adds	r3, #1
    2e18:	4a1d      	ldr	r2, [pc, #116]	; (2e90 <prvAddNewTaskToReadyList+0xcc>)
    2e1a:	6013      	str	r3, [r2, #0]
    2e1c:	4b1c      	ldr	r3, [pc, #112]	; (2e90 <prvAddNewTaskToReadyList+0xcc>)
    2e1e:	681a      	ldr	r2, [r3, #0]
    2e20:	687b      	ldr	r3, [r7, #4]
    2e22:	64da      	str	r2, [r3, #76]	; 0x4c
    2e24:	687b      	ldr	r3, [r7, #4]
    2e26:	6adb      	ldr	r3, [r3, #44]	; 0x2c
    2e28:	2201      	movs	r2, #1
    2e2a:	409a      	lsls	r2, r3
    2e2c:	4b19      	ldr	r3, [pc, #100]	; (2e94 <prvAddNewTaskToReadyList+0xd0>)
    2e2e:	681b      	ldr	r3, [r3, #0]
    2e30:	4313      	orrs	r3, r2
    2e32:	4a18      	ldr	r2, [pc, #96]	; (2e94 <prvAddNewTaskToReadyList+0xd0>)
    2e34:	6013      	str	r3, [r2, #0]
    2e36:	687b      	ldr	r3, [r7, #4]
    2e38:	6ada      	ldr	r2, [r3, #44]	; 0x2c
    2e3a:	4613      	mov	r3, r2
    2e3c:	009b      	lsls	r3, r3, #2
    2e3e:	4413      	add	r3, r2
    2e40:	009b      	lsls	r3, r3, #2
    2e42:	4a15      	ldr	r2, [pc, #84]	; (2e98 <prvAddNewTaskToReadyList+0xd4>)
    2e44:	441a      	add	r2, r3
    2e46:	687b      	ldr	r3, [r7, #4]
    2e48:	3304      	adds	r3, #4
    2e4a:	4619      	mov	r1, r3
    2e4c:	4610      	mov	r0, r2
    2e4e:	f002 f86f 	bl	4f30 <vListInsertEnd>
    2e52:	f7ff fcc1 	bl	27d8 <vPortExitCritical>
    2e56:	4b0d      	ldr	r3, [pc, #52]	; (2e8c <prvAddNewTaskToReadyList+0xc8>)
    2e58:	681b      	ldr	r3, [r3, #0]
    2e5a:	2b00      	cmp	r3, #0
    2e5c:	d00e      	beq.n	2e7c <prvAddNewTaskToReadyList+0xb8>
    2e5e:	4b0a      	ldr	r3, [pc, #40]	; (2e88 <prvAddNewTaskToReadyList+0xc4>)
    2e60:	681b      	ldr	r3, [r3, #0]
    2e62:	6ada      	ldr	r2, [r3, #44]	; 0x2c
    2e64:	687b      	ldr	r3, [r7, #4]
    2e66:	6adb      	ldr	r3, [r3, #44]	; 0x2c
    2e68:	429a      	cmp	r2, r3
    2e6a:	d207      	bcs.n	2e7c <prvAddNewTaskToReadyList+0xb8>
    2e6c:	4b0b      	ldr	r3, [pc, #44]	; (2e9c <prvAddNewTaskToReadyList+0xd8>)
    2e6e:	f04f 5280 	mov.w	r2, #268435456	; 0x10000000
    2e72:	601a      	str	r2, [r3, #0]
    2e74:	f3bf 8f4f 	dsb	sy
    2e78:	f3bf 8f6f 	isb	sy
    2e7c:	bf00      	nop
    2e7e:	3708      	adds	r7, #8
    2e80:	46bd      	mov	sp, r7
    2e82:	bd80      	pop	{r7, pc}
    2e84:	20002978 	.word	0x20002978
    2e88:	200028a0 	.word	0x200028a0
    2e8c:	20002984 	.word	0x20002984
    2e90:	20002994 	.word	0x20002994
    2e94:	20002980 	.word	0x20002980
    2e98:	200028a4 	.word	0x200028a4
    2e9c:	e000ed04 	.word	0xe000ed04

00002ea0 <vTaskStartScheduler>:
    2ea0:	b580      	push	{r7, lr}
    2ea2:	b086      	sub	sp, #24
    2ea4:	af02      	add	r7, sp, #8
    2ea6:	4b1e      	ldr	r3, [pc, #120]	; (2f20 <vTaskStartScheduler+0x80>)
    2ea8:	9301      	str	r3, [sp, #4]
    2eaa:	2300      	movs	r3, #0
    2eac:	9300      	str	r3, [sp, #0]
    2eae:	2300      	movs	r3, #0
    2eb0:	225a      	movs	r2, #90	; 0x5a
    2eb2:	491c      	ldr	r1, [pc, #112]	; (2f24 <vTaskStartScheduler+0x84>)
    2eb4:	481c      	ldr	r0, [pc, #112]	; (2f28 <vTaskStartScheduler+0x88>)
    2eb6:	f002 faf6 	bl	54a6 <xTaskCreate>
    2eba:	60f8      	str	r0, [r7, #12]
    2ebc:	68fb      	ldr	r3, [r7, #12]
    2ebe:	2b01      	cmp	r3, #1
    2ec0:	d102      	bne.n	2ec8 <vTaskStartScheduler+0x28>
    2ec2:	f000 fcdd 	bl	3880 <xTimerCreateTimerTask>
    2ec6:	60f8      	str	r0, [r7, #12]
    2ec8:	68fb      	ldr	r3, [r7, #12]
    2eca:	2b01      	cmp	r3, #1
    2ecc:	d115      	bne.n	2efa <vTaskStartScheduler+0x5a>
    2ece:	f04f 0320 	mov.w	r3, #32
    2ed2:	f383 8811 	msr	BASEPRI, r3
    2ed6:	f3bf 8f6f 	isb	sy
    2eda:	f3bf 8f4f 	dsb	sy
    2ede:	60bb      	str	r3, [r7, #8]
    2ee0:	4b12      	ldr	r3, [pc, #72]	; (2f2c <vTaskStartScheduler+0x8c>)
    2ee2:	f04f 32ff 	mov.w	r2, #4294967295	; 0xffffffff
    2ee6:	601a      	str	r2, [r3, #0]
    2ee8:	4b11      	ldr	r3, [pc, #68]	; (2f30 <vTaskStartScheduler+0x90>)
    2eea:	2201      	movs	r2, #1
    2eec:	601a      	str	r2, [r3, #0]
    2eee:	4b11      	ldr	r3, [pc, #68]	; (2f34 <vTaskStartScheduler+0x94>)
    2ef0:	2200      	movs	r2, #0
    2ef2:	601a      	str	r2, [r3, #0]
    2ef4:	f7ff fba4 	bl	2640 <xPortStartScheduler>
    2ef8:	e00d      	b.n	2f16 <vTaskStartScheduler+0x76>
    2efa:	68fb      	ldr	r3, [r7, #12]
    2efc:	f1b3 3fff 	cmp.w	r3, #4294967295	; 0xffffffff
    2f00:	d109      	bne.n	2f16 <vTaskStartScheduler+0x76>
    2f02:	f04f 0320 	mov.w	r3, #32
    2f06:	f383 8811 	msr	BASEPRI, r3
    2f0a:	f3bf 8f6f 	isb	sy
    2f0e:	f3bf 8f4f 	dsb	sy
    2f12:	607b      	str	r3, [r7, #4]
    2f14:	e7fe      	b.n	2f14 <vTaskStartScheduler+0x74>
    2f16:	bf00      	nop
    2f18:	3710      	adds	r7, #16
    2f1a:	46bd      	mov	sp, r7
    2f1c:	bd80      	pop	{r7, pc}
    2f1e:	bf00      	nop
    2f20:	2000299c 	.word	0x2000299c
    2f24:	00006904 	.word	0x00006904
    2f28:	0000351d 	.word	0x0000351d
    2f2c:	20002998 	.word	0x20002998
    2f30:	20002984 	.word	0x20002984
    2f34:	2000297c 	.word	0x2000297c

00002f38 <vTaskSuspendAll>:
    2f38:	b480      	push	{r7}
    2f3a:	af00      	add	r7, sp, #0
    2f3c:	4b04      	ldr	r3, [pc, #16]	; (2f50 <vTaskSuspendAll+0x18>)
    2f3e:	681b      	ldr	r3, [r3, #0]
    2f40:	3301      	adds	r3, #1
    2f42:	4a03      	ldr	r2, [pc, #12]	; (2f50 <vTaskSuspendAll+0x18>)
    2f44:	6013      	str	r3, [r2, #0]
    2f46:	bf00      	nop
    2f48:	46bd      	mov	sp, r7
    2f4a:	f85d 7b04 	ldr.w	r7, [sp], #4
    2f4e:	4770      	bx	lr
    2f50:	200029a0 	.word	0x200029a0

00002f54 <xTaskResumeAll>:
    2f54:	b580      	push	{r7, lr}
    2f56:	b084      	sub	sp, #16
    2f58:	af00      	add	r7, sp, #0
    2f5a:	2300      	movs	r3, #0
    2f5c:	60fb      	str	r3, [r7, #12]
    2f5e:	2300      	movs	r3, #0
    2f60:	60bb      	str	r3, [r7, #8]
    2f62:	4b41      	ldr	r3, [pc, #260]	; (3068 <xTaskResumeAll+0x114>)
    2f64:	681b      	ldr	r3, [r3, #0]
    2f66:	2b00      	cmp	r3, #0
    2f68:	d109      	bne.n	2f7e <xTaskResumeAll+0x2a>
    2f6a:	f04f 0320 	mov.w	r3, #32
    2f6e:	f383 8811 	msr	BASEPRI, r3
    2f72:	f3bf 8f6f 	isb	sy
    2f76:	f3bf 8f4f 	dsb	sy
    2f7a:	603b      	str	r3, [r7, #0]
    2f7c:	e7fe      	b.n	2f7c <xTaskResumeAll+0x28>
    2f7e:	f7ff fbfd 	bl	277c <vPortEnterCritical>
    2f82:	4b39      	ldr	r3, [pc, #228]	; (3068 <xTaskResumeAll+0x114>)
    2f84:	681b      	ldr	r3, [r3, #0]
    2f86:	3b01      	subs	r3, #1
    2f88:	4a37      	ldr	r2, [pc, #220]	; (3068 <xTaskResumeAll+0x114>)
    2f8a:	6013      	str	r3, [r2, #0]
    2f8c:	4b36      	ldr	r3, [pc, #216]	; (3068 <xTaskResumeAll+0x114>)
    2f8e:	681b      	ldr	r3, [r3, #0]
    2f90:	2b00      	cmp	r3, #0
    2f92:	d161      	bne.n	3058 <xTaskResumeAll+0x104>
    2f94:	4b35      	ldr	r3, [pc, #212]	; (306c <xTaskResumeAll+0x118>)
    2f96:	681b      	ldr	r3, [r3, #0]
    2f98:	2b00      	cmp	r3, #0
    2f9a:	d05d      	beq.n	3058 <xTaskResumeAll+0x104>
    2f9c:	e02e      	b.n	2ffc <xTaskResumeAll+0xa8>
    2f9e:	4b34      	ldr	r3, [pc, #208]	; (3070 <xTaskResumeAll+0x11c>)
    2fa0:	68db      	ldr	r3, [r3, #12]
    2fa2:	68db      	ldr	r3, [r3, #12]
    2fa4:	60fb      	str	r3, [r7, #12]
    2fa6:	68fb      	ldr	r3, [r7, #12]
    2fa8:	3318      	adds	r3, #24
    2faa:	4618      	mov	r0, r3
    2fac:	f002 f81d 	bl	4fea <uxListRemove>
    2fb0:	68fb      	ldr	r3, [r7, #12]
    2fb2:	3304      	adds	r3, #4
    2fb4:	4618      	mov	r0, r3
    2fb6:	f002 f818 	bl	4fea <uxListRemove>
    2fba:	68fb      	ldr	r3, [r7, #12]
    2fbc:	6adb      	ldr	r3, [r3, #44]	; 0x2c
    2fbe:	2201      	movs	r2, #1
    2fc0:	409a      	lsls	r2, r3
    2fc2:	4b2c      	ldr	r3, [pc, #176]	; (3074 <xTaskResumeAll+0x120>)
    2fc4:	681b      	ldr	r3, [r3, #0]
    2fc6:	4313      	orrs	r3, r2
    2fc8:	4a2a      	ldr	r2, [pc, #168]	; (3074 <xTaskResumeAll+0x120>)
    2fca:	6013      	str	r3, [r2, #0]
    2fcc:	68fb      	ldr	r3, [r7, #12]
    2fce:	6ada      	ldr	r2, [r3, #44]	; 0x2c
    2fd0:	4613      	mov	r3, r2
    2fd2:	009b      	lsls	r3, r3, #2
    2fd4:	4413      	add	r3, r2
    2fd6:	009b      	lsls	r3, r3, #2
    2fd8:	4a27      	ldr	r2, [pc, #156]	; (3078 <xTaskResumeAll+0x124>)
    2fda:	441a      	add	r2, r3
    2fdc:	68fb      	ldr	r3, [r7, #12]
    2fde:	3304      	adds	r3, #4
    2fe0:	4619      	mov	r1, r3
    2fe2:	4610      	mov	r0, r2
    2fe4:	f001 ffa4 	bl	4f30 <vListInsertEnd>
    2fe8:	68fb      	ldr	r3, [r7, #12]
    2fea:	6ada      	ldr	r2, [r3, #44]	; 0x2c
    2fec:	4b23      	ldr	r3, [pc, #140]	; (307c <xTaskResumeAll+0x128>)
    2fee:	681b      	ldr	r3, [r3, #0]
    2ff0:	6adb      	ldr	r3, [r3, #44]	; 0x2c
    2ff2:	429a      	cmp	r2, r3
    2ff4:	d302      	bcc.n	2ffc <xTaskResumeAll+0xa8>
    2ff6:	4b22      	ldr	r3, [pc, #136]	; (3080 <xTaskResumeAll+0x12c>)
    2ff8:	2201      	movs	r2, #1
    2ffa:	601a      	str	r2, [r3, #0]
    2ffc:	4b1c      	ldr	r3, [pc, #112]	; (3070 <xTaskResumeAll+0x11c>)
    2ffe:	681b      	ldr	r3, [r3, #0]
    3000:	2b00      	cmp	r3, #0
    3002:	d1cc      	bne.n	2f9e <xTaskResumeAll+0x4a>
    3004:	68fb      	ldr	r3, [r7, #12]
    3006:	2b00      	cmp	r3, #0
    3008:	d001      	beq.n	300e <xTaskResumeAll+0xba>
    300a:	f000 fb0b 	bl	3624 <prvResetNextTaskUnblockTime>
    300e:	4b1d      	ldr	r3, [pc, #116]	; (3084 <xTaskResumeAll+0x130>)
    3010:	681b      	ldr	r3, [r3, #0]
    3012:	607b      	str	r3, [r7, #4]
    3014:	687b      	ldr	r3, [r7, #4]
    3016:	2b00      	cmp	r3, #0
    3018:	d010      	beq.n	303c <xTaskResumeAll+0xe8>
    301a:	f000 f847 	bl	30ac <xTaskIncrementTick>
    301e:	4603      	mov	r3, r0
    3020:	2b00      	cmp	r3, #0
    3022:	d002      	beq.n	302a <xTaskResumeAll+0xd6>
    3024:	4b16      	ldr	r3, [pc, #88]	; (3080 <xTaskResumeAll+0x12c>)
    3026:	2201      	movs	r2, #1
    3028:	601a      	str	r2, [r3, #0]
    302a:	687b      	ldr	r3, [r7, #4]
    302c:	3b01      	subs	r3, #1
    302e:	607b      	str	r3, [r7, #4]
    3030:	687b      	ldr	r3, [r7, #4]
    3032:	2b00      	cmp	r3, #0
    3034:	d1f1      	bne.n	301a <xTaskResumeAll+0xc6>
    3036:	4b13      	ldr	r3, [pc, #76]	; (3084 <xTaskResumeAll+0x130>)
    3038:	2200      	movs	r2, #0
    303a:	601a      	str	r2, [r3, #0]
    303c:	4b10      	ldr	r3, [pc, #64]	; (3080 <xTaskResumeAll+0x12c>)
    303e:	681b      	ldr	r3, [r3, #0]
    3040:	2b00      	cmp	r3, #0
    3042:	d009      	beq.n	3058 <xTaskResumeAll+0x104>
    3044:	2301      	movs	r3, #1
    3046:	60bb      	str	r3, [r7, #8]
    3048:	4b0f      	ldr	r3, [pc, #60]	; (3088 <xTaskResumeAll+0x134>)
    304a:	f04f 5280 	mov.w	r2, #268435456	; 0x10000000
    304e:	601a      	str	r2, [r3, #0]
    3050:	f3bf 8f4f 	dsb	sy
    3054:	f3bf 8f6f 	isb	sy
    3058:	f7ff fbbe 	bl	27d8 <vPortExitCritical>
    305c:	68bb      	ldr	r3, [r7, #8]
    305e:	4618      	mov	r0, r3
    3060:	3710      	adds	r7, #16
    3062:	46bd      	mov	sp, r7
    3064:	bd80      	pop	{r7, pc}
    3066:	bf00      	nop
    3068:	200029a0 	.word	0x200029a0
    306c:	20002978 	.word	0x20002978
    3070:	20002938 	.word	0x20002938
    3074:	20002980 	.word	0x20002980
    3078:	200028a4 	.word	0x200028a4
    307c:	200028a0 	.word	0x200028a0
    3080:	2000298c 	.word	0x2000298c
    3084:	20002988 	.word	0x20002988
    3088:	e000ed04 	.word	0xe000ed04

0000308c <xTaskGetTickCount>:
    308c:	b480      	push	{r7}
    308e:	b083      	sub	sp, #12
    3090:	af00      	add	r7, sp, #0
    3092:	4b05      	ldr	r3, [pc, #20]	; (30a8 <xTaskGetTickCount+0x1c>)
    3094:	681b      	ldr	r3, [r3, #0]
    3096:	607b      	str	r3, [r7, #4]
    3098:	687b      	ldr	r3, [r7, #4]
    309a:	4618      	mov	r0, r3
    309c:	370c      	adds	r7, #12
    309e:	46bd      	mov	sp, r7
    30a0:	f85d 7b04 	ldr.w	r7, [sp], #4
    30a4:	4770      	bx	lr
    30a6:	bf00      	nop
    30a8:	2000297c 	.word	0x2000297c

000030ac <xTaskIncrementTick>:
    30ac:	b580      	push	{r7, lr}
    30ae:	b086      	sub	sp, #24
    30b0:	af00      	add	r7, sp, #0
    30b2:	2300      	movs	r3, #0
    30b4:	617b      	str	r3, [r7, #20]
    30b6:	4b48      	ldr	r3, [pc, #288]	; (31d8 <xTaskIncrementTick+0x12c>)
    30b8:	681b      	ldr	r3, [r3, #0]
    30ba:	2b00      	cmp	r3, #0
    30bc:	d17c      	bne.n	31b8 <xTaskIncrementTick+0x10c>
    30be:	4b47      	ldr	r3, [pc, #284]	; (31dc <xTaskIncrementTick+0x130>)
    30c0:	681b      	ldr	r3, [r3, #0]
    30c2:	3301      	adds	r3, #1
    30c4:	613b      	str	r3, [r7, #16]
    30c6:	4a45      	ldr	r2, [pc, #276]	; (31dc <xTaskIncrementTick+0x130>)
    30c8:	693b      	ldr	r3, [r7, #16]
    30ca:	6013      	str	r3, [r2, #0]
    30cc:	693b      	ldr	r3, [r7, #16]
    30ce:	2b00      	cmp	r3, #0
    30d0:	d11f      	bne.n	3112 <xTaskIncrementTick+0x66>
    30d2:	4b43      	ldr	r3, [pc, #268]	; (31e0 <xTaskIncrementTick+0x134>)
    30d4:	681b      	ldr	r3, [r3, #0]
    30d6:	681b      	ldr	r3, [r3, #0]
    30d8:	2b00      	cmp	r3, #0
    30da:	d009      	beq.n	30f0 <xTaskIncrementTick+0x44>
    30dc:	f04f 0320 	mov.w	r3, #32
    30e0:	f383 8811 	msr	BASEPRI, r3
    30e4:	f3bf 8f6f 	isb	sy
    30e8:	f3bf 8f4f 	dsb	sy
    30ec:	603b      	str	r3, [r7, #0]
    30ee:	e7fe      	b.n	30ee <xTaskIncrementTick+0x42>
    30f0:	4b3b      	ldr	r3, [pc, #236]	; (31e0 <xTaskIncrementTick+0x134>)
    30f2:	681b      	ldr	r3, [r3, #0]
    30f4:	60fb      	str	r3, [r7, #12]
    30f6:	4b3b      	ldr	r3, [pc, #236]	; (31e4 <xTaskIncrementTick+0x138>)
    30f8:	681b      	ldr	r3, [r3, #0]
    30fa:	4a39      	ldr	r2, [pc, #228]	; (31e0 <xTaskIncrementTick+0x134>)
    30fc:	6013      	str	r3, [r2, #0]
    30fe:	4a39      	ldr	r2, [pc, #228]	; (31e4 <xTaskIncrementTick+0x138>)
    3100:	68fb      	ldr	r3, [r7, #12]
    3102:	6013      	str	r3, [r2, #0]
    3104:	4b38      	ldr	r3, [pc, #224]	; (31e8 <xTaskIncrementTick+0x13c>)
    3106:	681b      	ldr	r3, [r3, #0]
    3108:	3301      	adds	r3, #1
    310a:	4a37      	ldr	r2, [pc, #220]	; (31e8 <xTaskIncrementTick+0x13c>)
    310c:	6013      	str	r3, [r2, #0]
    310e:	f000 fa89 	bl	3624 <prvResetNextTaskUnblockTime>
    3112:	4b36      	ldr	r3, [pc, #216]	; (31ec <xTaskIncrementTick+0x140>)
    3114:	681b      	ldr	r3, [r3, #0]
    3116:	693a      	ldr	r2, [r7, #16]
    3118:	429a      	cmp	r2, r3
    311a:	d352      	bcc.n	31c2 <xTaskIncrementTick+0x116>
    311c:	4b30      	ldr	r3, [pc, #192]	; (31e0 <xTaskIncrementTick+0x134>)
    311e:	681b      	ldr	r3, [r3, #0]
    3120:	681b      	ldr	r3, [r3, #0]
    3122:	2b00      	cmp	r3, #0
    3124:	d101      	bne.n	312a <xTaskIncrementTick+0x7e>
    3126:	2301      	movs	r3, #1
    3128:	e000      	b.n	312c <xTaskIncrementTick+0x80>
    312a:	2300      	movs	r3, #0
    312c:	2b00      	cmp	r3, #0
    312e:	d004      	beq.n	313a <xTaskIncrementTick+0x8e>
    3130:	4b2e      	ldr	r3, [pc, #184]	; (31ec <xTaskIncrementTick+0x140>)
    3132:	f04f 32ff 	mov.w	r2, #4294967295	; 0xffffffff
    3136:	601a      	str	r2, [r3, #0]
    3138:	e043      	b.n	31c2 <xTaskIncrementTick+0x116>
    313a:	4b29      	ldr	r3, [pc, #164]	; (31e0 <xTaskIncrementTick+0x134>)
    313c:	681b      	ldr	r3, [r3, #0]
    313e:	68db      	ldr	r3, [r3, #12]
    3140:	68db      	ldr	r3, [r3, #12]
    3142:	60bb      	str	r3, [r7, #8]
    3144:	68bb      	ldr	r3, [r7, #8]
    3146:	685b      	ldr	r3, [r3, #4]
    3148:	607b      	str	r3, [r7, #4]
    314a:	693a      	ldr	r2, [r7, #16]
    314c:	687b      	ldr	r3, [r7, #4]
    314e:	429a      	cmp	r2, r3
    3150:	d203      	bcs.n	315a <xTaskIncrementTick+0xae>
    3152:	4a26      	ldr	r2, [pc, #152]	; (31ec <xTaskIncrementTick+0x140>)
    3154:	687b      	ldr	r3, [r7, #4]
    3156:	6013      	str	r3, [r2, #0]
    3158:	e033      	b.n	31c2 <xTaskIncrementTick+0x116>
    315a:	68bb      	ldr	r3, [r7, #8]
    315c:	3304      	adds	r3, #4
    315e:	4618      	mov	r0, r3
    3160:	f001 ff43 	bl	4fea <uxListRemove>
    3164:	68bb      	ldr	r3, [r7, #8]
    3166:	6a9b      	ldr	r3, [r3, #40]	; 0x28
    3168:	2b00      	cmp	r3, #0
    316a:	d004      	beq.n	3176 <xTaskIncrementTick+0xca>
    316c:	68bb      	ldr	r3, [r7, #8]
    316e:	3318      	adds	r3, #24
    3170:	4618      	mov	r0, r3
    3172:	f001 ff3a 	bl	4fea <uxListRemove>
    3176:	68bb      	ldr	r3, [r7, #8]
    3178:	6adb      	ldr	r3, [r3, #44]	; 0x2c
    317a:	2201      	movs	r2, #1
    317c:	409a      	lsls	r2, r3
    317e:	4b1c      	ldr	r3, [pc, #112]	; (31f0 <xTaskIncrementTick+0x144>)
    3180:	681b      	ldr	r3, [r3, #0]
    3182:	4313      	orrs	r3, r2
    3184:	4a1a      	ldr	r2, [pc, #104]	; (31f0 <xTaskIncrementTick+0x144>)
    3186:	6013      	str	r3, [r2, #0]
    3188:	68bb      	ldr	r3, [r7, #8]
    318a:	6ada      	ldr	r2, [r3, #44]	; 0x2c
    318c:	4613      	mov	r3, r2
    318e:	009b      	lsls	r3, r3, #2
    3190:	4413      	add	r3, r2
    3192:	009b      	lsls	r3, r3, #2
    3194:	4a17      	ldr	r2, [pc, #92]	; (31f4 <xTaskIncrementTick+0x148>)
    3196:	441a      	add	r2, r3
    3198:	68bb      	ldr	r3, [r7, #8]
    319a:	3304      	adds	r3, #4
    319c:	4619      	mov	r1, r3
    319e:	4610      	mov	r0, r2
    31a0:	f001 fec6 	bl	4f30 <vListInsertEnd>
    31a4:	68bb      	ldr	r3, [r7, #8]
    31a6:	6ada      	ldr	r2, [r3, #44]	; 0x2c
    31a8:	4b13      	ldr	r3, [pc, #76]	; (31f8 <xTaskIncrementTick+0x14c>)
    31aa:	681b      	ldr	r3, [r3, #0]
    31ac:	6adb      	ldr	r3, [r3, #44]	; 0x2c
    31ae:	429a      	cmp	r2, r3
    31b0:	d3b4      	bcc.n	311c <xTaskIncrementTick+0x70>
    31b2:	2301      	movs	r3, #1
    31b4:	617b      	str	r3, [r7, #20]
    31b6:	e7b1      	b.n	311c <xTaskIncrementTick+0x70>
    31b8:	4b10      	ldr	r3, [pc, #64]	; (31fc <xTaskIncrementTick+0x150>)
    31ba:	681b      	ldr	r3, [r3, #0]
    31bc:	3301      	adds	r3, #1
    31be:	4a0f      	ldr	r2, [pc, #60]	; (31fc <xTaskIncrementTick+0x150>)
    31c0:	6013      	str	r3, [r2, #0]
    31c2:	4b0f      	ldr	r3, [pc, #60]	; (3200 <xTaskIncrementTick+0x154>)
    31c4:	681b      	ldr	r3, [r3, #0]
    31c6:	2b00      	cmp	r3, #0
    31c8:	d001      	beq.n	31ce <xTaskIncrementTick+0x122>
    31ca:	2301      	movs	r3, #1
    31cc:	617b      	str	r3, [r7, #20]
    31ce:	697b      	ldr	r3, [r7, #20]
    31d0:	4618      	mov	r0, r3
    31d2:	3718      	adds	r7, #24
    31d4:	46bd      	mov	sp, r7
    31d6:	bd80      	pop	{r7, pc}
    31d8:	200029a0 	.word	0x200029a0
    31dc:	2000297c 	.word	0x2000297c
    31e0:	20002930 	.word	0x20002930
    31e4:	20002934 	.word	0x20002934
    31e8:	20002990 	.word	0x20002990
    31ec:	20002998 	.word	0x20002998
    31f0:	20002980 	.word	0x20002980
    31f4:	200028a4 	.word	0x200028a4
    31f8:	200028a0 	.word	0x200028a0
    31fc:	20002988 	.word	0x20002988
    3200:	2000298c 	.word	0x2000298c

00003204 <vTaskSwitchContext>:
    3204:	b480      	push	{r7}
    3206:	b087      	sub	sp, #28
    3208:	af00      	add	r7, sp, #0
    320a:	4b26      	ldr	r3, [pc, #152]	; (32a4 <vTaskSwitchContext+0xa0>)
    320c:	681b      	ldr	r3, [r3, #0]
    320e:	2b00      	cmp	r3, #0
    3210:	d003      	beq.n	321a <vTaskSwitchContext+0x16>
    3212:	4b25      	ldr	r3, [pc, #148]	; (32a8 <vTaskSwitchContext+0xa4>)
    3214:	2201      	movs	r2, #1
    3216:	601a      	str	r2, [r3, #0]
    3218:	e03e      	b.n	3298 <vTaskSwitchContext+0x94>
    321a:	4b23      	ldr	r3, [pc, #140]	; (32a8 <vTaskSwitchContext+0xa4>)
    321c:	2200      	movs	r2, #0
    321e:	601a      	str	r2, [r3, #0]
    3220:	4b22      	ldr	r3, [pc, #136]	; (32ac <vTaskSwitchContext+0xa8>)
    3222:	681b      	ldr	r3, [r3, #0]
    3224:	60fb      	str	r3, [r7, #12]
    3226:	68fb      	ldr	r3, [r7, #12]
    3228:	fab3 f383 	clz	r3, r3
    322c:	72fb      	strb	r3, [r7, #11]
    322e:	7afb      	ldrb	r3, [r7, #11]
    3230:	f1c3 031f 	rsb	r3, r3, #31
    3234:	617b      	str	r3, [r7, #20]
    3236:	491e      	ldr	r1, [pc, #120]	; (32b0 <vTaskSwitchContext+0xac>)
    3238:	697a      	ldr	r2, [r7, #20]
    323a:	4613      	mov	r3, r2
    323c:	009b      	lsls	r3, r3, #2
    323e:	4413      	add	r3, r2
    3240:	009b      	lsls	r3, r3, #2
    3242:	440b      	add	r3, r1
    3244:	681b      	ldr	r3, [r3, #0]
    3246:	2b00      	cmp	r3, #0
    3248:	d109      	bne.n	325e <vTaskSwitchContext+0x5a>
    324a:	f04f 0320 	mov.w	r3, #32
    324e:	f383 8811 	msr	BASEPRI, r3
    3252:	f3bf 8f6f 	isb	sy
    3256:	f3bf 8f4f 	dsb	sy
    325a:	607b      	str	r3, [r7, #4]
    325c:	e7fe      	b.n	325c <vTaskSwitchContext+0x58>
    325e:	697a      	ldr	r2, [r7, #20]
    3260:	4613      	mov	r3, r2
    3262:	009b      	lsls	r3, r3, #2
    3264:	4413      	add	r3, r2
    3266:	009b      	lsls	r3, r3, #2
    3268:	4a11      	ldr	r2, [pc, #68]	; (32b0 <vTaskSwitchContext+0xac>)
    326a:	4413      	add	r3, r2
    326c:	613b      	str	r3, [r7, #16]
    326e:	693b      	ldr	r3, [r7, #16]
    3270:	685b      	ldr	r3, [r3, #4]
    3272:	685a      	ldr	r2, [r3, #4]
    3274:	693b      	ldr	r3, [r7, #16]
    3276:	605a      	str	r2, [r3, #4]
    3278:	693b      	ldr	r3, [r7, #16]
    327a:	685a      	ldr	r2, [r3, #4]
    327c:	693b      	ldr	r3, [r7, #16]
    327e:	3308      	adds	r3, #8
    3280:	429a      	cmp	r2, r3
    3282:	d104      	bne.n	328e <vTaskSwitchContext+0x8a>
    3284:	693b      	ldr	r3, [r7, #16]
    3286:	685b      	ldr	r3, [r3, #4]
    3288:	685a      	ldr	r2, [r3, #4]
    328a:	693b      	ldr	r3, [r7, #16]
    328c:	605a      	str	r2, [r3, #4]
    328e:	693b      	ldr	r3, [r7, #16]
    3290:	685b      	ldr	r3, [r3, #4]
    3292:	68db      	ldr	r3, [r3, #12]
    3294:	4a07      	ldr	r2, [pc, #28]	; (32b4 <vTaskSwitchContext+0xb0>)
    3296:	6013      	str	r3, [r2, #0]
    3298:	bf00      	nop
    329a:	371c      	adds	r7, #28
    329c:	46bd      	mov	sp, r7
    329e:	f85d 7b04 	ldr.w	r7, [sp], #4
    32a2:	4770      	bx	lr
    32a4:	200029a0 	.word	0x200029a0
    32a8:	2000298c 	.word	0x2000298c
    32ac:	20002980 	.word	0x20002980
    32b0:	200028a4 	.word	0x200028a4
    32b4:	200028a0 	.word	0x200028a0

000032b8 <vTaskPlaceOnEventList>:
    32b8:	b580      	push	{r7, lr}
    32ba:	b084      	sub	sp, #16
    32bc:	af00      	add	r7, sp, #0
    32be:	6078      	str	r0, [r7, #4]
    32c0:	6039      	str	r1, [r7, #0]
    32c2:	687b      	ldr	r3, [r7, #4]
    32c4:	2b00      	cmp	r3, #0
    32c6:	d109      	bne.n	32dc <vTaskPlaceOnEventList+0x24>
    32c8:	f04f 0320 	mov.w	r3, #32
    32cc:	f383 8811 	msr	BASEPRI, r3
    32d0:	f3bf 8f6f 	isb	sy
    32d4:	f3bf 8f4f 	dsb	sy
    32d8:	60fb      	str	r3, [r7, #12]
    32da:	e7fe      	b.n	32da <vTaskPlaceOnEventList+0x22>
    32dc:	4b07      	ldr	r3, [pc, #28]	; (32fc <vTaskPlaceOnEventList+0x44>)
    32de:	681b      	ldr	r3, [r3, #0]
    32e0:	3318      	adds	r3, #24
    32e2:	4619      	mov	r1, r3
    32e4:	6878      	ldr	r0, [r7, #4]
    32e6:	f001 fe47 	bl	4f78 <vListInsert>
    32ea:	2101      	movs	r1, #1
    32ec:	6838      	ldr	r0, [r7, #0]
    32ee:	f000 fa61 	bl	37b4 <prvAddCurrentTaskToDelayedList>
    32f2:	bf00      	nop
    32f4:	3710      	adds	r7, #16
    32f6:	46bd      	mov	sp, r7
    32f8:	bd80      	pop	{r7, pc}
    32fa:	bf00      	nop
    32fc:	200028a0 	.word	0x200028a0

00003300 <vTaskPlaceOnEventListRestricted>:
    3300:	b580      	push	{r7, lr}
    3302:	b086      	sub	sp, #24
    3304:	af00      	add	r7, sp, #0
    3306:	60f8      	str	r0, [r7, #12]
    3308:	60b9      	str	r1, [r7, #8]
    330a:	607a      	str	r2, [r7, #4]
    330c:	68fb      	ldr	r3, [r7, #12]
    330e:	2b00      	cmp	r3, #0
    3310:	d109      	bne.n	3326 <vTaskPlaceOnEventListRestricted+0x26>
    3312:	f04f 0320 	mov.w	r3, #32
    3316:	f383 8811 	msr	BASEPRI, r3
    331a:	f3bf 8f6f 	isb	sy
    331e:	f3bf 8f4f 	dsb	sy
    3322:	617b      	str	r3, [r7, #20]
    3324:	e7fe      	b.n	3324 <vTaskPlaceOnEventListRestricted+0x24>
    3326:	4b0a      	ldr	r3, [pc, #40]	; (3350 <vTaskPlaceOnEventListRestricted+0x50>)
    3328:	681b      	ldr	r3, [r3, #0]
    332a:	3318      	adds	r3, #24
    332c:	4619      	mov	r1, r3
    332e:	68f8      	ldr	r0, [r7, #12]
    3330:	f001 fdfe 	bl	4f30 <vListInsertEnd>
    3334:	687b      	ldr	r3, [r7, #4]
    3336:	2b00      	cmp	r3, #0
    3338:	d002      	beq.n	3340 <vTaskPlaceOnEventListRestricted+0x40>
    333a:	f04f 33ff 	mov.w	r3, #4294967295	; 0xffffffff
    333e:	60bb      	str	r3, [r7, #8]
    3340:	6879      	ldr	r1, [r7, #4]
    3342:	68b8      	ldr	r0, [r7, #8]
    3344:	f000 fa36 	bl	37b4 <prvAddCurrentTaskToDelayedList>
    3348:	bf00      	nop
    334a:	3718      	adds	r7, #24
    334c:	46bd      	mov	sp, r7
    334e:	bd80      	pop	{r7, pc}
    3350:	200028a0 	.word	0x200028a0

00003354 <xTaskRemoveFromEventList>:
    3354:	b580      	push	{r7, lr}
    3356:	b086      	sub	sp, #24
    3358:	af00      	add	r7, sp, #0
    335a:	6078      	str	r0, [r7, #4]
    335c:	687b      	ldr	r3, [r7, #4]
    335e:	68db      	ldr	r3, [r3, #12]
    3360:	68db      	ldr	r3, [r3, #12]
    3362:	613b      	str	r3, [r7, #16]
    3364:	693b      	ldr	r3, [r7, #16]
    3366:	2b00      	cmp	r3, #0
    3368:	d109      	bne.n	337e <xTaskRemoveFromEventList+0x2a>
    336a:	f04f 0320 	mov.w	r3, #32
    336e:	f383 8811 	msr	BASEPRI, r3
    3372:	f3bf 8f6f 	isb	sy
    3376:	f3bf 8f4f 	dsb	sy
    337a:	60fb      	str	r3, [r7, #12]
    337c:	e7fe      	b.n	337c <xTaskRemoveFromEventList+0x28>
    337e:	693b      	ldr	r3, [r7, #16]
    3380:	3318      	adds	r3, #24
    3382:	4618      	mov	r0, r3
    3384:	f001 fe31 	bl	4fea <uxListRemove>
    3388:	4b1d      	ldr	r3, [pc, #116]	; (3400 <xTaskRemoveFromEventList+0xac>)
    338a:	681b      	ldr	r3, [r3, #0]
    338c:	2b00      	cmp	r3, #0
    338e:	d11c      	bne.n	33ca <xTaskRemoveFromEventList+0x76>
    3390:	693b      	ldr	r3, [r7, #16]
    3392:	3304      	adds	r3, #4
    3394:	4618      	mov	r0, r3
    3396:	f001 fe28 	bl	4fea <uxListRemove>
    339a:	693b      	ldr	r3, [r7, #16]
    339c:	6adb      	ldr	r3, [r3, #44]	; 0x2c
    339e:	2201      	movs	r2, #1
    33a0:	409a      	lsls	r2, r3
    33a2:	4b18      	ldr	r3, [pc, #96]	; (3404 <xTaskRemoveFromEventList+0xb0>)
    33a4:	681b      	ldr	r3, [r3, #0]
    33a6:	4313      	orrs	r3, r2
    33a8:	4a16      	ldr	r2, [pc, #88]	; (3404 <xTaskRemoveFromEventList+0xb0>)
    33aa:	6013      	str	r3, [r2, #0]
    33ac:	693b      	ldr	r3, [r7, #16]
    33ae:	6ada      	ldr	r2, [r3, #44]	; 0x2c
    33b0:	4613      	mov	r3, r2
    33b2:	009b      	lsls	r3, r3, #2
    33b4:	4413      	add	r3, r2
    33b6:	009b      	lsls	r3, r3, #2
    33b8:	4a13      	ldr	r2, [pc, #76]	; (3408 <xTaskRemoveFromEventList+0xb4>)
    33ba:	441a      	add	r2, r3
    33bc:	693b      	ldr	r3, [r7, #16]
    33be:	3304      	adds	r3, #4
    33c0:	4619      	mov	r1, r3
    33c2:	4610      	mov	r0, r2
    33c4:	f001 fdb4 	bl	4f30 <vListInsertEnd>
    33c8:	e005      	b.n	33d6 <xTaskRemoveFromEventList+0x82>
    33ca:	693b      	ldr	r3, [r7, #16]
    33cc:	3318      	adds	r3, #24
    33ce:	4619      	mov	r1, r3
    33d0:	480e      	ldr	r0, [pc, #56]	; (340c <xTaskRemoveFromEventList+0xb8>)
    33d2:	f001 fdad 	bl	4f30 <vListInsertEnd>
    33d6:	693b      	ldr	r3, [r7, #16]
    33d8:	6ada      	ldr	r2, [r3, #44]	; 0x2c
    33da:	4b0d      	ldr	r3, [pc, #52]	; (3410 <xTaskRemoveFromEventList+0xbc>)
    33dc:	681b      	ldr	r3, [r3, #0]
    33de:	6adb      	ldr	r3, [r3, #44]	; 0x2c
    33e0:	429a      	cmp	r2, r3
    33e2:	d905      	bls.n	33f0 <xTaskRemoveFromEventList+0x9c>
    33e4:	2301      	movs	r3, #1
    33e6:	617b      	str	r3, [r7, #20]
    33e8:	4b0a      	ldr	r3, [pc, #40]	; (3414 <xTaskRemoveFromEventList+0xc0>)
    33ea:	2201      	movs	r2, #1
    33ec:	601a      	str	r2, [r3, #0]
    33ee:	e001      	b.n	33f4 <xTaskRemoveFromEventList+0xa0>
    33f0:	2300      	movs	r3, #0
    33f2:	617b      	str	r3, [r7, #20]
    33f4:	697b      	ldr	r3, [r7, #20]
    33f6:	4618      	mov	r0, r3
    33f8:	3718      	adds	r7, #24
    33fa:	46bd      	mov	sp, r7
    33fc:	bd80      	pop	{r7, pc}
    33fe:	bf00      	nop
    3400:	200029a0 	.word	0x200029a0
    3404:	20002980 	.word	0x20002980
    3408:	200028a4 	.word	0x200028a4
    340c:	20002938 	.word	0x20002938
    3410:	200028a0 	.word	0x200028a0
    3414:	2000298c 	.word	0x2000298c

00003418 <vTaskInternalSetTimeOutState>:
    3418:	b480      	push	{r7}
    341a:	b083      	sub	sp, #12
    341c:	af00      	add	r7, sp, #0
    341e:	6078      	str	r0, [r7, #4]
    3420:	4b06      	ldr	r3, [pc, #24]	; (343c <vTaskInternalSetTimeOutState+0x24>)
    3422:	681a      	ldr	r2, [r3, #0]
    3424:	687b      	ldr	r3, [r7, #4]
    3426:	601a      	str	r2, [r3, #0]
    3428:	4b05      	ldr	r3, [pc, #20]	; (3440 <vTaskInternalSetTimeOutState+0x28>)
    342a:	681a      	ldr	r2, [r3, #0]
    342c:	687b      	ldr	r3, [r7, #4]
    342e:	605a      	str	r2, [r3, #4]
    3430:	bf00      	nop
    3432:	370c      	adds	r7, #12
    3434:	46bd      	mov	sp, r7
    3436:	f85d 7b04 	ldr.w	r7, [sp], #4
    343a:	4770      	bx	lr
    343c:	20002990 	.word	0x20002990
    3440:	2000297c 	.word	0x2000297c

00003444 <xTaskCheckForTimeOut>:
    3444:	b580      	push	{r7, lr}
    3446:	b088      	sub	sp, #32
    3448:	af00      	add	r7, sp, #0
    344a:	6078      	str	r0, [r7, #4]
    344c:	6039      	str	r1, [r7, #0]
    344e:	687b      	ldr	r3, [r7, #4]
    3450:	2b00      	cmp	r3, #0
    3452:	d109      	bne.n	3468 <xTaskCheckForTimeOut+0x24>
    3454:	f04f 0320 	mov.w	r3, #32
    3458:	f383 8811 	msr	BASEPRI, r3
    345c:	f3bf 8f6f 	isb	sy
    3460:	f3bf 8f4f 	dsb	sy
    3464:	613b      	str	r3, [r7, #16]
    3466:	e7fe      	b.n	3466 <xTaskCheckForTimeOut+0x22>
    3468:	683b      	ldr	r3, [r7, #0]
    346a:	2b00      	cmp	r3, #0
    346c:	d109      	bne.n	3482 <xTaskCheckForTimeOut+0x3e>
    346e:	f04f 0320 	mov.w	r3, #32
    3472:	f383 8811 	msr	BASEPRI, r3
    3476:	f3bf 8f6f 	isb	sy
    347a:	f3bf 8f4f 	dsb	sy
    347e:	60fb      	str	r3, [r7, #12]
    3480:	e7fe      	b.n	3480 <xTaskCheckForTimeOut+0x3c>
    3482:	f7ff f97b 	bl	277c <vPortEnterCritical>
    3486:	4b1d      	ldr	r3, [pc, #116]	; (34fc <xTaskCheckForTimeOut+0xb8>)
    3488:	681b      	ldr	r3, [r3, #0]
    348a:	61bb      	str	r3, [r7, #24]
    348c:	687b      	ldr	r3, [r7, #4]
    348e:	685b      	ldr	r3, [r3, #4]
    3490:	69ba      	ldr	r2, [r7, #24]
    3492:	1ad3      	subs	r3, r2, r3
    3494:	617b      	str	r3, [r7, #20]
    3496:	683b      	ldr	r3, [r7, #0]
    3498:	681b      	ldr	r3, [r3, #0]
    349a:	f1b3 3fff 	cmp.w	r3, #4294967295	; 0xffffffff
    349e:	d102      	bne.n	34a6 <xTaskCheckForTimeOut+0x62>
    34a0:	2300      	movs	r3, #0
    34a2:	61fb      	str	r3, [r7, #28]
    34a4:	e023      	b.n	34ee <xTaskCheckForTimeOut+0xaa>
    34a6:	687b      	ldr	r3, [r7, #4]
    34a8:	681a      	ldr	r2, [r3, #0]
    34aa:	4b15      	ldr	r3, [pc, #84]	; (3500 <xTaskCheckForTimeOut+0xbc>)
    34ac:	681b      	ldr	r3, [r3, #0]
    34ae:	429a      	cmp	r2, r3
    34b0:	d007      	beq.n	34c2 <xTaskCheckForTimeOut+0x7e>
    34b2:	687b      	ldr	r3, [r7, #4]
    34b4:	685b      	ldr	r3, [r3, #4]
    34b6:	69ba      	ldr	r2, [r7, #24]
    34b8:	429a      	cmp	r2, r3
    34ba:	d302      	bcc.n	34c2 <xTaskCheckForTimeOut+0x7e>
    34bc:	2301      	movs	r3, #1
    34be:	61fb      	str	r3, [r7, #28]
    34c0:	e015      	b.n	34ee <xTaskCheckForTimeOut+0xaa>
    34c2:	683b      	ldr	r3, [r7, #0]
    34c4:	681b      	ldr	r3, [r3, #0]
    34c6:	697a      	ldr	r2, [r7, #20]
    34c8:	429a      	cmp	r2, r3
    34ca:	d20b      	bcs.n	34e4 <xTaskCheckForTimeOut+0xa0>
    34cc:	683b      	ldr	r3, [r7, #0]
    34ce:	681a      	ldr	r2, [r3, #0]
    34d0:	697b      	ldr	r3, [r7, #20]
    34d2:	1ad2      	subs	r2, r2, r3
    34d4:	683b      	ldr	r3, [r7, #0]
    34d6:	601a      	str	r2, [r3, #0]
    34d8:	6878      	ldr	r0, [r7, #4]
    34da:	f7ff ff9d 	bl	3418 <vTaskInternalSetTimeOutState>
    34de:	2300      	movs	r3, #0
    34e0:	61fb      	str	r3, [r7, #28]
    34e2:	e004      	b.n	34ee <xTaskCheckForTimeOut+0xaa>
    34e4:	683b      	ldr	r3, [r7, #0]
    34e6:	2200      	movs	r2, #0
    34e8:	601a      	str	r2, [r3, #0]
    34ea:	2301      	movs	r3, #1
    34ec:	61fb      	str	r3, [r7, #28]
    34ee:	f7ff f973 	bl	27d8 <vPortExitCritical>
    34f2:	69fb      	ldr	r3, [r7, #28]
    34f4:	4618      	mov	r0, r3
    34f6:	3720      	adds	r7, #32
    34f8:	46bd      	mov	sp, r7
    34fa:	bd80      	pop	{r7, pc}
    34fc:	2000297c 	.word	0x2000297c
    3500:	20002990 	.word	0x20002990

00003504 <vTaskMissedYield>:
    3504:	b480      	push	{r7}
    3506:	af00      	add	r7, sp, #0
    3508:	4b03      	ldr	r3, [pc, #12]	; (3518 <vTaskMissedYield+0x14>)
    350a:	2201      	movs	r2, #1
    350c:	601a      	str	r2, [r3, #0]
    350e:	bf00      	nop
    3510:	46bd      	mov	sp, r7
    3512:	f85d 7b04 	ldr.w	r7, [sp], #4
    3516:	4770      	bx	lr
    3518:	2000298c 	.word	0x2000298c

0000351c <prvIdleTask>:
    351c:	b580      	push	{r7, lr}
    351e:	b082      	sub	sp, #8
    3520:	af00      	add	r7, sp, #0
    3522:	6078      	str	r0, [r7, #4]
    3524:	f000 f852 	bl	35cc <prvCheckTasksWaitingTermination>
    3528:	4b06      	ldr	r3, [pc, #24]	; (3544 <prvIdleTask+0x28>)
    352a:	681b      	ldr	r3, [r3, #0]
    352c:	2b01      	cmp	r3, #1
    352e:	d9f9      	bls.n	3524 <prvIdleTask+0x8>
    3530:	4b05      	ldr	r3, [pc, #20]	; (3548 <prvIdleTask+0x2c>)
    3532:	f04f 5280 	mov.w	r2, #268435456	; 0x10000000
    3536:	601a      	str	r2, [r3, #0]
    3538:	f3bf 8f4f 	dsb	sy
    353c:	f3bf 8f6f 	isb	sy
    3540:	e7f0      	b.n	3524 <prvIdleTask+0x8>
    3542:	bf00      	nop
    3544:	200028a4 	.word	0x200028a4
    3548:	e000ed04 	.word	0xe000ed04

0000354c <prvInitialiseTaskLists>:
    354c:	b580      	push	{r7, lr}
    354e:	b082      	sub	sp, #8
    3550:	af00      	add	r7, sp, #0
    3552:	2300      	movs	r3, #0
    3554:	607b      	str	r3, [r7, #4]
    3556:	e00c      	b.n	3572 <prvInitialiseTaskLists+0x26>
    3558:	687a      	ldr	r2, [r7, #4]
    355a:	4613      	mov	r3, r2
    355c:	009b      	lsls	r3, r3, #2
    355e:	4413      	add	r3, r2
    3560:	009b      	lsls	r3, r3, #2
    3562:	4a12      	ldr	r2, [pc, #72]	; (35ac <prvInitialiseTaskLists+0x60>)
    3564:	4413      	add	r3, r2
    3566:	4618      	mov	r0, r3
    3568:	f001 fcb5 	bl	4ed6 <vListInitialise>
    356c:	687b      	ldr	r3, [r7, #4]
    356e:	3301      	adds	r3, #1
    3570:	607b      	str	r3, [r7, #4]
    3572:	687b      	ldr	r3, [r7, #4]
    3574:	2b04      	cmp	r3, #4
    3576:	d9ef      	bls.n	3558 <prvInitialiseTaskLists+0xc>
    3578:	480d      	ldr	r0, [pc, #52]	; (35b0 <prvInitialiseTaskLists+0x64>)
    357a:	f001 fcac 	bl	4ed6 <vListInitialise>
    357e:	480d      	ldr	r0, [pc, #52]	; (35b4 <prvInitialiseTaskLists+0x68>)
    3580:	f001 fca9 	bl	4ed6 <vListInitialise>
    3584:	480c      	ldr	r0, [pc, #48]	; (35b8 <prvInitialiseTaskLists+0x6c>)
    3586:	f001 fca6 	bl	4ed6 <vListInitialise>
    358a:	480c      	ldr	r0, [pc, #48]	; (35bc <prvInitialiseTaskLists+0x70>)
    358c:	f001 fca3 	bl	4ed6 <vListInitialise>
    3590:	480b      	ldr	r0, [pc, #44]	; (35c0 <prvInitialiseTaskLists+0x74>)
    3592:	f001 fca0 	bl	4ed6 <vListInitialise>
    3596:	4b0b      	ldr	r3, [pc, #44]	; (35c4 <prvInitialiseTaskLists+0x78>)
    3598:	4a05      	ldr	r2, [pc, #20]	; (35b0 <prvInitialiseTaskLists+0x64>)
    359a:	601a      	str	r2, [r3, #0]
    359c:	4b0a      	ldr	r3, [pc, #40]	; (35c8 <prvInitialiseTaskLists+0x7c>)
    359e:	4a05      	ldr	r2, [pc, #20]	; (35b4 <prvInitialiseTaskLists+0x68>)
    35a0:	601a      	str	r2, [r3, #0]
    35a2:	bf00      	nop
    35a4:	3708      	adds	r7, #8
    35a6:	46bd      	mov	sp, r7
    35a8:	bd80      	pop	{r7, pc}
    35aa:	bf00      	nop
    35ac:	200028a4 	.word	0x200028a4
    35b0:	20002908 	.word	0x20002908
    35b4:	2000291c 	.word	0x2000291c
    35b8:	20002938 	.word	0x20002938
    35bc:	2000294c 	.word	0x2000294c
    35c0:	20002964 	.word	0x20002964
    35c4:	20002930 	.word	0x20002930
    35c8:	20002934 	.word	0x20002934

000035cc <prvCheckTasksWaitingTermination>:
    35cc:	b580      	push	{r7, lr}
    35ce:	b082      	sub	sp, #8
    35d0:	af00      	add	r7, sp, #0
    35d2:	e019      	b.n	3608 <prvCheckTasksWaitingTermination+0x3c>
    35d4:	f7ff f8d2 	bl	277c <vPortEnterCritical>
    35d8:	4b0f      	ldr	r3, [pc, #60]	; (3618 <prvCheckTasksWaitingTermination+0x4c>)
    35da:	68db      	ldr	r3, [r3, #12]
    35dc:	68db      	ldr	r3, [r3, #12]
    35de:	607b      	str	r3, [r7, #4]
    35e0:	687b      	ldr	r3, [r7, #4]
    35e2:	3304      	adds	r3, #4
    35e4:	4618      	mov	r0, r3
    35e6:	f001 fd00 	bl	4fea <uxListRemove>
    35ea:	4b0c      	ldr	r3, [pc, #48]	; (361c <prvCheckTasksWaitingTermination+0x50>)
    35ec:	681b      	ldr	r3, [r3, #0]
    35ee:	3b01      	subs	r3, #1
    35f0:	4a0a      	ldr	r2, [pc, #40]	; (361c <prvCheckTasksWaitingTermination+0x50>)
    35f2:	6013      	str	r3, [r2, #0]
    35f4:	4b0a      	ldr	r3, [pc, #40]	; (3620 <prvCheckTasksWaitingTermination+0x54>)
    35f6:	681b      	ldr	r3, [r3, #0]
    35f8:	3b01      	subs	r3, #1
    35fa:	4a09      	ldr	r2, [pc, #36]	; (3620 <prvCheckTasksWaitingTermination+0x54>)
    35fc:	6013      	str	r3, [r2, #0]
    35fe:	f7ff f8eb 	bl	27d8 <vPortExitCritical>
    3602:	6878      	ldr	r0, [r7, #4]
    3604:	f002 f829 	bl	565a <prvDeleteTCB>
    3608:	4b05      	ldr	r3, [pc, #20]	; (3620 <prvCheckTasksWaitingTermination+0x54>)
    360a:	681b      	ldr	r3, [r3, #0]
    360c:	2b00      	cmp	r3, #0
    360e:	d1e1      	bne.n	35d4 <prvCheckTasksWaitingTermination+0x8>
    3610:	bf00      	nop
    3612:	3708      	adds	r7, #8
    3614:	46bd      	mov	sp, r7
    3616:	bd80      	pop	{r7, pc}
    3618:	2000294c 	.word	0x2000294c
    361c:	20002978 	.word	0x20002978
    3620:	20002960 	.word	0x20002960

00003624 <prvResetNextTaskUnblockTime>:
    3624:	b480      	push	{r7}
    3626:	b083      	sub	sp, #12
    3628:	af00      	add	r7, sp, #0
    362a:	4b0f      	ldr	r3, [pc, #60]	; (3668 <prvResetNextTaskUnblockTime+0x44>)
    362c:	681b      	ldr	r3, [r3, #0]
    362e:	681b      	ldr	r3, [r3, #0]
    3630:	2b00      	cmp	r3, #0
    3632:	d101      	bne.n	3638 <prvResetNextTaskUnblockTime+0x14>
    3634:	2301      	movs	r3, #1
    3636:	e000      	b.n	363a <prvResetNextTaskUnblockTime+0x16>
    3638:	2300      	movs	r3, #0
    363a:	2b00      	cmp	r3, #0
    363c:	d004      	beq.n	3648 <prvResetNextTaskUnblockTime+0x24>
    363e:	4b0b      	ldr	r3, [pc, #44]	; (366c <prvResetNextTaskUnblockTime+0x48>)
    3640:	f04f 32ff 	mov.w	r2, #4294967295	; 0xffffffff
    3644:	601a      	str	r2, [r3, #0]
    3646:	e008      	b.n	365a <prvResetNextTaskUnblockTime+0x36>
    3648:	4b07      	ldr	r3, [pc, #28]	; (3668 <prvResetNextTaskUnblockTime+0x44>)
    364a:	681b      	ldr	r3, [r3, #0]
    364c:	68db      	ldr	r3, [r3, #12]
    364e:	68db      	ldr	r3, [r3, #12]
    3650:	607b      	str	r3, [r7, #4]
    3652:	687b      	ldr	r3, [r7, #4]
    3654:	685b      	ldr	r3, [r3, #4]
    3656:	4a05      	ldr	r2, [pc, #20]	; (366c <prvResetNextTaskUnblockTime+0x48>)
    3658:	6013      	str	r3, [r2, #0]
    365a:	bf00      	nop
    365c:	370c      	adds	r7, #12
    365e:	46bd      	mov	sp, r7
    3660:	f85d 7b04 	ldr.w	r7, [sp], #4
    3664:	4770      	bx	lr
    3666:	bf00      	nop
    3668:	20002930 	.word	0x20002930
    366c:	20002998 	.word	0x20002998

00003670 <xTaskGetSchedulerState>:
    3670:	b480      	push	{r7}
    3672:	b083      	sub	sp, #12
    3674:	af00      	add	r7, sp, #0
    3676:	4b0b      	ldr	r3, [pc, #44]	; (36a4 <xTaskGetSchedulerState+0x34>)
    3678:	681b      	ldr	r3, [r3, #0]
    367a:	2b00      	cmp	r3, #0
    367c:	d102      	bne.n	3684 <xTaskGetSchedulerState+0x14>
    367e:	2301      	movs	r3, #1
    3680:	607b      	str	r3, [r7, #4]
    3682:	e008      	b.n	3696 <xTaskGetSchedulerState+0x26>
    3684:	4b08      	ldr	r3, [pc, #32]	; (36a8 <xTaskGetSchedulerState+0x38>)
    3686:	681b      	ldr	r3, [r3, #0]
    3688:	2b00      	cmp	r3, #0
    368a:	d102      	bne.n	3692 <xTaskGetSchedulerState+0x22>
    368c:	2302      	movs	r3, #2
    368e:	607b      	str	r3, [r7, #4]
    3690:	e001      	b.n	3696 <xTaskGetSchedulerState+0x26>
    3692:	2300      	movs	r3, #0
    3694:	607b      	str	r3, [r7, #4]
    3696:	687b      	ldr	r3, [r7, #4]
    3698:	4618      	mov	r0, r3
    369a:	370c      	adds	r7, #12
    369c:	46bd      	mov	sp, r7
    369e:	f85d 7b04 	ldr.w	r7, [sp], #4
    36a2:	4770      	bx	lr
    36a4:	20002984 	.word	0x20002984
    36a8:	200029a0 	.word	0x200029a0

000036ac <xTaskPriorityDisinherit>:
    36ac:	b580      	push	{r7, lr}
    36ae:	b086      	sub	sp, #24
    36b0:	af00      	add	r7, sp, #0
    36b2:	6078      	str	r0, [r7, #4]
    36b4:	687b      	ldr	r3, [r7, #4]
    36b6:	613b      	str	r3, [r7, #16]
    36b8:	2300      	movs	r3, #0
    36ba:	617b      	str	r3, [r7, #20]
    36bc:	687b      	ldr	r3, [r7, #4]
    36be:	2b00      	cmp	r3, #0
    36c0:	d06c      	beq.n	379c <xTaskPriorityDisinherit+0xf0>
    36c2:	4b39      	ldr	r3, [pc, #228]	; (37a8 <xTaskPriorityDisinherit+0xfc>)
    36c4:	681b      	ldr	r3, [r3, #0]
    36c6:	693a      	ldr	r2, [r7, #16]
    36c8:	429a      	cmp	r2, r3
    36ca:	d009      	beq.n	36e0 <xTaskPriorityDisinherit+0x34>
    36cc:	f04f 0320 	mov.w	r3, #32
    36d0:	f383 8811 	msr	BASEPRI, r3
    36d4:	f3bf 8f6f 	isb	sy
    36d8:	f3bf 8f4f 	dsb	sy
    36dc:	60fb      	str	r3, [r7, #12]
    36de:	e7fe      	b.n	36de <xTaskPriorityDisinherit+0x32>
    36e0:	693b      	ldr	r3, [r7, #16]
    36e2:	6d9b      	ldr	r3, [r3, #88]	; 0x58
    36e4:	2b00      	cmp	r3, #0
    36e6:	d109      	bne.n	36fc <xTaskPriorityDisinherit+0x50>
    36e8:	f04f 0320 	mov.w	r3, #32
    36ec:	f383 8811 	msr	BASEPRI, r3
    36f0:	f3bf 8f6f 	isb	sy
    36f4:	f3bf 8f4f 	dsb	sy
    36f8:	60bb      	str	r3, [r7, #8]
    36fa:	e7fe      	b.n	36fa <xTaskPriorityDisinherit+0x4e>
    36fc:	693b      	ldr	r3, [r7, #16]
    36fe:	6d9b      	ldr	r3, [r3, #88]	; 0x58
    3700:	1e5a      	subs	r2, r3, #1
    3702:	693b      	ldr	r3, [r7, #16]
    3704:	659a      	str	r2, [r3, #88]	; 0x58
    3706:	693b      	ldr	r3, [r7, #16]
    3708:	6ada      	ldr	r2, [r3, #44]	; 0x2c
    370a:	693b      	ldr	r3, [r7, #16]
    370c:	6d5b      	ldr	r3, [r3, #84]	; 0x54
    370e:	429a      	cmp	r2, r3
    3710:	d044      	beq.n	379c <xTaskPriorityDisinherit+0xf0>
    3712:	693b      	ldr	r3, [r7, #16]
    3714:	6d9b      	ldr	r3, [r3, #88]	; 0x58
    3716:	2b00      	cmp	r3, #0
    3718:	d140      	bne.n	379c <xTaskPriorityDisinherit+0xf0>
    371a:	693b      	ldr	r3, [r7, #16]
    371c:	3304      	adds	r3, #4
    371e:	4618      	mov	r0, r3
    3720:	f001 fc63 	bl	4fea <uxListRemove>
    3724:	4603      	mov	r3, r0
    3726:	2b00      	cmp	r3, #0
    3728:	d115      	bne.n	3756 <xTaskPriorityDisinherit+0xaa>
    372a:	693b      	ldr	r3, [r7, #16]
    372c:	6ada      	ldr	r2, [r3, #44]	; 0x2c
    372e:	491f      	ldr	r1, [pc, #124]	; (37ac <xTaskPriorityDisinherit+0x100>)
    3730:	4613      	mov	r3, r2
    3732:	009b      	lsls	r3, r3, #2
    3734:	4413      	add	r3, r2
    3736:	009b      	lsls	r3, r3, #2
    3738:	440b      	add	r3, r1
    373a:	681b      	ldr	r3, [r3, #0]
    373c:	2b00      	cmp	r3, #0
    373e:	d10a      	bne.n	3756 <xTaskPriorityDisinherit+0xaa>
    3740:	693b      	ldr	r3, [r7, #16]
    3742:	6adb      	ldr	r3, [r3, #44]	; 0x2c
    3744:	2201      	movs	r2, #1
    3746:	fa02 f303 	lsl.w	r3, r2, r3
    374a:	43da      	mvns	r2, r3
    374c:	4b18      	ldr	r3, [pc, #96]	; (37b0 <xTaskPriorityDisinherit+0x104>)
    374e:	681b      	ldr	r3, [r3, #0]
    3750:	4013      	ands	r3, r2
    3752:	4a17      	ldr	r2, [pc, #92]	; (37b0 <xTaskPriorityDisinherit+0x104>)
    3754:	6013      	str	r3, [r2, #0]
    3756:	693b      	ldr	r3, [r7, #16]
    3758:	6d5a      	ldr	r2, [r3, #84]	; 0x54
    375a:	693b      	ldr	r3, [r7, #16]
    375c:	62da      	str	r2, [r3, #44]	; 0x2c
    375e:	693b      	ldr	r3, [r7, #16]
    3760:	6adb      	ldr	r3, [r3, #44]	; 0x2c
    3762:	f1c3 0205 	rsb	r2, r3, #5
    3766:	693b      	ldr	r3, [r7, #16]
    3768:	619a      	str	r2, [r3, #24]
    376a:	693b      	ldr	r3, [r7, #16]
    376c:	6adb      	ldr	r3, [r3, #44]	; 0x2c
    376e:	2201      	movs	r2, #1
    3770:	409a      	lsls	r2, r3
    3772:	4b0f      	ldr	r3, [pc, #60]	; (37b0 <xTaskPriorityDisinherit+0x104>)
    3774:	681b      	ldr	r3, [r3, #0]
    3776:	4313      	orrs	r3, r2
    3778:	4a0d      	ldr	r2, [pc, #52]	; (37b0 <xTaskPriorityDisinherit+0x104>)
    377a:	6013      	str	r3, [r2, #0]
    377c:	693b      	ldr	r3, [r7, #16]
    377e:	6ada      	ldr	r2, [r3, #44]	; 0x2c
    3780:	4613      	mov	r3, r2
    3782:	009b      	lsls	r3, r3, #2
    3784:	4413      	add	r3, r2
    3786:	009b      	lsls	r3, r3, #2
    3788:	4a08      	ldr	r2, [pc, #32]	; (37ac <xTaskPriorityDisinherit+0x100>)
    378a:	441a      	add	r2, r3
    378c:	693b      	ldr	r3, [r7, #16]
    378e:	3304      	adds	r3, #4
    3790:	4619      	mov	r1, r3
    3792:	4610      	mov	r0, r2
    3794:	f001 fbcc 	bl	4f30 <vListInsertEnd>
    3798:	2301      	movs	r3, #1
    379a:	617b      	str	r3, [r7, #20]
    379c:	697b      	ldr	r3, [r7, #20]
    379e:	4618      	mov	r0, r3
    37a0:	3718      	adds	r7, #24
    37a2:	46bd      	mov	sp, r7
    37a4:	bd80      	pop	{r7, pc}
    37a6:	bf00      	nop
    37a8:	200028a0 	.word	0x200028a0
    37ac:	200028a4 	.word	0x200028a4
    37b0:	20002980 	.word	0x20002980

000037b4 <prvAddCurrentTaskToDelayedList>:
    37b4:	b580      	push	{r7, lr}
    37b6:	b084      	sub	sp, #16
    37b8:	af00      	add	r7, sp, #0
    37ba:	6078      	str	r0, [r7, #4]
    37bc:	6039      	str	r1, [r7, #0]
    37be:	4b29      	ldr	r3, [pc, #164]	; (3864 <prvAddCurrentTaskToDelayedList+0xb0>)
    37c0:	681b      	ldr	r3, [r3, #0]
    37c2:	60fb      	str	r3, [r7, #12]
    37c4:	4b28      	ldr	r3, [pc, #160]	; (3868 <prvAddCurrentTaskToDelayedList+0xb4>)
    37c6:	681b      	ldr	r3, [r3, #0]
    37c8:	3304      	adds	r3, #4
    37ca:	4618      	mov	r0, r3
    37cc:	f001 fc0d 	bl	4fea <uxListRemove>
    37d0:	4603      	mov	r3, r0
    37d2:	2b00      	cmp	r3, #0
    37d4:	d10b      	bne.n	37ee <prvAddCurrentTaskToDelayedList+0x3a>
    37d6:	4b24      	ldr	r3, [pc, #144]	; (3868 <prvAddCurrentTaskToDelayedList+0xb4>)
    37d8:	681b      	ldr	r3, [r3, #0]
    37da:	6adb      	ldr	r3, [r3, #44]	; 0x2c
    37dc:	2201      	movs	r2, #1
    37de:	fa02 f303 	lsl.w	r3, r2, r3
    37e2:	43da      	mvns	r2, r3
    37e4:	4b21      	ldr	r3, [pc, #132]	; (386c <prvAddCurrentTaskToDelayedList+0xb8>)
    37e6:	681b      	ldr	r3, [r3, #0]
    37e8:	4013      	ands	r3, r2
    37ea:	4a20      	ldr	r2, [pc, #128]	; (386c <prvAddCurrentTaskToDelayedList+0xb8>)
    37ec:	6013      	str	r3, [r2, #0]
    37ee:	687b      	ldr	r3, [r7, #4]
    37f0:	f1b3 3fff 	cmp.w	r3, #4294967295	; 0xffffffff
    37f4:	d10a      	bne.n	380c <prvAddCurrentTaskToDelayedList+0x58>
    37f6:	683b      	ldr	r3, [r7, #0]
    37f8:	2b00      	cmp	r3, #0
    37fa:	d007      	beq.n	380c <prvAddCurrentTaskToDelayedList+0x58>
    37fc:	4b1a      	ldr	r3, [pc, #104]	; (3868 <prvAddCurrentTaskToDelayedList+0xb4>)
    37fe:	681b      	ldr	r3, [r3, #0]
    3800:	3304      	adds	r3, #4
    3802:	4619      	mov	r1, r3
    3804:	481a      	ldr	r0, [pc, #104]	; (3870 <prvAddCurrentTaskToDelayedList+0xbc>)
    3806:	f001 fb93 	bl	4f30 <vListInsertEnd>
    380a:	e026      	b.n	385a <prvAddCurrentTaskToDelayedList+0xa6>
    380c:	68fa      	ldr	r2, [r7, #12]
    380e:	687b      	ldr	r3, [r7, #4]
    3810:	4413      	add	r3, r2
    3812:	60bb      	str	r3, [r7, #8]
    3814:	4b14      	ldr	r3, [pc, #80]	; (3868 <prvAddCurrentTaskToDelayedList+0xb4>)
    3816:	681b      	ldr	r3, [r3, #0]
    3818:	68ba      	ldr	r2, [r7, #8]
    381a:	605a      	str	r2, [r3, #4]
    381c:	68ba      	ldr	r2, [r7, #8]
    381e:	68fb      	ldr	r3, [r7, #12]
    3820:	429a      	cmp	r2, r3
    3822:	d209      	bcs.n	3838 <prvAddCurrentTaskToDelayedList+0x84>
    3824:	4b13      	ldr	r3, [pc, #76]	; (3874 <prvAddCurrentTaskToDelayedList+0xc0>)
    3826:	681a      	ldr	r2, [r3, #0]
    3828:	4b0f      	ldr	r3, [pc, #60]	; (3868 <prvAddCurrentTaskToDelayedList+0xb4>)
    382a:	681b      	ldr	r3, [r3, #0]
    382c:	3304      	adds	r3, #4
    382e:	4619      	mov	r1, r3
    3830:	4610      	mov	r0, r2
    3832:	f001 fba1 	bl	4f78 <vListInsert>
    3836:	e010      	b.n	385a <prvAddCurrentTaskToDelayedList+0xa6>
    3838:	4b0f      	ldr	r3, [pc, #60]	; (3878 <prvAddCurrentTaskToDelayedList+0xc4>)
    383a:	681a      	ldr	r2, [r3, #0]
    383c:	4b0a      	ldr	r3, [pc, #40]	; (3868 <prvAddCurrentTaskToDelayedList+0xb4>)
    383e:	681b      	ldr	r3, [r3, #0]
    3840:	3304      	adds	r3, #4
    3842:	4619      	mov	r1, r3
    3844:	4610      	mov	r0, r2
    3846:	f001 fb97 	bl	4f78 <vListInsert>
    384a:	4b0c      	ldr	r3, [pc, #48]	; (387c <prvAddCurrentTaskToDelayedList+0xc8>)
    384c:	681b      	ldr	r3, [r3, #0]
    384e:	68ba      	ldr	r2, [r7, #8]
    3850:	429a      	cmp	r2, r3
    3852:	d202      	bcs.n	385a <prvAddCurrentTaskToDelayedList+0xa6>
    3854:	4a09      	ldr	r2, [pc, #36]	; (387c <prvAddCurrentTaskToDelayedList+0xc8>)
    3856:	68bb      	ldr	r3, [r7, #8]
    3858:	6013      	str	r3, [r2, #0]
    385a:	bf00      	nop
    385c:	3710      	adds	r7, #16
    385e:	46bd      	mov	sp, r7
    3860:	bd80      	pop	{r7, pc}
    3862:	bf00      	nop
    3864:	2000297c 	.word	0x2000297c
    3868:	200028a0 	.word	0x200028a0
    386c:	20002980 	.word	0x20002980
    3870:	20002964 	.word	0x20002964
    3874:	20002934 	.word	0x20002934
    3878:	20002930 	.word	0x20002930
    387c:	20002998 	.word	0x20002998

00003880 <xTimerCreateTimerTask>:
    3880:	b580      	push	{r7, lr}
    3882:	b084      	sub	sp, #16
    3884:	af02      	add	r7, sp, #8
    3886:	2300      	movs	r3, #0
    3888:	607b      	str	r3, [r7, #4]
    388a:	f000 fa93 	bl	3db4 <prvCheckForValidListAndQueue>
    388e:	4b10      	ldr	r3, [pc, #64]	; (38d0 <xTimerCreateTimerTask+0x50>)
    3890:	681b      	ldr	r3, [r3, #0]
    3892:	2b00      	cmp	r3, #0
    3894:	d00a      	beq.n	38ac <xTimerCreateTimerTask+0x2c>
    3896:	4b0f      	ldr	r3, [pc, #60]	; (38d4 <xTimerCreateTimerTask+0x54>)
    3898:	9301      	str	r3, [sp, #4]
    389a:	2304      	movs	r3, #4
    389c:	9300      	str	r3, [sp, #0]
    389e:	2300      	movs	r3, #0
    38a0:	22b4      	movs	r2, #180	; 0xb4
    38a2:	490d      	ldr	r1, [pc, #52]	; (38d8 <xTimerCreateTimerTask+0x58>)
    38a4:	480d      	ldr	r0, [pc, #52]	; (38dc <xTimerCreateTimerTask+0x5c>)
    38a6:	f001 fdfe 	bl	54a6 <xTaskCreate>
    38aa:	6078      	str	r0, [r7, #4]
    38ac:	687b      	ldr	r3, [r7, #4]
    38ae:	2b00      	cmp	r3, #0
    38b0:	d109      	bne.n	38c6 <xTimerCreateTimerTask+0x46>
    38b2:	f04f 0320 	mov.w	r3, #32
    38b6:	f383 8811 	msr	BASEPRI, r3
    38ba:	f3bf 8f6f 	isb	sy
    38be:	f3bf 8f4f 	dsb	sy
    38c2:	603b      	str	r3, [r7, #0]
    38c4:	e7fe      	b.n	38c4 <xTimerCreateTimerTask+0x44>
    38c6:	687b      	ldr	r3, [r7, #4]
    38c8:	4618      	mov	r0, r3
    38ca:	3708      	adds	r7, #8
    38cc:	46bd      	mov	sp, r7
    38ce:	bd80      	pop	{r7, pc}
    38d0:	200029d4 	.word	0x200029d4
    38d4:	200029d8 	.word	0x200029d8
    38d8:	0000691c 	.word	0x0000691c
    38dc:	0000567b 	.word	0x0000567b

000038e0 <xTimerGenericCommand>:
    38e0:	b580      	push	{r7, lr}
    38e2:	b08a      	sub	sp, #40	; 0x28
    38e4:	af00      	add	r7, sp, #0
    38e6:	60f8      	str	r0, [r7, #12]
    38e8:	60b9      	str	r1, [r7, #8]
    38ea:	607a      	str	r2, [r7, #4]
    38ec:	603b      	str	r3, [r7, #0]
    38ee:	2300      	movs	r3, #0
    38f0:	627b      	str	r3, [r7, #36]	; 0x24
    38f2:	68fb      	ldr	r3, [r7, #12]
    38f4:	2b00      	cmp	r3, #0
    38f6:	d109      	bne.n	390c <xTimerGenericCommand+0x2c>
    38f8:	f04f 0320 	mov.w	r3, #32
    38fc:	f383 8811 	msr	BASEPRI, r3
    3900:	f3bf 8f6f 	isb	sy
    3904:	f3bf 8f4f 	dsb	sy
    3908:	623b      	str	r3, [r7, #32]
    390a:	e7fe      	b.n	390a <xTimerGenericCommand+0x2a>
    390c:	4b19      	ldr	r3, [pc, #100]	; (3974 <xTimerGenericCommand+0x94>)
    390e:	681b      	ldr	r3, [r3, #0]
    3910:	2b00      	cmp	r3, #0
    3912:	d02a      	beq.n	396a <xTimerGenericCommand+0x8a>
    3914:	68bb      	ldr	r3, [r7, #8]
    3916:	613b      	str	r3, [r7, #16]
    3918:	687b      	ldr	r3, [r7, #4]
    391a:	617b      	str	r3, [r7, #20]
    391c:	68fb      	ldr	r3, [r7, #12]
    391e:	61bb      	str	r3, [r7, #24]
    3920:	68bb      	ldr	r3, [r7, #8]
    3922:	2b05      	cmp	r3, #5
    3924:	dc18      	bgt.n	3958 <xTimerGenericCommand+0x78>
    3926:	f7ff fea3 	bl	3670 <xTaskGetSchedulerState>
    392a:	4603      	mov	r3, r0
    392c:	2b02      	cmp	r3, #2
    392e:	d109      	bne.n	3944 <xTimerGenericCommand+0x64>
    3930:	4b10      	ldr	r3, [pc, #64]	; (3974 <xTimerGenericCommand+0x94>)
    3932:	6818      	ldr	r0, [r3, #0]
    3934:	f107 0110 	add.w	r1, r7, #16
    3938:	2300      	movs	r3, #0
    393a:	6b3a      	ldr	r2, [r7, #48]	; 0x30
    393c:	f7ff f844 	bl	29c8 <xQueueGenericSend>
    3940:	6278      	str	r0, [r7, #36]	; 0x24
    3942:	e012      	b.n	396a <xTimerGenericCommand+0x8a>
    3944:	4b0b      	ldr	r3, [pc, #44]	; (3974 <xTimerGenericCommand+0x94>)
    3946:	6818      	ldr	r0, [r3, #0]
    3948:	f107 0110 	add.w	r1, r7, #16
    394c:	2300      	movs	r3, #0
    394e:	2200      	movs	r2, #0
    3950:	f7ff f83a 	bl	29c8 <xQueueGenericSend>
    3954:	6278      	str	r0, [r7, #36]	; 0x24
    3956:	e008      	b.n	396a <xTimerGenericCommand+0x8a>
    3958:	4b06      	ldr	r3, [pc, #24]	; (3974 <xTimerGenericCommand+0x94>)
    395a:	6818      	ldr	r0, [r3, #0]
    395c:	f107 0110 	add.w	r1, r7, #16
    3960:	2300      	movs	r3, #0
    3962:	683a      	ldr	r2, [r7, #0]
    3964:	f001 fbc7 	bl	50f6 <xQueueGenericSendFromISR>
    3968:	6278      	str	r0, [r7, #36]	; 0x24
    396a:	6a7b      	ldr	r3, [r7, #36]	; 0x24
    396c:	4618      	mov	r0, r3
    396e:	3728      	adds	r7, #40	; 0x28
    3970:	46bd      	mov	sp, r7
    3972:	bd80      	pop	{r7, pc}
    3974:	200029d4 	.word	0x200029d4

00003978 <prvProcessExpiredTimer>:
    3978:	b580      	push	{r7, lr}
    397a:	b088      	sub	sp, #32
    397c:	af02      	add	r7, sp, #8
    397e:	6078      	str	r0, [r7, #4]
    3980:	6039      	str	r1, [r7, #0]
    3982:	4b1c      	ldr	r3, [pc, #112]	; (39f4 <prvProcessExpiredTimer+0x7c>)
    3984:	681b      	ldr	r3, [r3, #0]
    3986:	68db      	ldr	r3, [r3, #12]
    3988:	68db      	ldr	r3, [r3, #12]
    398a:	617b      	str	r3, [r7, #20]
    398c:	697b      	ldr	r3, [r7, #20]
    398e:	3304      	adds	r3, #4
    3990:	4618      	mov	r0, r3
    3992:	f001 fb2a 	bl	4fea <uxListRemove>
    3996:	697b      	ldr	r3, [r7, #20]
    3998:	69db      	ldr	r3, [r3, #28]
    399a:	2b01      	cmp	r3, #1
    399c:	d121      	bne.n	39e2 <prvProcessExpiredTimer+0x6a>
    399e:	697b      	ldr	r3, [r7, #20]
    39a0:	699a      	ldr	r2, [r3, #24]
    39a2:	687b      	ldr	r3, [r7, #4]
    39a4:	18d1      	adds	r1, r2, r3
    39a6:	687b      	ldr	r3, [r7, #4]
    39a8:	683a      	ldr	r2, [r7, #0]
    39aa:	6978      	ldr	r0, [r7, #20]
    39ac:	f000 f8b6 	bl	3b1c <prvInsertTimerInActiveList>
    39b0:	4603      	mov	r3, r0
    39b2:	2b00      	cmp	r3, #0
    39b4:	d015      	beq.n	39e2 <prvProcessExpiredTimer+0x6a>
    39b6:	2300      	movs	r3, #0
    39b8:	9300      	str	r3, [sp, #0]
    39ba:	2300      	movs	r3, #0
    39bc:	687a      	ldr	r2, [r7, #4]
    39be:	2100      	movs	r1, #0
    39c0:	6978      	ldr	r0, [r7, #20]
    39c2:	f7ff ff8d 	bl	38e0 <xTimerGenericCommand>
    39c6:	6138      	str	r0, [r7, #16]
    39c8:	693b      	ldr	r3, [r7, #16]
    39ca:	2b00      	cmp	r3, #0
    39cc:	d109      	bne.n	39e2 <prvProcessExpiredTimer+0x6a>
    39ce:	f04f 0320 	mov.w	r3, #32
    39d2:	f383 8811 	msr	BASEPRI, r3
    39d6:	f3bf 8f6f 	isb	sy
    39da:	f3bf 8f4f 	dsb	sy
    39de:	60fb      	str	r3, [r7, #12]
    39e0:	e7fe      	b.n	39e0 <prvProcessExpiredTimer+0x68>
    39e2:	697b      	ldr	r3, [r7, #20]
    39e4:	6a5b      	ldr	r3, [r3, #36]	; 0x24
    39e6:	6978      	ldr	r0, [r7, #20]
    39e8:	4798      	blx	r3
    39ea:	bf00      	nop
    39ec:	3718      	adds	r7, #24
    39ee:	46bd      	mov	sp, r7
    39f0:	bd80      	pop	{r7, pc}
    39f2:	bf00      	nop
    39f4:	200029cc 	.word	0x200029cc

000039f8 <prvProcessTimerOrBlockTask>:
    39f8:	b580      	push	{r7, lr}
    39fa:	b084      	sub	sp, #16
    39fc:	af00      	add	r7, sp, #0
    39fe:	6078      	str	r0, [r7, #4]
    3a00:	6039      	str	r1, [r7, #0]
    3a02:	f7ff fa99 	bl	2f38 <vTaskSuspendAll>
    3a06:	f107 0308 	add.w	r3, r7, #8
    3a0a:	4618      	mov	r0, r3
    3a0c:	f000 f866 	bl	3adc <prvSampleTimeNow>
    3a10:	60f8      	str	r0, [r7, #12]
    3a12:	68bb      	ldr	r3, [r7, #8]
    3a14:	2b00      	cmp	r3, #0
    3a16:	d130      	bne.n	3a7a <prvProcessTimerOrBlockTask+0x82>
    3a18:	683b      	ldr	r3, [r7, #0]
    3a1a:	2b00      	cmp	r3, #0
    3a1c:	d10a      	bne.n	3a34 <prvProcessTimerOrBlockTask+0x3c>
    3a1e:	687a      	ldr	r2, [r7, #4]
    3a20:	68fb      	ldr	r3, [r7, #12]
    3a22:	429a      	cmp	r2, r3
    3a24:	d806      	bhi.n	3a34 <prvProcessTimerOrBlockTask+0x3c>
    3a26:	f7ff fa95 	bl	2f54 <xTaskResumeAll>
    3a2a:	68f9      	ldr	r1, [r7, #12]
    3a2c:	6878      	ldr	r0, [r7, #4]
    3a2e:	f7ff ffa3 	bl	3978 <prvProcessExpiredTimer>
    3a32:	e024      	b.n	3a7e <prvProcessTimerOrBlockTask+0x86>
    3a34:	683b      	ldr	r3, [r7, #0]
    3a36:	2b00      	cmp	r3, #0
    3a38:	d008      	beq.n	3a4c <prvProcessTimerOrBlockTask+0x54>
    3a3a:	4b13      	ldr	r3, [pc, #76]	; (3a88 <prvProcessTimerOrBlockTask+0x90>)
    3a3c:	681b      	ldr	r3, [r3, #0]
    3a3e:	681b      	ldr	r3, [r3, #0]
    3a40:	2b00      	cmp	r3, #0
    3a42:	bf0c      	ite	eq
    3a44:	2301      	moveq	r3, #1
    3a46:	2300      	movne	r3, #0
    3a48:	b2db      	uxtb	r3, r3
    3a4a:	603b      	str	r3, [r7, #0]
    3a4c:	4b0f      	ldr	r3, [pc, #60]	; (3a8c <prvProcessTimerOrBlockTask+0x94>)
    3a4e:	6818      	ldr	r0, [r3, #0]
    3a50:	687a      	ldr	r2, [r7, #4]
    3a52:	68fb      	ldr	r3, [r7, #12]
    3a54:	1ad3      	subs	r3, r2, r3
    3a56:	683a      	ldr	r2, [r7, #0]
    3a58:	4619      	mov	r1, r3
    3a5a:	f001 fcf0 	bl	543e <vQueueWaitForMessageRestricted>
    3a5e:	f7ff fa79 	bl	2f54 <xTaskResumeAll>
    3a62:	4603      	mov	r3, r0
    3a64:	2b00      	cmp	r3, #0
    3a66:	d10a      	bne.n	3a7e <prvProcessTimerOrBlockTask+0x86>
    3a68:	4b09      	ldr	r3, [pc, #36]	; (3a90 <prvProcessTimerOrBlockTask+0x98>)
    3a6a:	f04f 5280 	mov.w	r2, #268435456	; 0x10000000
    3a6e:	601a      	str	r2, [r3, #0]
    3a70:	f3bf 8f4f 	dsb	sy
    3a74:	f3bf 8f6f 	isb	sy
    3a78:	e001      	b.n	3a7e <prvProcessTimerOrBlockTask+0x86>
    3a7a:	f7ff fa6b 	bl	2f54 <xTaskResumeAll>
    3a7e:	bf00      	nop
    3a80:	3710      	adds	r7, #16
    3a82:	46bd      	mov	sp, r7
    3a84:	bd80      	pop	{r7, pc}
    3a86:	bf00      	nop
    3a88:	200029d0 	.word	0x200029d0
    3a8c:	200029d4 	.word	0x200029d4
    3a90:	e000ed04 	.word	0xe000ed04

00003a94 <prvGetNextExpireTime>:
    3a94:	b480      	push	{r7}
    3a96:	b085      	sub	sp, #20
    3a98:	af00      	add	r7, sp, #0
    3a9a:	6078      	str	r0, [r7, #4]
    3a9c:	4b0e      	ldr	r3, [pc, #56]	; (3ad8 <prvGetNextExpireTime+0x44>)
    3a9e:	681b      	ldr	r3, [r3, #0]
    3aa0:	681b      	ldr	r3, [r3, #0]
    3aa2:	2b00      	cmp	r3, #0
    3aa4:	bf0c      	ite	eq
    3aa6:	2301      	moveq	r3, #1
    3aa8:	2300      	movne	r3, #0
    3aaa:	b2db      	uxtb	r3, r3
    3aac:	461a      	mov	r2, r3
    3aae:	687b      	ldr	r3, [r7, #4]
    3ab0:	601a      	str	r2, [r3, #0]
    3ab2:	687b      	ldr	r3, [r7, #4]
    3ab4:	681b      	ldr	r3, [r3, #0]
    3ab6:	2b00      	cmp	r3, #0
    3ab8:	d105      	bne.n	3ac6 <prvGetNextExpireTime+0x32>
    3aba:	4b07      	ldr	r3, [pc, #28]	; (3ad8 <prvGetNextExpireTime+0x44>)
    3abc:	681b      	ldr	r3, [r3, #0]
    3abe:	68db      	ldr	r3, [r3, #12]
    3ac0:	681b      	ldr	r3, [r3, #0]
    3ac2:	60fb      	str	r3, [r7, #12]
    3ac4:	e001      	b.n	3aca <prvGetNextExpireTime+0x36>
    3ac6:	2300      	movs	r3, #0
    3ac8:	60fb      	str	r3, [r7, #12]
    3aca:	68fb      	ldr	r3, [r7, #12]
    3acc:	4618      	mov	r0, r3
    3ace:	3714      	adds	r7, #20
    3ad0:	46bd      	mov	sp, r7
    3ad2:	f85d 7b04 	ldr.w	r7, [sp], #4
    3ad6:	4770      	bx	lr
    3ad8:	200029cc 	.word	0x200029cc

00003adc <prvSampleTimeNow>:
    3adc:	b580      	push	{r7, lr}
    3ade:	b084      	sub	sp, #16
    3ae0:	af00      	add	r7, sp, #0
    3ae2:	6078      	str	r0, [r7, #4]
    3ae4:	f7ff fad2 	bl	308c <xTaskGetTickCount>
    3ae8:	60f8      	str	r0, [r7, #12]
    3aea:	4b0b      	ldr	r3, [pc, #44]	; (3b18 <prvSampleTimeNow+0x3c>)
    3aec:	681b      	ldr	r3, [r3, #0]
    3aee:	68fa      	ldr	r2, [r7, #12]
    3af0:	429a      	cmp	r2, r3
    3af2:	d205      	bcs.n	3b00 <prvSampleTimeNow+0x24>
    3af4:	f000 f8fe 	bl	3cf4 <prvSwitchTimerLists>
    3af8:	687b      	ldr	r3, [r7, #4]
    3afa:	2201      	movs	r2, #1
    3afc:	601a      	str	r2, [r3, #0]
    3afe:	e002      	b.n	3b06 <prvSampleTimeNow+0x2a>
    3b00:	687b      	ldr	r3, [r7, #4]
    3b02:	2200      	movs	r2, #0
    3b04:	601a      	str	r2, [r3, #0]
    3b06:	4a04      	ldr	r2, [pc, #16]	; (3b18 <prvSampleTimeNow+0x3c>)
    3b08:	68fb      	ldr	r3, [r7, #12]
    3b0a:	6013      	str	r3, [r2, #0]
    3b0c:	68fb      	ldr	r3, [r7, #12]
    3b0e:	4618      	mov	r0, r3
    3b10:	3710      	adds	r7, #16
    3b12:	46bd      	mov	sp, r7
    3b14:	bd80      	pop	{r7, pc}
    3b16:	bf00      	nop
    3b18:	200029dc 	.word	0x200029dc

00003b1c <prvInsertTimerInActiveList>:
    3b1c:	b580      	push	{r7, lr}
    3b1e:	b086      	sub	sp, #24
    3b20:	af00      	add	r7, sp, #0
    3b22:	60f8      	str	r0, [r7, #12]
    3b24:	60b9      	str	r1, [r7, #8]
    3b26:	607a      	str	r2, [r7, #4]
    3b28:	603b      	str	r3, [r7, #0]
    3b2a:	2300      	movs	r3, #0
    3b2c:	617b      	str	r3, [r7, #20]
    3b2e:	68fb      	ldr	r3, [r7, #12]
    3b30:	68ba      	ldr	r2, [r7, #8]
    3b32:	605a      	str	r2, [r3, #4]
    3b34:	68fb      	ldr	r3, [r7, #12]
    3b36:	68fa      	ldr	r2, [r7, #12]
    3b38:	611a      	str	r2, [r3, #16]
    3b3a:	68ba      	ldr	r2, [r7, #8]
    3b3c:	687b      	ldr	r3, [r7, #4]
    3b3e:	429a      	cmp	r2, r3
    3b40:	d812      	bhi.n	3b68 <prvInsertTimerInActiveList+0x4c>
    3b42:	687a      	ldr	r2, [r7, #4]
    3b44:	683b      	ldr	r3, [r7, #0]
    3b46:	1ad2      	subs	r2, r2, r3
    3b48:	68fb      	ldr	r3, [r7, #12]
    3b4a:	699b      	ldr	r3, [r3, #24]
    3b4c:	429a      	cmp	r2, r3
    3b4e:	d302      	bcc.n	3b56 <prvInsertTimerInActiveList+0x3a>
    3b50:	2301      	movs	r3, #1
    3b52:	617b      	str	r3, [r7, #20]
    3b54:	e01b      	b.n	3b8e <prvInsertTimerInActiveList+0x72>
    3b56:	4b10      	ldr	r3, [pc, #64]	; (3b98 <prvInsertTimerInActiveList+0x7c>)
    3b58:	681a      	ldr	r2, [r3, #0]
    3b5a:	68fb      	ldr	r3, [r7, #12]
    3b5c:	3304      	adds	r3, #4
    3b5e:	4619      	mov	r1, r3
    3b60:	4610      	mov	r0, r2
    3b62:	f001 fa09 	bl	4f78 <vListInsert>
    3b66:	e012      	b.n	3b8e <prvInsertTimerInActiveList+0x72>
    3b68:	687a      	ldr	r2, [r7, #4]
    3b6a:	683b      	ldr	r3, [r7, #0]
    3b6c:	429a      	cmp	r2, r3
    3b6e:	d206      	bcs.n	3b7e <prvInsertTimerInActiveList+0x62>
    3b70:	68ba      	ldr	r2, [r7, #8]
    3b72:	683b      	ldr	r3, [r7, #0]
    3b74:	429a      	cmp	r2, r3
    3b76:	d302      	bcc.n	3b7e <prvInsertTimerInActiveList+0x62>
    3b78:	2301      	movs	r3, #1
    3b7a:	617b      	str	r3, [r7, #20]
    3b7c:	e007      	b.n	3b8e <prvInsertTimerInActiveList+0x72>
    3b7e:	4b07      	ldr	r3, [pc, #28]	; (3b9c <prvInsertTimerInActiveList+0x80>)
    3b80:	681a      	ldr	r2, [r3, #0]
    3b82:	68fb      	ldr	r3, [r7, #12]
    3b84:	3304      	adds	r3, #4
    3b86:	4619      	mov	r1, r3
    3b88:	4610      	mov	r0, r2
    3b8a:	f001 f9f5 	bl	4f78 <vListInsert>
    3b8e:	697b      	ldr	r3, [r7, #20]
    3b90:	4618      	mov	r0, r3
    3b92:	3718      	adds	r7, #24
    3b94:	46bd      	mov	sp, r7
    3b96:	bd80      	pop	{r7, pc}
    3b98:	200029d0 	.word	0x200029d0
    3b9c:	200029cc 	.word	0x200029cc

00003ba0 <prvProcessReceivedCommands>:
    3ba0:	b580      	push	{r7, lr}
    3ba2:	b08e      	sub	sp, #56	; 0x38
    3ba4:	af02      	add	r7, sp, #8
    3ba6:	e094      	b.n	3cd2 <prvProcessReceivedCommands+0x132>
    3ba8:	687b      	ldr	r3, [r7, #4]
    3baa:	2b00      	cmp	r3, #0
    3bac:	da17      	bge.n	3bde <prvProcessReceivedCommands+0x3e>
    3bae:	1d3b      	adds	r3, r7, #4
    3bb0:	3304      	adds	r3, #4
    3bb2:	62fb      	str	r3, [r7, #44]	; 0x2c
    3bb4:	6afb      	ldr	r3, [r7, #44]	; 0x2c
    3bb6:	2b00      	cmp	r3, #0
    3bb8:	d109      	bne.n	3bce <prvProcessReceivedCommands+0x2e>
    3bba:	f04f 0320 	mov.w	r3, #32
    3bbe:	f383 8811 	msr	BASEPRI, r3
    3bc2:	f3bf 8f6f 	isb	sy
    3bc6:	f3bf 8f4f 	dsb	sy
    3bca:	61fb      	str	r3, [r7, #28]
    3bcc:	e7fe      	b.n	3bcc <prvProcessReceivedCommands+0x2c>
    3bce:	6afb      	ldr	r3, [r7, #44]	; 0x2c
    3bd0:	681b      	ldr	r3, [r3, #0]
    3bd2:	6afa      	ldr	r2, [r7, #44]	; 0x2c
    3bd4:	6850      	ldr	r0, [r2, #4]
    3bd6:	6afa      	ldr	r2, [r7, #44]	; 0x2c
    3bd8:	6892      	ldr	r2, [r2, #8]
    3bda:	4611      	mov	r1, r2
    3bdc:	4798      	blx	r3
    3bde:	687b      	ldr	r3, [r7, #4]
    3be0:	2b00      	cmp	r3, #0
    3be2:	db75      	blt.n	3cd0 <prvProcessReceivedCommands+0x130>
    3be4:	68fb      	ldr	r3, [r7, #12]
    3be6:	62bb      	str	r3, [r7, #40]	; 0x28
    3be8:	6abb      	ldr	r3, [r7, #40]	; 0x28
    3bea:	695b      	ldr	r3, [r3, #20]
    3bec:	2b00      	cmp	r3, #0
    3bee:	d004      	beq.n	3bfa <prvProcessReceivedCommands+0x5a>
    3bf0:	6abb      	ldr	r3, [r7, #40]	; 0x28
    3bf2:	3304      	adds	r3, #4
    3bf4:	4618      	mov	r0, r3
    3bf6:	f001 f9f8 	bl	4fea <uxListRemove>
    3bfa:	463b      	mov	r3, r7
    3bfc:	4618      	mov	r0, r3
    3bfe:	f7ff ff6d 	bl	3adc <prvSampleTimeNow>
    3c02:	6278      	str	r0, [r7, #36]	; 0x24
    3c04:	687b      	ldr	r3, [r7, #4]
    3c06:	2b09      	cmp	r3, #9
    3c08:	d863      	bhi.n	3cd2 <prvProcessReceivedCommands+0x132>
    3c0a:	a201      	add	r2, pc, #4	; (adr r2, 3c10 <prvProcessReceivedCommands+0x70>)
    3c0c:	f852 f023 	ldr.w	pc, [r2, r3, lsl #2]
    3c10:	00003c39 	.word	0x00003c39
    3c14:	00003c39 	.word	0x00003c39
    3c18:	00003c39 	.word	0x00003c39
    3c1c:	00003cd3 	.word	0x00003cd3
    3c20:	00003c93 	.word	0x00003c93
    3c24:	00003cc9 	.word	0x00003cc9
    3c28:	00003c39 	.word	0x00003c39
    3c2c:	00003c39 	.word	0x00003c39
    3c30:	00003cd3 	.word	0x00003cd3
    3c34:	00003c93 	.word	0x00003c93
    3c38:	68ba      	ldr	r2, [r7, #8]
    3c3a:	6abb      	ldr	r3, [r7, #40]	; 0x28
    3c3c:	699b      	ldr	r3, [r3, #24]
    3c3e:	18d1      	adds	r1, r2, r3
    3c40:	68bb      	ldr	r3, [r7, #8]
    3c42:	6a7a      	ldr	r2, [r7, #36]	; 0x24
    3c44:	6ab8      	ldr	r0, [r7, #40]	; 0x28
    3c46:	f7ff ff69 	bl	3b1c <prvInsertTimerInActiveList>
    3c4a:	4603      	mov	r3, r0
    3c4c:	2b00      	cmp	r3, #0
    3c4e:	d040      	beq.n	3cd2 <prvProcessReceivedCommands+0x132>
    3c50:	6abb      	ldr	r3, [r7, #40]	; 0x28
    3c52:	6a5b      	ldr	r3, [r3, #36]	; 0x24
    3c54:	6ab8      	ldr	r0, [r7, #40]	; 0x28
    3c56:	4798      	blx	r3
    3c58:	6abb      	ldr	r3, [r7, #40]	; 0x28
    3c5a:	69db      	ldr	r3, [r3, #28]
    3c5c:	2b01      	cmp	r3, #1
    3c5e:	d138      	bne.n	3cd2 <prvProcessReceivedCommands+0x132>
    3c60:	68ba      	ldr	r2, [r7, #8]
    3c62:	6abb      	ldr	r3, [r7, #40]	; 0x28
    3c64:	699b      	ldr	r3, [r3, #24]
    3c66:	441a      	add	r2, r3
    3c68:	2300      	movs	r3, #0
    3c6a:	9300      	str	r3, [sp, #0]
    3c6c:	2300      	movs	r3, #0
    3c6e:	2100      	movs	r1, #0
    3c70:	6ab8      	ldr	r0, [r7, #40]	; 0x28
    3c72:	f7ff fe35 	bl	38e0 <xTimerGenericCommand>
    3c76:	6238      	str	r0, [r7, #32]
    3c78:	6a3b      	ldr	r3, [r7, #32]
    3c7a:	2b00      	cmp	r3, #0
    3c7c:	d129      	bne.n	3cd2 <prvProcessReceivedCommands+0x132>
    3c7e:	f04f 0320 	mov.w	r3, #32
    3c82:	f383 8811 	msr	BASEPRI, r3
    3c86:	f3bf 8f6f 	isb	sy
    3c8a:	f3bf 8f4f 	dsb	sy
    3c8e:	61bb      	str	r3, [r7, #24]
    3c90:	e7fe      	b.n	3c90 <prvProcessReceivedCommands+0xf0>
    3c92:	68ba      	ldr	r2, [r7, #8]
    3c94:	6abb      	ldr	r3, [r7, #40]	; 0x28
    3c96:	619a      	str	r2, [r3, #24]
    3c98:	6abb      	ldr	r3, [r7, #40]	; 0x28
    3c9a:	699b      	ldr	r3, [r3, #24]
    3c9c:	2b00      	cmp	r3, #0
    3c9e:	d109      	bne.n	3cb4 <prvProcessReceivedCommands+0x114>
    3ca0:	f04f 0320 	mov.w	r3, #32
    3ca4:	f383 8811 	msr	BASEPRI, r3
    3ca8:	f3bf 8f6f 	isb	sy
    3cac:	f3bf 8f4f 	dsb	sy
    3cb0:	617b      	str	r3, [r7, #20]
    3cb2:	e7fe      	b.n	3cb2 <prvProcessReceivedCommands+0x112>
    3cb4:	6abb      	ldr	r3, [r7, #40]	; 0x28
    3cb6:	699a      	ldr	r2, [r3, #24]
    3cb8:	6a7b      	ldr	r3, [r7, #36]	; 0x24
    3cba:	18d1      	adds	r1, r2, r3
    3cbc:	6a7b      	ldr	r3, [r7, #36]	; 0x24
    3cbe:	6a7a      	ldr	r2, [r7, #36]	; 0x24
    3cc0:	6ab8      	ldr	r0, [r7, #40]	; 0x28
    3cc2:	f7ff ff2b 	bl	3b1c <prvInsertTimerInActiveList>
    3cc6:	e004      	b.n	3cd2 <prvProcessReceivedCommands+0x132>
    3cc8:	6ab8      	ldr	r0, [r7, #40]	; 0x28
    3cca:	f7fe fb33 	bl	2334 <vPortFree>
    3cce:	e000      	b.n	3cd2 <prvProcessReceivedCommands+0x132>
    3cd0:	bf00      	nop
    3cd2:	4b07      	ldr	r3, [pc, #28]	; (3cf0 <prvProcessReceivedCommands+0x150>)
    3cd4:	681b      	ldr	r3, [r3, #0]
    3cd6:	1d39      	adds	r1, r7, #4
    3cd8:	2200      	movs	r2, #0
    3cda:	4618      	mov	r0, r3
    3cdc:	f7fe ff6e 	bl	2bbc <xQueueReceive>
    3ce0:	4603      	mov	r3, r0
    3ce2:	2b00      	cmp	r3, #0
    3ce4:	f47f af60 	bne.w	3ba8 <prvProcessReceivedCommands+0x8>
    3ce8:	bf00      	nop
    3cea:	3730      	adds	r7, #48	; 0x30
    3cec:	46bd      	mov	sp, r7
    3cee:	bd80      	pop	{r7, pc}
    3cf0:	200029d4 	.word	0x200029d4

00003cf4 <prvSwitchTimerLists>:
    3cf4:	b580      	push	{r7, lr}
    3cf6:	b088      	sub	sp, #32
    3cf8:	af02      	add	r7, sp, #8
    3cfa:	e044      	b.n	3d86 <prvSwitchTimerLists+0x92>
    3cfc:	4b2b      	ldr	r3, [pc, #172]	; (3dac <prvSwitchTimerLists+0xb8>)
    3cfe:	681b      	ldr	r3, [r3, #0]
    3d00:	68db      	ldr	r3, [r3, #12]
    3d02:	681b      	ldr	r3, [r3, #0]
    3d04:	613b      	str	r3, [r7, #16]
    3d06:	4b29      	ldr	r3, [pc, #164]	; (3dac <prvSwitchTimerLists+0xb8>)
    3d08:	681b      	ldr	r3, [r3, #0]
    3d0a:	68db      	ldr	r3, [r3, #12]
    3d0c:	68db      	ldr	r3, [r3, #12]
    3d0e:	60fb      	str	r3, [r7, #12]
    3d10:	68fb      	ldr	r3, [r7, #12]
    3d12:	3304      	adds	r3, #4
    3d14:	4618      	mov	r0, r3
    3d16:	f001 f968 	bl	4fea <uxListRemove>
    3d1a:	68fb      	ldr	r3, [r7, #12]
    3d1c:	6a5b      	ldr	r3, [r3, #36]	; 0x24
    3d1e:	68f8      	ldr	r0, [r7, #12]
    3d20:	4798      	blx	r3
    3d22:	68fb      	ldr	r3, [r7, #12]
    3d24:	69db      	ldr	r3, [r3, #28]
    3d26:	2b01      	cmp	r3, #1
    3d28:	d12d      	bne.n	3d86 <prvSwitchTimerLists+0x92>
    3d2a:	68fb      	ldr	r3, [r7, #12]
    3d2c:	699b      	ldr	r3, [r3, #24]
    3d2e:	693a      	ldr	r2, [r7, #16]
    3d30:	4413      	add	r3, r2
    3d32:	60bb      	str	r3, [r7, #8]
    3d34:	68ba      	ldr	r2, [r7, #8]
    3d36:	693b      	ldr	r3, [r7, #16]
    3d38:	429a      	cmp	r2, r3
    3d3a:	d90e      	bls.n	3d5a <prvSwitchTimerLists+0x66>
    3d3c:	68fb      	ldr	r3, [r7, #12]
    3d3e:	68ba      	ldr	r2, [r7, #8]
    3d40:	605a      	str	r2, [r3, #4]
    3d42:	68fb      	ldr	r3, [r7, #12]
    3d44:	68fa      	ldr	r2, [r7, #12]
    3d46:	611a      	str	r2, [r3, #16]
    3d48:	4b18      	ldr	r3, [pc, #96]	; (3dac <prvSwitchTimerLists+0xb8>)
    3d4a:	681a      	ldr	r2, [r3, #0]
    3d4c:	68fb      	ldr	r3, [r7, #12]
    3d4e:	3304      	adds	r3, #4
    3d50:	4619      	mov	r1, r3
    3d52:	4610      	mov	r0, r2
    3d54:	f001 f910 	bl	4f78 <vListInsert>
    3d58:	e015      	b.n	3d86 <prvSwitchTimerLists+0x92>
    3d5a:	2300      	movs	r3, #0
    3d5c:	9300      	str	r3, [sp, #0]
    3d5e:	2300      	movs	r3, #0
    3d60:	693a      	ldr	r2, [r7, #16]
    3d62:	2100      	movs	r1, #0
    3d64:	68f8      	ldr	r0, [r7, #12]
    3d66:	f7ff fdbb 	bl	38e0 <xTimerGenericCommand>
    3d6a:	6078      	str	r0, [r7, #4]
    3d6c:	687b      	ldr	r3, [r7, #4]
    3d6e:	2b00      	cmp	r3, #0
    3d70:	d109      	bne.n	3d86 <prvSwitchTimerLists+0x92>
    3d72:	f04f 0320 	mov.w	r3, #32
    3d76:	f383 8811 	msr	BASEPRI, r3
    3d7a:	f3bf 8f6f 	isb	sy
    3d7e:	f3bf 8f4f 	dsb	sy
    3d82:	603b      	str	r3, [r7, #0]
    3d84:	e7fe      	b.n	3d84 <prvSwitchTimerLists+0x90>
    3d86:	4b09      	ldr	r3, [pc, #36]	; (3dac <prvSwitchTimerLists+0xb8>)
    3d88:	681b      	ldr	r3, [r3, #0]
    3d8a:	681b      	ldr	r3, [r3, #0]
    3d8c:	2b00      	cmp	r3, #0
    3d8e:	d1b5      	bne.n	3cfc <prvSwitchTimerLists+0x8>
    3d90:	4b06      	ldr	r3, [pc, #24]	; (3dac <prvSwitchTimerLists+0xb8>)
    3d92:	681b      	ldr	r3, [r3, #0]
    3d94:	617b      	str	r3, [r7, #20]
    3d96:	4b06      	ldr	r3, [pc, #24]	; (3db0 <prvSwitchTimerLists+0xbc>)
    3d98:	681b      	ldr	r3, [r3, #0]
    3d9a:	4a04      	ldr	r2, [pc, #16]	; (3dac <prvSwitchTimerLists+0xb8>)
    3d9c:	6013      	str	r3, [r2, #0]
    3d9e:	4a04      	ldr	r2, [pc, #16]	; (3db0 <prvSwitchTimerLists+0xbc>)
    3da0:	697b      	ldr	r3, [r7, #20]
    3da2:	6013      	str	r3, [r2, #0]
    3da4:	bf00      	nop
    3da6:	3718      	adds	r7, #24
    3da8:	46bd      	mov	sp, r7
    3daa:	bd80      	pop	{r7, pc}
    3dac:	200029cc 	.word	0x200029cc
    3db0:	200029d0 	.word	0x200029d0

00003db4 <prvCheckForValidListAndQueue>:
    3db4:	b580      	push	{r7, lr}
    3db6:	af00      	add	r7, sp, #0
    3db8:	f7fe fce0 	bl	277c <vPortEnterCritical>
    3dbc:	4b12      	ldr	r3, [pc, #72]	; (3e08 <prvCheckForValidListAndQueue+0x54>)
    3dbe:	681b      	ldr	r3, [r3, #0]
    3dc0:	2b00      	cmp	r3, #0
    3dc2:	d11d      	bne.n	3e00 <prvCheckForValidListAndQueue+0x4c>
    3dc4:	4811      	ldr	r0, [pc, #68]	; (3e0c <prvCheckForValidListAndQueue+0x58>)
    3dc6:	f001 f886 	bl	4ed6 <vListInitialise>
    3dca:	4811      	ldr	r0, [pc, #68]	; (3e10 <prvCheckForValidListAndQueue+0x5c>)
    3dcc:	f001 f883 	bl	4ed6 <vListInitialise>
    3dd0:	4b10      	ldr	r3, [pc, #64]	; (3e14 <prvCheckForValidListAndQueue+0x60>)
    3dd2:	4a0e      	ldr	r2, [pc, #56]	; (3e0c <prvCheckForValidListAndQueue+0x58>)
    3dd4:	601a      	str	r2, [r3, #0]
    3dd6:	4b10      	ldr	r3, [pc, #64]	; (3e18 <prvCheckForValidListAndQueue+0x64>)
    3dd8:	4a0d      	ldr	r2, [pc, #52]	; (3e10 <prvCheckForValidListAndQueue+0x5c>)
    3dda:	601a      	str	r2, [r3, #0]
    3ddc:	2200      	movs	r2, #0
    3dde:	2110      	movs	r1, #16
    3de0:	200a      	movs	r0, #10
    3de2:	f001 f92c 	bl	503e <xQueueGenericCreate>
    3de6:	4602      	mov	r2, r0
    3de8:	4b07      	ldr	r3, [pc, #28]	; (3e08 <prvCheckForValidListAndQueue+0x54>)
    3dea:	601a      	str	r2, [r3, #0]
    3dec:	4b06      	ldr	r3, [pc, #24]	; (3e08 <prvCheckForValidListAndQueue+0x54>)
    3dee:	681b      	ldr	r3, [r3, #0]
    3df0:	2b00      	cmp	r3, #0
    3df2:	d005      	beq.n	3e00 <prvCheckForValidListAndQueue+0x4c>
    3df4:	4b04      	ldr	r3, [pc, #16]	; (3e08 <prvCheckForValidListAndQueue+0x54>)
    3df6:	681b      	ldr	r3, [r3, #0]
    3df8:	4908      	ldr	r1, [pc, #32]	; (3e1c <prvCheckForValidListAndQueue+0x68>)
    3dfa:	4618      	mov	r0, r3
    3dfc:	f7fe ffba 	bl	2d74 <vQueueAddToRegistry>
    3e00:	f7fe fcea 	bl	27d8 <vPortExitCritical>
    3e04:	bf00      	nop
    3e06:	bd80      	pop	{r7, pc}
    3e08:	200029d4 	.word	0x200029d4
    3e0c:	200029a4 	.word	0x200029a4
    3e10:	200029b8 	.word	0x200029b8
    3e14:	200029cc 	.word	0x200029cc
    3e18:	200029d0 	.word	0x200029d0
    3e1c:	00006924 	.word	0x00006924

00003e20 <SystemInit>:
    3e20:	b580      	push	{r7, lr}
    3e22:	af00      	add	r7, sp, #0
    3e24:	4b0b      	ldr	r3, [pc, #44]	; (3e54 <SystemInit+0x34>)
    3e26:	f8d3 3088 	ldr.w	r3, [r3, #136]	; 0x88
    3e2a:	4a0a      	ldr	r2, [pc, #40]	; (3e54 <SystemInit+0x34>)
    3e2c:	f443 0370 	orr.w	r3, r3, #15728640	; 0xf00000
    3e30:	f8c2 3088 	str.w	r3, [r2, #136]	; 0x88
    3e34:	4b08      	ldr	r3, [pc, #32]	; (3e58 <SystemInit+0x38>)
    3e36:	f24c 5220 	movw	r2, #50464	; 0xc520
    3e3a:	81da      	strh	r2, [r3, #14]
    3e3c:	4b06      	ldr	r3, [pc, #24]	; (3e58 <SystemInit+0x38>)
    3e3e:	f64d 1228 	movw	r2, #55592	; 0xd928
    3e42:	81da      	strh	r2, [r3, #14]
    3e44:	4b04      	ldr	r3, [pc, #16]	; (3e58 <SystemInit+0x38>)
    3e46:	f44f 72e9 	mov.w	r2, #466	; 0x1d2
    3e4a:	801a      	strh	r2, [r3, #0]
    3e4c:	f001 fc27 	bl	569e <SystemInitHook>
    3e50:	bf00      	nop
    3e52:	bd80      	pop	{r7, pc}
    3e54:	e000ed00 	.word	0xe000ed00
    3e58:	40052000 	.word	0x40052000

00003e5c <__assertion_failed>:
    3e5c:	b510      	push	{r4, lr}
    3e5e:	490f      	ldr	r1, [pc, #60]	; (3e9c <__assertion_failed+0x40>)
    3e60:	4604      	mov	r4, r0
    3e62:	480f      	ldr	r0, [pc, #60]	; (3ea0 <__assertion_failed+0x44>)
    3e64:	f001 fd2f 	bl	58c6 <fputs>
    3e68:	490c      	ldr	r1, [pc, #48]	; (3e9c <__assertion_failed+0x40>)
    3e6a:	4620      	mov	r0, r4
    3e6c:	f001 fd2b 	bl	58c6 <fputs>
    3e70:	490c      	ldr	r1, [pc, #48]	; (3ea4 <__assertion_failed+0x48>)
    3e72:	f8d1 3080 	ldr.w	r3, [r1, #128]	; 0x80
    3e76:	3b01      	subs	r3, #1
    3e78:	2b00      	cmp	r3, #0
    3e7a:	f8c1 3080 	str.w	r3, [r1, #128]	; 0x80
    3e7e:	db08      	blt.n	3e92 <__assertion_failed+0x36>
    3e80:	6f8b      	ldr	r3, [r1, #120]	; 0x78
    3e82:	1c5a      	adds	r2, r3, #1
    3e84:	678a      	str	r2, [r1, #120]	; 0x78
    3e86:	220a      	movs	r2, #10
    3e88:	701a      	strb	r2, [r3, #0]
    3e8a:	e8bd 4010 	ldmia.w	sp!, {r4, lr}
    3e8e:	f001 bc14 	b.w	56ba <__sys_appexit>
    3e92:	3178      	adds	r1, #120	; 0x78
    3e94:	200a      	movs	r0, #10
    3e96:	f001 fc35 	bl	5704 <__flsbuf>
    3e9a:	e7f6      	b.n	3e8a <__assertion_failed+0x2e>
    3e9c:	20002a58 	.word	0x20002a58
    3ea0:	00006930 	.word	0x00006930
    3ea4:	200029e0 	.word	0x200029e0

00003ea8 <_Cwritebuf>:
    3ea8:	e92d 41f0 	stmdb	sp!, {r4, r5, r6, r7, r8, lr}
    3eac:	68d5      	ldr	r5, [r2, #12]
    3eae:	6957      	ldr	r7, [r2, #20]
    3eb0:	02eb      	lsls	r3, r5, #11
    3eb2:	4680      	mov	r8, r0
    3eb4:	460e      	mov	r6, r1
    3eb6:	4614      	mov	r4, r2
    3eb8:	d505      	bpl.n	3ec6 <_Cwritebuf+0x1e>
    3eba:	4638      	mov	r0, r7
    3ebc:	f001 fdfe 	bl	5abc <__sys_flen>
    3ec0:	f045 0510 	orr.w	r5, r5, #16
    3ec4:	61a0      	str	r0, [r4, #24]
    3ec6:	4b12      	ldr	r3, [pc, #72]	; (3f10 <_Cwritebuf+0x68>)
    3ec8:	402b      	ands	r3, r5
    3eca:	b18b      	cbz	r3, 3ef0 <_Cwritebuf+0x48>
    3ecc:	69a1      	ldr	r1, [r4, #24]
    3ece:	4638      	mov	r0, r7
    3ed0:	f001 fdfd 	bl	5ace <__sys_seek>
    3ed4:	2800      	cmp	r0, #0
    3ed6:	da06      	bge.n	3ee6 <_Cwritebuf+0x3e>
    3ed8:	68e3      	ldr	r3, [r4, #12]
    3eda:	f043 0380 	orr.w	r3, r3, #128	; 0x80
    3ede:	60e3      	str	r3, [r4, #12]
    3ee0:	f04f 30ff 	mov.w	r0, #4294967295	; 0xffffffff
    3ee4:	e011      	b.n	3f0a <_Cwritebuf+0x62>
    3ee6:	f425 3500 	bic.w	r5, r5, #131072	; 0x20000
    3eea:	f025 0510 	bic.w	r5, r5, #16
    3eee:	60e5      	str	r5, [r4, #12]
    3ef0:	4632      	mov	r2, r6
    3ef2:	4641      	mov	r1, r8
    3ef4:	4638      	mov	r0, r7
    3ef6:	f001 fdf0 	bl	5ada <__sys_write>
    3efa:	f020 4300 	bic.w	r3, r0, #2147483648	; 0x80000000
    3efe:	1af6      	subs	r6, r6, r3
    3f00:	69a3      	ldr	r3, [r4, #24]
    3f02:	441e      	add	r6, r3
    3f04:	61a6      	str	r6, [r4, #24]
    3f06:	2800      	cmp	r0, #0
    3f08:	d1e6      	bne.n	3ed8 <_Cwritebuf+0x30>
    3f0a:	e8bd 81f0 	ldmia.w	sp!, {r4, r5, r6, r7, r8, pc}
    3f0e:	bf00      	nop
    3f10:	00020010 	.word	0x00020010

00003f14 <malloc>:
    3f14:	b5f8      	push	{r3, r4, r5, r6, r7, lr}
    3f16:	4f30      	ldr	r7, [pc, #192]	; (3fd8 <malloc+0xc4>)
    3f18:	683c      	ldr	r4, [r7, #0]
    3f1a:	2800      	cmp	r0, #0
    3f1c:	d151      	bne.n	3fc2 <malloc+0xae>
    3f1e:	2000      	movs	r0, #0
    3f20:	bdf8      	pop	{r3, r4, r5, r6, r7, pc}
    3f22:	6823      	ldr	r3, [r4, #0]
    3f24:	f1b3 5f80 	cmp.w	r3, #268435456	; 0x10000000
    3f28:	d139      	bne.n	3f9e <malloc+0x8a>
    3f2a:	e9d4 3101 	ldrd	r3, r1, [r4, #4]
    3f2e:	b151      	cbz	r1, 3f46 <malloc+0x32>
    3f30:	680a      	ldr	r2, [r1, #0]
    3f32:	f1b2 5f80 	cmp.w	r2, #268435456	; 0x10000000
    3f36:	d106      	bne.n	3f46 <malloc+0x32>
    3f38:	1cda      	adds	r2, r3, #3
    3f3a:	684b      	ldr	r3, [r1, #4]
    3f3c:	441a      	add	r2, r3
    3f3e:	688b      	ldr	r3, [r1, #8]
    3f40:	6062      	str	r2, [r4, #4]
    3f42:	60a3      	str	r3, [r4, #8]
    3f44:	e7f1      	b.n	3f2a <malloc+0x16>
    3f46:	42ab      	cmp	r3, r5
    3f48:	db07      	blt.n	3f5a <malloc+0x46>
    3f4a:	459e      	cmp	lr, r3
    3f4c:	db05      	blt.n	3f5a <malloc+0x46>
    3f4e:	4620      	mov	r0, r4
    3f50:	f04f 5300 	mov.w	r3, #536870912	; 0x20000000
    3f54:	f840 3b0c 	str.w	r3, [r0], #12
    3f58:	e7e2      	b.n	3f20 <malloc+0xc>
    3f5a:	4563      	cmp	r3, ip
    3f5c:	d911      	bls.n	3f82 <malloc+0x6e>
    3f5e:	4620      	mov	r0, r4
    3f60:	f04f 5200 	mov.w	r2, #536870912	; 0x20000000
    3f64:	6065      	str	r5, [r4, #4]
    3f66:	f840 2b0c 	str.w	r2, [r0], #12
    3f6a:	1b5b      	subs	r3, r3, r5
    3f6c:	eb00 0285 	add.w	r2, r0, r5, lsl #2
    3f70:	60a2      	str	r2, [r4, #8]
    3f72:	3b03      	subs	r3, #3
    3f74:	f04f 5480 	mov.w	r4, #268435456	; 0x10000000
    3f78:	f840 4025 	str.w	r4, [r0, r5, lsl #2]
    3f7c:	e9c2 3101 	strd	r3, r1, [r2, #4]
    3f80:	e7ce      	b.n	3f20 <malloc+0xc>
    3f82:	b961      	cbnz	r1, 3f9e <malloc+0x8a>
    3f84:	eba0 0083 	sub.w	r0, r0, r3, lsl #2
    3f88:	f000 f936 	bl	41f8 <_sbrk>
    3f8c:	3001      	adds	r0, #1
    3f8e:	d0c6      	beq.n	3f1e <malloc+0xa>
    3f90:	f04f 5300 	mov.w	r3, #536870912	; 0x20000000
    3f94:	e9c4 3500 	strd	r3, r5, [r4]
    3f98:	f104 000c 	add.w	r0, r4, #12
    3f9c:	e7c0      	b.n	3f20 <malloc+0xc>
    3f9e:	4626      	mov	r6, r4
    3fa0:	68a4      	ldr	r4, [r4, #8]
    3fa2:	2c00      	cmp	r4, #0
    3fa4:	d1bd      	bne.n	3f22 <malloc+0xe>
    3fa6:	300c      	adds	r0, #12
    3fa8:	f000 f926 	bl	41f8 <_sbrk>
    3fac:	1c43      	adds	r3, r0, #1
    3fae:	d0b6      	beq.n	3f1e <malloc+0xa>
    3fb0:	f04f 5300 	mov.w	r3, #536870912	; 0x20000000
    3fb4:	e9c0 3500 	strd	r3, r5, [r0]
    3fb8:	6084      	str	r4, [r0, #8]
    3fba:	b956      	cbnz	r6, 3fd2 <malloc+0xbe>
    3fbc:	6038      	str	r0, [r7, #0]
    3fbe:	300c      	adds	r0, #12
    3fc0:	e7ae      	b.n	3f20 <malloc+0xc>
    3fc2:	1cc3      	adds	r3, r0, #3
    3fc4:	089d      	lsrs	r5, r3, #2
    3fc6:	2600      	movs	r6, #0
    3fc8:	f105 0c0a 	add.w	ip, r5, #10
    3fcc:	f105 0e03 	add.w	lr, r5, #3
    3fd0:	e7e7      	b.n	3fa2 <malloc+0x8e>
    3fd2:	60b0      	str	r0, [r6, #8]
    3fd4:	e7f3      	b.n	3fbe <malloc+0xaa>
    3fd6:	bf00      	nop
    3fd8:	20002a98 	.word	0x20002a98

00003fdc <_Csys_alloc>:
    3fdc:	b510      	push	{r4, lr}
    3fde:	f7ff ff99 	bl	3f14 <malloc>
    3fe2:	4604      	mov	r4, r0
    3fe4:	b928      	cbnz	r0, 3ff2 <_Csys_alloc+0x16>
    3fe6:	2217      	movs	r2, #23
    3fe8:	4903      	ldr	r1, [pc, #12]	; (3ff8 <_Csys_alloc+0x1c>)
    3fea:	f001 fd76 	bl	5ada <__sys_write>
    3fee:	f001 fb64 	bl	56ba <__sys_appexit>
    3ff2:	4620      	mov	r0, r4
    3ff4:	bd10      	pop	{r4, pc}
    3ff6:	bf00      	nop
    3ff8:	00006945 	.word	0x00006945

00003ffc <fseek>:
    3ffc:	e92d 43f8 	stmdb	sp!, {r3, r4, r5, r6, r7, r8, r9, lr}
    4000:	68c6      	ldr	r6, [r0, #12]
    4002:	4b3d      	ldr	r3, [pc, #244]	; (40f8 <fseek+0xfc>)
    4004:	4033      	ands	r3, r6
    4006:	4604      	mov	r4, r0
    4008:	460d      	mov	r5, r1
    400a:	4690      	mov	r8, r2
    400c:	b90b      	cbnz	r3, 4012 <fseek+0x16>
    400e:	2702      	movs	r7, #2
    4010:	e047      	b.n	40a2 <fseek+0xa6>
    4012:	f8d0 9014 	ldr.w	r9, [r0, #20]
    4016:	4648      	mov	r0, r9
    4018:	f001 fd53 	bl	5ac2 <__sys_istty>
    401c:	4607      	mov	r7, r0
    401e:	2800      	cmp	r0, #0
    4020:	d1f5      	bne.n	400e <fseek+0x12>
    4022:	f1b8 0f01 	cmp.w	r8, #1
    4026:	d02c      	beq.n	4082 <fseek+0x86>
    4028:	f1b8 0f02 	cmp.w	r8, #2
    402c:	d02e      	beq.n	408c <fseek+0x90>
    402e:	f1b8 0f00 	cmp.w	r8, #0
    4032:	d1ec      	bne.n	400e <fseek+0x12>
    4034:	2d00      	cmp	r5, #0
    4036:	dbea      	blt.n	400e <fseek+0x12>
    4038:	04b0      	lsls	r0, r6, #18
    403a:	d504      	bpl.n	4046 <fseek+0x4a>
    403c:	6823      	ldr	r3, [r4, #0]
    403e:	6ae2      	ldr	r2, [r4, #44]	; 0x2c
    4040:	429a      	cmp	r2, r3
    4042:	bf38      	it	cc
    4044:	62e3      	strcc	r3, [r4, #44]	; 0x2c
    4046:	69a1      	ldr	r1, [r4, #24]
    4048:	42a9      	cmp	r1, r5
    404a:	dc0e      	bgt.n	406a <fseek+0x6e>
    404c:	6823      	ldr	r3, [r4, #0]
    404e:	6ae2      	ldr	r2, [r4, #44]	; 0x2c
    4050:	4293      	cmp	r3, r2
    4052:	bf38      	it	cc
    4054:	4613      	movcc	r3, r2
    4056:	6922      	ldr	r2, [r4, #16]
    4058:	1858      	adds	r0, r3, r1
    405a:	1a80      	subs	r0, r0, r2
    405c:	42a8      	cmp	r0, r5
    405e:	db04      	blt.n	406a <fseek+0x6e>
    4060:	6b20      	ldr	r0, [r4, #48]	; 0x30
    4062:	eb01 0c00 	add.w	ip, r1, r0
    4066:	45ac      	cmp	ip, r5
    4068:	dc36      	bgt.n	40d8 <fseek+0xdc>
    406a:	2300      	movs	r3, #0
    406c:	e9c4 3301 	strd	r3, r3, [r4, #4]
    4070:	f046 0620 	orr.w	r6, r6, #32
    4074:	62a5      	str	r5, [r4, #40]	; 0x28
    4076:	f426 2603 	bic.w	r6, r6, #536576	; 0x83000
    407a:	f026 0640 	bic.w	r6, r6, #64	; 0x40
    407e:	60e6      	str	r6, [r4, #12]
    4080:	e00f      	b.n	40a2 <fseek+0xa6>
    4082:	4620      	mov	r0, r4
    4084:	f000 f83a 	bl	40fc <ftell>
    4088:	4405      	add	r5, r0
    408a:	e7d3      	b.n	4034 <fseek+0x38>
    408c:	4648      	mov	r0, r9
    408e:	f001 fd15 	bl	5abc <__sys_flen>
    4092:	f1b0 0c00 	subs.w	ip, r0, #0
    4096:	68e2      	ldr	r2, [r4, #12]
    4098:	da06      	bge.n	40a8 <fseek+0xac>
    409a:	f042 0280 	orr.w	r2, r2, #128	; 0x80
    409e:	60e2      	str	r2, [r4, #12]
    40a0:	2701      	movs	r7, #1
    40a2:	4638      	mov	r0, r7
    40a4:	e8bd 83f8 	ldmia.w	sp!, {r3, r4, r5, r6, r7, r8, r9, pc}
    40a8:	6ae3      	ldr	r3, [r4, #44]	; 0x2c
    40aa:	4618      	mov	r0, r3
    40ac:	69a3      	ldr	r3, [r4, #24]
    40ae:	4619      	mov	r1, r3
    40b0:	6823      	ldr	r3, [r4, #0]
    40b2:	4283      	cmp	r3, r0
    40b4:	bf2c      	ite	cs
    40b6:	18c9      	addcs	r1, r1, r3
    40b8:	1809      	addcc	r1, r1, r0
    40ba:	460b      	mov	r3, r1
    40bc:	6921      	ldr	r1, [r4, #16]
    40be:	0692      	lsls	r2, r2, #26
    40c0:	eba3 0301 	sub.w	r3, r3, r1
    40c4:	d503      	bpl.n	40ce <fseek+0xd2>
    40c6:	6aa2      	ldr	r2, [r4, #40]	; 0x28
    40c8:	4293      	cmp	r3, r2
    40ca:	bfb8      	it	lt
    40cc:	4613      	movlt	r3, r2
    40ce:	4563      	cmp	r3, ip
    40d0:	bfac      	ite	ge
    40d2:	18ed      	addge	r5, r5, r3
    40d4:	4465      	addlt	r5, ip
    40d6:	e7ad      	b.n	4034 <fseek+0x38>
    40d8:	1a6d      	subs	r5, r5, r1
    40da:	07b1      	lsls	r1, r6, #30
    40dc:	bf44      	itt	mi
    40de:	1a28      	submi	r0, r5, r0
    40e0:	60a0      	strmi	r0, [r4, #8]
    40e2:	07f1      	lsls	r1, r6, #31
    40e4:	bf44      	itt	mi
    40e6:	1a9b      	submi	r3, r3, r2
    40e8:	1aeb      	submi	r3, r5, r3
    40ea:	4415      	add	r5, r2
    40ec:	bf48      	it	mi
    40ee:	6063      	strmi	r3, [r4, #4]
    40f0:	6025      	str	r5, [r4, #0]
    40f2:	f026 0620 	bic.w	r6, r6, #32
    40f6:	e7be      	b.n	4076 <fseek+0x7a>
    40f8:	00100003 	.word	0x00100003

000040fc <ftell>:
    40fc:	68c3      	ldr	r3, [r0, #12]
    40fe:	079a      	lsls	r2, r3, #30
    4100:	d105      	bne.n	410e <ftell+0x12>
    4102:	4b0e      	ldr	r3, [pc, #56]	; (413c <ftell+0x40>)
    4104:	2221      	movs	r2, #33	; 0x21
    4106:	601a      	str	r2, [r3, #0]
    4108:	f04f 30ff 	mov.w	r0, #4294967295	; 0xffffffff
    410c:	4770      	bx	lr
    410e:	f003 0220 	and.w	r2, r3, #32
    4112:	031b      	lsls	r3, r3, #12
    4114:	d509      	bpl.n	412a <ftell+0x2e>
    4116:	b112      	cbz	r2, 411e <ftell+0x22>
    4118:	6a80      	ldr	r0, [r0, #40]	; 0x28
    411a:	3801      	subs	r0, #1
    411c:	4770      	bx	lr
    411e:	6803      	ldr	r3, [r0, #0]
    4120:	6982      	ldr	r2, [r0, #24]
    4122:	6900      	ldr	r0, [r0, #16]
    4124:	4413      	add	r3, r2
    4126:	1a18      	subs	r0, r3, r0
    4128:	e7f7      	b.n	411a <ftell+0x1e>
    412a:	b10a      	cbz	r2, 4130 <ftell+0x34>
    412c:	6a80      	ldr	r0, [r0, #40]	; 0x28
    412e:	4770      	bx	lr
    4130:	6803      	ldr	r3, [r0, #0]
    4132:	6982      	ldr	r2, [r0, #24]
    4134:	6900      	ldr	r0, [r0, #16]
    4136:	4413      	add	r3, r2
    4138:	1a18      	subs	r0, r3, r0
    413a:	4770      	bx	lr
    413c:	20002a9c 	.word	0x20002a9c

00004140 <_initio>:
    4140:	b510      	push	{r4, lr}
    4142:	4a17      	ldr	r2, [pc, #92]	; (41a0 <_initio+0x60>)
    4144:	4917      	ldr	r1, [pc, #92]	; (41a4 <_initio+0x64>)
    4146:	2000      	movs	r0, #0
    4148:	f001 fbf8 	bl	593c <_fdopen>
    414c:	f44f 7380 	mov.w	r3, #256	; 0x100
    4150:	f44f 6280 	mov.w	r2, #1024	; 0x400
    4154:	2100      	movs	r1, #0
    4156:	4812      	ldr	r0, [pc, #72]	; (41a0 <_initio+0x60>)
    4158:	f000 f82e 	bl	41b8 <setvbuf>
    415c:	4a12      	ldr	r2, [pc, #72]	; (41a8 <_initio+0x68>)
    415e:	4913      	ldr	r1, [pc, #76]	; (41ac <_initio+0x6c>)
    4160:	2001      	movs	r0, #1
    4162:	f001 fbeb 	bl	593c <_fdopen>
    4166:	f44f 7380 	mov.w	r3, #256	; 0x100
    416a:	f44f 6280 	mov.w	r2, #1024	; 0x400
    416e:	2100      	movs	r1, #0
    4170:	480d      	ldr	r0, [pc, #52]	; (41a8 <_initio+0x68>)
    4172:	f000 f821 	bl	41b8 <setvbuf>
    4176:	4b0e      	ldr	r3, [pc, #56]	; (41b0 <_initio+0x70>)
    4178:	681b      	ldr	r3, [r3, #0]
    417a:	2b02      	cmp	r3, #2
    417c:	dd0e      	ble.n	419c <_initio+0x5c>
    417e:	4a0d      	ldr	r2, [pc, #52]	; (41b4 <_initio+0x74>)
    4180:	490a      	ldr	r1, [pc, #40]	; (41ac <_initio+0x6c>)
    4182:	2002      	movs	r0, #2
    4184:	f001 fbda 	bl	593c <_fdopen>
    4188:	f44f 7380 	mov.w	r3, #256	; 0x100
    418c:	f44f 6280 	mov.w	r2, #1024	; 0x400
    4190:	2100      	movs	r1, #0
    4192:	4808      	ldr	r0, [pc, #32]	; (41b4 <_initio+0x74>)
    4194:	e8bd 4010 	ldmia.w	sp!, {r4, lr}
    4198:	f000 b80e 	b.w	41b8 <setvbuf>
    419c:	bd10      	pop	{r4, pc}
    419e:	bf00      	nop
    41a0:	200029e0 	.word	0x200029e0
    41a4:	0000695d 	.word	0x0000695d
    41a8:	20002a1c 	.word	0x20002a1c
    41ac:	0000695f 	.word	0x0000695f
    41b0:	0000692c 	.word	0x0000692c
    41b4:	20002a58 	.word	0x20002a58

000041b8 <setvbuf>:
    41b8:	b570      	push	{r4, r5, r6, lr}
    41ba:	68c4      	ldr	r4, [r0, #12]
    41bc:	07a5      	lsls	r5, r4, #30
    41be:	d00c      	beq.n	41da <setvbuf+0x22>
    41c0:	f5b2 7f00 	cmp.w	r2, #512	; 0x200
    41c4:	d005      	beq.n	41d2 <setvbuf+0x1a>
    41c6:	f5b2 6f80 	cmp.w	r2, #1024	; 0x400
    41ca:	d008      	beq.n	41de <setvbuf+0x26>
    41cc:	f5b2 7f80 	cmp.w	r2, #256	; 0x100
    41d0:	d103      	bne.n	41da <setvbuf+0x22>
    41d2:	4d08      	ldr	r5, [pc, #32]	; (41f4 <setvbuf+0x3c>)
    41d4:	1e5e      	subs	r6, r3, #1
    41d6:	42ae      	cmp	r6, r5
    41d8:	d904      	bls.n	41e4 <setvbuf+0x2c>
    41da:	2001      	movs	r0, #1
    41dc:	e008      	b.n	41f0 <setvbuf+0x38>
    41de:	f100 0124 	add.w	r1, r0, #36	; 0x24
    41e2:	2301      	movs	r3, #1
    41e4:	4314      	orrs	r4, r2
    41e6:	6101      	str	r1, [r0, #16]
    41e8:	6001      	str	r1, [r0, #0]
    41ea:	61c3      	str	r3, [r0, #28]
    41ec:	60c4      	str	r4, [r0, #12]
    41ee:	2000      	movs	r0, #0
    41f0:	bd70      	pop	{r4, r5, r6, pc}
    41f2:	bf00      	nop
    41f4:	00fffffe 	.word	0x00fffffe

000041f8 <_sbrk>:
    41f8:	b570      	push	{r4, r5, r6, lr}
    41fa:	4d0b      	ldr	r5, [pc, #44]	; (4228 <_sbrk+0x30>)
    41fc:	682b      	ldr	r3, [r5, #0]
    41fe:	b90b      	cbnz	r3, 4204 <_sbrk+0xc>
    4200:	4b0a      	ldr	r3, [pc, #40]	; (422c <_sbrk+0x34>)
    4202:	602b      	str	r3, [r5, #0]
    4204:	1cc4      	adds	r4, r0, #3
    4206:	682e      	ldr	r6, [r5, #0]
    4208:	f024 0403 	bic.w	r4, r4, #3
    420c:	4434      	add	r4, r6
    420e:	4620      	mov	r0, r4
    4210:	f000 f832 	bl	4278 <__check_heap_overflow>
    4214:	b910      	cbnz	r0, 421c <_sbrk+0x24>
    4216:	602c      	str	r4, [r5, #0]
    4218:	4630      	mov	r0, r6
    421a:	bd70      	pop	{r4, r5, r6, pc}
    421c:	4b04      	ldr	r3, [pc, #16]	; (4230 <_sbrk+0x38>)
    421e:	220c      	movs	r2, #12
    4220:	601a      	str	r2, [r3, #0]
    4222:	f04f 36ff 	mov.w	r6, #4294967295	; 0xffffffff
    4226:	e7f7      	b.n	4218 <_sbrk+0x20>
    4228:	20002a94 	.word	0x20002a94
    422c:	20002aa8 	.word	0x20002aa8
    4230:	20002a9c 	.word	0x20002a9c

00004234 <fflush>:
    4234:	b5f7      	push	{r0, r1, r2, r4, r5, r6, r7, lr}
    4236:	4604      	mov	r4, r0
    4238:	b198      	cbz	r0, 4262 <fflush+0x2e>
    423a:	b003      	add	sp, #12
    423c:	e8bd 40f0 	ldmia.w	sp!, {r4, r5, r6, r7, lr}
    4240:	f001 bbe6 	b.w	5a10 <_do_fflush>
    4244:	fb07 6004 	mla	r0, r7, r4, r6
    4248:	f001 fbe2 	bl	5a10 <_do_fflush>
    424c:	2800      	cmp	r0, #0
    424e:	bf18      	it	ne
    4250:	f04f 35ff 	movne.w	r5, #4294967295	; 0xffffffff
    4254:	3401      	adds	r4, #1
    4256:	9b01      	ldr	r3, [sp, #4]
    4258:	42a3      	cmp	r3, r4
    425a:	dcf3      	bgt.n	4244 <fflush+0x10>
    425c:	4628      	mov	r0, r5
    425e:	b003      	add	sp, #12
    4260:	bdf0      	pop	{r4, r5, r6, r7, pc}
    4262:	4b03      	ldr	r3, [pc, #12]	; (4270 <fflush+0x3c>)
    4264:	4e03      	ldr	r6, [pc, #12]	; (4274 <fflush+0x40>)
    4266:	681b      	ldr	r3, [r3, #0]
    4268:	9301      	str	r3, [sp, #4]
    426a:	4605      	mov	r5, r0
    426c:	273c      	movs	r7, #60	; 0x3c
    426e:	e7f2      	b.n	4256 <fflush+0x22>
    4270:	0000692c 	.word	0x0000692c
    4274:	200029e0 	.word	0x200029e0

00004278 <__check_heap_overflow>:
    4278:	4b04      	ldr	r3, [pc, #16]	; (428c <__check_heap_overflow+0x14>)
    427a:	b123      	cbz	r3, 4286 <__check_heap_overflow+0xe>
    427c:	4298      	cmp	r0, r3
    427e:	bf34      	ite	cc
    4280:	2000      	movcc	r0, #0
    4282:	2001      	movcs	r0, #1
    4284:	4770      	bx	lr
    4286:	4618      	mov	r0, r3
    4288:	4770      	bx	lr
    428a:	bf00      	nop
    428c:	20003aa8 	.word	0x20003aa8

00004290 <DbgConsole_Scanf>:
    4290:	b40f      	push	{r0, r1, r2, r3}
    4292:	b580      	push	{r7, lr}
    4294:	b088      	sub	sp, #32
    4296:	af00      	add	r7, sp, #0
    4298:	463b      	mov	r3, r7
    429a:	2200      	movs	r2, #0
    429c:	601a      	str	r2, [r3, #0]
    429e:	605a      	str	r2, [r3, #4]
    42a0:	609a      	str	r2, [r3, #8]
    42a2:	60da      	str	r2, [r3, #12]
    42a4:	611a      	str	r2, [r3, #16]
    42a6:	751a      	strb	r2, [r3, #20]
    42a8:	463b      	mov	r3, r7
    42aa:	2114      	movs	r1, #20
    42ac:	4618      	mov	r0, r3
    42ae:	f7fc fa01 	bl	6b4 <LOG_ReadLine>
    42b2:	f107 032c 	add.w	r3, r7, #44	; 0x2c
    42b6:	61bb      	str	r3, [r7, #24]
    42b8:	463b      	mov	r3, r7
    42ba:	69ba      	ldr	r2, [r7, #24]
    42bc:	6ab9      	ldr	r1, [r7, #40]	; 0x28
    42be:	4618      	mov	r0, r3
    42c0:	f7fc fa4c 	bl	75c <StrFormatScanf>
    42c4:	61f8      	str	r0, [r7, #28]
    42c6:	69fb      	ldr	r3, [r7, #28]
    42c8:	4618      	mov	r0, r3
    42ca:	3720      	adds	r7, #32
    42cc:	46bd      	mov	sp, r7
    42ce:	e8bd 4080 	ldmia.w	sp!, {r7, lr}
    42d2:	b004      	add	sp, #16
    42d4:	4770      	bx	lr

000042d6 <DbgConsole_RelocateLog>:
    42d6:	b580      	push	{r7, lr}
    42d8:	b086      	sub	sp, #24
    42da:	af00      	add	r7, sp, #0
    42dc:	60f8      	str	r0, [r7, #12]
    42de:	60b9      	str	r1, [r7, #8]
    42e0:	603b      	str	r3, [r7, #0]
    42e2:	4613      	mov	r3, r2
    42e4:	71fb      	strb	r3, [r7, #7]
    42e6:	2300      	movs	r3, #0
    42e8:	617b      	str	r3, [r7, #20]
    42ea:	2300      	movs	r3, #0
    42ec:	617b      	str	r3, [r7, #20]
    42ee:	e01c      	b.n	432a <DbgConsole_RelocateLog+0x54>
    42f0:	68bb      	ldr	r3, [r7, #8]
    42f2:	681b      	ldr	r3, [r3, #0]
    42f4:	3301      	adds	r3, #1
    42f6:	2b7f      	cmp	r3, #127	; 0x7f
    42f8:	d908      	bls.n	430c <DbgConsole_RelocateLog+0x36>
    42fa:	68bb      	ldr	r3, [r7, #8]
    42fc:	681b      	ldr	r3, [r3, #0]
    42fe:	4619      	mov	r1, r3
    4300:	68f8      	ldr	r0, [r7, #12]
    4302:	f7fc f9c1 	bl	688 <LOG_Push>
    4306:	68bb      	ldr	r3, [r7, #8]
    4308:	2200      	movs	r2, #0
    430a:	601a      	str	r2, [r3, #0]
    430c:	68bb      	ldr	r3, [r7, #8]
    430e:	681b      	ldr	r3, [r3, #0]
    4310:	461a      	mov	r2, r3
    4312:	68fb      	ldr	r3, [r7, #12]
    4314:	4413      	add	r3, r2
    4316:	79fa      	ldrb	r2, [r7, #7]
    4318:	701a      	strb	r2, [r3, #0]
    431a:	68bb      	ldr	r3, [r7, #8]
    431c:	681b      	ldr	r3, [r3, #0]
    431e:	1c5a      	adds	r2, r3, #1
    4320:	68bb      	ldr	r3, [r7, #8]
    4322:	601a      	str	r2, [r3, #0]
    4324:	697b      	ldr	r3, [r7, #20]
    4326:	3301      	adds	r3, #1
    4328:	617b      	str	r3, [r7, #20]
    432a:	697a      	ldr	r2, [r7, #20]
    432c:	683b      	ldr	r3, [r7, #0]
    432e:	429a      	cmp	r2, r3
    4330:	dbde      	blt.n	42f0 <DbgConsole_RelocateLog+0x1a>
    4332:	bf00      	nop
    4334:	3718      	adds	r7, #24
    4336:	46bd      	mov	sp, r7
    4338:	bd80      	pop	{r7, pc}

0000433a <UART_EnableTx>:
    433a:	b480      	push	{r7}
    433c:	b083      	sub	sp, #12
    433e:	af00      	add	r7, sp, #0
    4340:	6078      	str	r0, [r7, #4]
    4342:	460b      	mov	r3, r1
    4344:	70fb      	strb	r3, [r7, #3]
    4346:	78fb      	ldrb	r3, [r7, #3]
    4348:	2b00      	cmp	r3, #0
    434a:	d008      	beq.n	435e <UART_EnableTx+0x24>
    434c:	687b      	ldr	r3, [r7, #4]
    434e:	78db      	ldrb	r3, [r3, #3]
    4350:	b2db      	uxtb	r3, r3
    4352:	f043 0308 	orr.w	r3, r3, #8
    4356:	b2da      	uxtb	r2, r3
    4358:	687b      	ldr	r3, [r7, #4]
    435a:	70da      	strb	r2, [r3, #3]
    435c:	e007      	b.n	436e <UART_EnableTx+0x34>
    435e:	687b      	ldr	r3, [r7, #4]
    4360:	78db      	ldrb	r3, [r3, #3]
    4362:	b2db      	uxtb	r3, r3
    4364:	f023 0308 	bic.w	r3, r3, #8
    4368:	b2da      	uxtb	r2, r3
    436a:	687b      	ldr	r3, [r7, #4]
    436c:	70da      	strb	r2, [r3, #3]
    436e:	bf00      	nop
    4370:	370c      	adds	r7, #12
    4372:	46bd      	mov	sp, r7
    4374:	f85d 7b04 	ldr.w	r7, [sp], #4
    4378:	4770      	bx	lr

0000437a <UART_EnableRx>:
    437a:	b480      	push	{r7}
    437c:	b083      	sub	sp, #12
    437e:	af00      	add	r7, sp, #0
    4380:	6078      	str	r0, [r7, #4]
    4382:	460b      	mov	r3, r1
    4384:	70fb      	strb	r3, [r7, #3]
    4386:	78fb      	ldrb	r3, [r7, #3]
    4388:	2b00      	cmp	r3, #0
    438a:	d008      	beq.n	439e <UART_EnableRx+0x24>
    438c:	687b      	ldr	r3, [r7, #4]
    438e:	78db      	ldrb	r3, [r3, #3]
    4390:	b2db      	uxtb	r3, r3
    4392:	f043 0304 	orr.w	r3, r3, #4
    4396:	b2da      	uxtb	r2, r3
    4398:	687b      	ldr	r3, [r7, #4]
    439a:	70da      	strb	r2, [r3, #3]
    439c:	e007      	b.n	43ae <UART_EnableRx+0x34>
    439e:	687b      	ldr	r3, [r7, #4]
    43a0:	78db      	ldrb	r3, [r3, #3]
    43a2:	b2db      	uxtb	r3, r3
    43a4:	f023 0304 	bic.w	r3, r3, #4
    43a8:	b2da      	uxtb	r2, r3
    43aa:	687b      	ldr	r3, [r7, #4]
    43ac:	70da      	strb	r2, [r3, #3]
    43ae:	bf00      	nop
    43b0:	370c      	adds	r7, #12
    43b2:	46bd      	mov	sp, r7
    43b4:	f85d 7b04 	ldr.w	r7, [sp], #4
    43b8:	4770      	bx	lr

000043ba <LPUART_EnableTx>:
    43ba:	b480      	push	{r7}
    43bc:	b083      	sub	sp, #12
    43be:	af00      	add	r7, sp, #0
    43c0:	6078      	str	r0, [r7, #4]
    43c2:	460b      	mov	r3, r1
    43c4:	70fb      	strb	r3, [r7, #3]
    43c6:	78fb      	ldrb	r3, [r7, #3]
    43c8:	2b00      	cmp	r3, #0
    43ca:	d006      	beq.n	43da <LPUART_EnableTx+0x20>
    43cc:	687b      	ldr	r3, [r7, #4]
    43ce:	689b      	ldr	r3, [r3, #8]
    43d0:	f443 2200 	orr.w	r2, r3, #524288	; 0x80000
    43d4:	687b      	ldr	r3, [r7, #4]
    43d6:	609a      	str	r2, [r3, #8]
    43d8:	e005      	b.n	43e6 <LPUART_EnableTx+0x2c>
    43da:	687b      	ldr	r3, [r7, #4]
    43dc:	689b      	ldr	r3, [r3, #8]
    43de:	f423 2200 	bic.w	r2, r3, #524288	; 0x80000
    43e2:	687b      	ldr	r3, [r7, #4]
    43e4:	609a      	str	r2, [r3, #8]
    43e6:	bf00      	nop
    43e8:	370c      	adds	r7, #12
    43ea:	46bd      	mov	sp, r7
    43ec:	f85d 7b04 	ldr.w	r7, [sp], #4
    43f0:	4770      	bx	lr

000043f2 <LPUART_EnableRx>:
    43f2:	b480      	push	{r7}
    43f4:	b083      	sub	sp, #12
    43f6:	af00      	add	r7, sp, #0
    43f8:	6078      	str	r0, [r7, #4]
    43fa:	460b      	mov	r3, r1
    43fc:	70fb      	strb	r3, [r7, #3]
    43fe:	78fb      	ldrb	r3, [r7, #3]
    4400:	2b00      	cmp	r3, #0
    4402:	d006      	beq.n	4412 <LPUART_EnableRx+0x20>
    4404:	687b      	ldr	r3, [r7, #4]
    4406:	689b      	ldr	r3, [r3, #8]
    4408:	f443 2280 	orr.w	r2, r3, #262144	; 0x40000
    440c:	687b      	ldr	r3, [r7, #4]
    440e:	609a      	str	r2, [r3, #8]
    4410:	e005      	b.n	441e <LPUART_EnableRx+0x2c>
    4412:	687b      	ldr	r3, [r7, #4]
    4414:	689b      	ldr	r3, [r3, #8]
    4416:	f423 2280 	bic.w	r2, r3, #262144	; 0x40000
    441a:	687b      	ldr	r3, [r7, #4]
    441c:	609a      	str	r2, [r3, #8]
    441e:	bf00      	nop
    4420:	370c      	adds	r7, #12
    4422:	46bd      	mov	sp, r7
    4424:	f85d 7b04 	ldr.w	r7, [sp], #4
    4428:	4770      	bx	lr

0000442a <LOG_Init>:
    442a:	b580      	push	{r7, lr}
    442c:	b086      	sub	sp, #24
    442e:	af00      	add	r7, sp, #0
    4430:	60f8      	str	r0, [r7, #12]
    4432:	607a      	str	r2, [r7, #4]
    4434:	603b      	str	r3, [r7, #0]
    4436:	460b      	mov	r3, r1
    4438:	72fb      	strb	r3, [r7, #11]
    443a:	68fb      	ldr	r3, [r7, #12]
    443c:	613b      	str	r3, [r7, #16]
    443e:	7afb      	ldrb	r3, [r7, #11]
    4440:	753b      	strb	r3, [r7, #20]
    4442:	f107 0010 	add.w	r0, r7, #16
    4446:	2300      	movs	r3, #0
    4448:	683a      	ldr	r2, [r7, #0]
    444a:	6879      	ldr	r1, [r7, #4]
    444c:	f7fc f87a 	bl	544 <IO_Init>
    4450:	2300      	movs	r3, #0
    4452:	4618      	mov	r0, r3
    4454:	3718      	adds	r7, #24
    4456:	46bd      	mov	sp, r7
    4458:	bd80      	pop	{r7, pc}

0000445a <LOG_Pop>:
    445a:	b580      	push	{r7, lr}
    445c:	b084      	sub	sp, #16
    445e:	af00      	add	r7, sp, #0
    4460:	6078      	str	r0, [r7, #4]
    4462:	6039      	str	r1, [r7, #0]
    4464:	2300      	movs	r3, #0
    4466:	73fb      	strb	r3, [r7, #15]
    4468:	683b      	ldr	r3, [r7, #0]
    446a:	2b00      	cmp	r3, #0
    446c:	d011      	beq.n	4492 <LOG_Pop+0x38>
    446e:	687b      	ldr	r3, [r7, #4]
    4470:	2b00      	cmp	r3, #0
    4472:	d00e      	beq.n	4492 <LOG_Pop+0x38>
    4474:	2301      	movs	r3, #1
    4476:	73fb      	strb	r3, [r7, #15]
    4478:	7bfb      	ldrb	r3, [r7, #15]
    447a:	2b00      	cmp	r3, #0
    447c:	d009      	beq.n	4492 <LOG_Pop+0x38>
    447e:	2201      	movs	r2, #1
    4480:	6839      	ldr	r1, [r7, #0]
    4482:	6878      	ldr	r0, [r7, #4]
    4484:	f7fc f8bc 	bl	600 <IO_Transfer>
    4488:	4603      	mov	r3, r0
    448a:	2b00      	cmp	r3, #0
    448c:	d001      	beq.n	4492 <LOG_Pop+0x38>
    448e:	2300      	movs	r3, #0
    4490:	603b      	str	r3, [r7, #0]
    4492:	683b      	ldr	r3, [r7, #0]
    4494:	4618      	mov	r0, r3
    4496:	3710      	adds	r7, #16
    4498:	46bd      	mov	sp, r7
    449a:	bd80      	pop	{r7, pc}

0000449c <LOG_ReadOneCharacter>:
    449c:	b580      	push	{r7, lr}
    449e:	b082      	sub	sp, #8
    44a0:	af00      	add	r7, sp, #0
    44a2:	6078      	str	r0, [r7, #4]
    44a4:	2200      	movs	r2, #0
    44a6:	2101      	movs	r1, #1
    44a8:	6878      	ldr	r0, [r7, #4]
    44aa:	f7fc f8a9 	bl	600 <IO_Transfer>
    44ae:	4603      	mov	r3, r0
    44b0:	2b00      	cmp	r3, #0
    44b2:	d001      	beq.n	44b8 <LOG_ReadOneCharacter+0x1c>
    44b4:	2301      	movs	r3, #1
    44b6:	e000      	b.n	44ba <LOG_ReadOneCharacter+0x1e>
    44b8:	2300      	movs	r3, #0
    44ba:	4618      	mov	r0, r3
    44bc:	3708      	adds	r7, #8
    44be:	46bd      	mov	sp, r7
    44c0:	bd80      	pop	{r7, pc}

000044c2 <ScanIgnoreWhiteSpace>:
    44c2:	b480      	push	{r7}
    44c4:	b085      	sub	sp, #20
    44c6:	af00      	add	r7, sp, #0
    44c8:	6078      	str	r0, [r7, #4]
    44ca:	2300      	movs	r3, #0
    44cc:	73fb      	strb	r3, [r7, #15]
    44ce:	687b      	ldr	r3, [r7, #4]
    44d0:	681b      	ldr	r3, [r3, #0]
    44d2:	781b      	ldrb	r3, [r3, #0]
    44d4:	73bb      	strb	r3, [r7, #14]
    44d6:	e00b      	b.n	44f0 <ScanIgnoreWhiteSpace+0x2e>
    44d8:	7bfb      	ldrb	r3, [r7, #15]
    44da:	3301      	adds	r3, #1
    44dc:	73fb      	strb	r3, [r7, #15]
    44de:	687b      	ldr	r3, [r7, #4]
    44e0:	681b      	ldr	r3, [r3, #0]
    44e2:	1c5a      	adds	r2, r3, #1
    44e4:	687b      	ldr	r3, [r7, #4]
    44e6:	601a      	str	r2, [r3, #0]
    44e8:	687b      	ldr	r3, [r7, #4]
    44ea:	681b      	ldr	r3, [r3, #0]
    44ec:	781b      	ldrb	r3, [r3, #0]
    44ee:	73bb      	strb	r3, [r7, #14]
    44f0:	7bbb      	ldrb	r3, [r7, #14]
    44f2:	2b20      	cmp	r3, #32
    44f4:	d0f0      	beq.n	44d8 <ScanIgnoreWhiteSpace+0x16>
    44f6:	7bbb      	ldrb	r3, [r7, #14]
    44f8:	2b09      	cmp	r3, #9
    44fa:	d0ed      	beq.n	44d8 <ScanIgnoreWhiteSpace+0x16>
    44fc:	7bbb      	ldrb	r3, [r7, #14]
    44fe:	2b0a      	cmp	r3, #10
    4500:	d0ea      	beq.n	44d8 <ScanIgnoreWhiteSpace+0x16>
    4502:	7bbb      	ldrb	r3, [r7, #14]
    4504:	2b0d      	cmp	r3, #13
    4506:	d0e7      	beq.n	44d8 <ScanIgnoreWhiteSpace+0x16>
    4508:	7bbb      	ldrb	r3, [r7, #14]
    450a:	2b0b      	cmp	r3, #11
    450c:	d0e4      	beq.n	44d8 <ScanIgnoreWhiteSpace+0x16>
    450e:	7bbb      	ldrb	r3, [r7, #14]
    4510:	2b0c      	cmp	r3, #12
    4512:	d0e1      	beq.n	44d8 <ScanIgnoreWhiteSpace+0x16>
    4514:	7bfb      	ldrb	r3, [r7, #15]
    4516:	4618      	mov	r0, r3
    4518:	3714      	adds	r7, #20
    451a:	46bd      	mov	sp, r7
    451c:	f85d 7b04 	ldr.w	r7, [sp], #4
    4520:	4770      	bx	lr

00004522 <ConvertRadixNumToString>:
    4522:	b480      	push	{r7}
    4524:	b08d      	sub	sp, #52	; 0x34
    4526:	af00      	add	r7, sp, #0
    4528:	60f8      	str	r0, [r7, #12]
    452a:	60b9      	str	r1, [r7, #8]
    452c:	607a      	str	r2, [r7, #4]
    452e:	603b      	str	r3, [r7, #0]
    4530:	2300      	movs	r3, #0
    4532:	61fb      	str	r3, [r7, #28]
    4534:	68fb      	ldr	r3, [r7, #12]
    4536:	61bb      	str	r3, [r7, #24]
    4538:	69bb      	ldr	r3, [r7, #24]
    453a:	1c5a      	adds	r2, r3, #1
    453c:	61ba      	str	r2, [r7, #24]
    453e:	2200      	movs	r2, #0
    4540:	701a      	strb	r2, [r3, #0]
    4542:	687b      	ldr	r3, [r7, #4]
    4544:	2b00      	cmp	r3, #0
    4546:	d035      	beq.n	45b4 <ConvertRadixNumToString+0x92>
    4548:	68bb      	ldr	r3, [r7, #8]
    454a:	681b      	ldr	r3, [r3, #0]
    454c:	62fb      	str	r3, [r7, #44]	; 0x2c
    454e:	6afb      	ldr	r3, [r7, #44]	; 0x2c
    4550:	2b00      	cmp	r3, #0
    4552:	d12b      	bne.n	45ac <ConvertRadixNumToString+0x8a>
    4554:	69bb      	ldr	r3, [r7, #24]
    4556:	2230      	movs	r2, #48	; 0x30
    4558:	701a      	strb	r2, [r3, #0]
    455a:	69fb      	ldr	r3, [r7, #28]
    455c:	3301      	adds	r3, #1
    455e:	61fb      	str	r3, [r7, #28]
    4560:	69fb      	ldr	r3, [r7, #28]
    4562:	e062      	b.n	462a <ConvertRadixNumToString+0x108>
    4564:	6afa      	ldr	r2, [r7, #44]	; 0x2c
    4566:	683b      	ldr	r3, [r7, #0]
    4568:	fb92 f3f3 	sdiv	r3, r2, r3
    456c:	613b      	str	r3, [r7, #16]
    456e:	693b      	ldr	r3, [r7, #16]
    4570:	683a      	ldr	r2, [r7, #0]
    4572:	fb02 f303 	mul.w	r3, r2, r3
    4576:	6afa      	ldr	r2, [r7, #44]	; 0x2c
    4578:	1ad3      	subs	r3, r2, r3
    457a:	62bb      	str	r3, [r7, #40]	; 0x28
    457c:	6abb      	ldr	r3, [r7, #40]	; 0x28
    457e:	2b00      	cmp	r3, #0
    4580:	da06      	bge.n	4590 <ConvertRadixNumToString+0x6e>
    4582:	6abb      	ldr	r3, [r7, #40]	; 0x28
    4584:	623b      	str	r3, [r7, #32]
    4586:	6a3b      	ldr	r3, [r7, #32]
    4588:	f1c3 0330 	rsb	r3, r3, #48	; 0x30
    458c:	62bb      	str	r3, [r7, #40]	; 0x28
    458e:	e002      	b.n	4596 <ConvertRadixNumToString+0x74>
    4590:	6abb      	ldr	r3, [r7, #40]	; 0x28
    4592:	3330      	adds	r3, #48	; 0x30
    4594:	62bb      	str	r3, [r7, #40]	; 0x28
    4596:	693b      	ldr	r3, [r7, #16]
    4598:	62fb      	str	r3, [r7, #44]	; 0x2c
    459a:	69bb      	ldr	r3, [r7, #24]
    459c:	1c5a      	adds	r2, r3, #1
    459e:	61ba      	str	r2, [r7, #24]
    45a0:	6aba      	ldr	r2, [r7, #40]	; 0x28
    45a2:	b2d2      	uxtb	r2, r2
    45a4:	701a      	strb	r2, [r3, #0]
    45a6:	69fb      	ldr	r3, [r7, #28]
    45a8:	3301      	adds	r3, #1
    45aa:	61fb      	str	r3, [r7, #28]
    45ac:	6afb      	ldr	r3, [r7, #44]	; 0x2c
    45ae:	2b00      	cmp	r3, #0
    45b0:	d1d8      	bne.n	4564 <ConvertRadixNumToString+0x42>
    45b2:	e039      	b.n	4628 <ConvertRadixNumToString+0x106>
    45b4:	68bb      	ldr	r3, [r7, #8]
    45b6:	681b      	ldr	r3, [r3, #0]
    45b8:	627b      	str	r3, [r7, #36]	; 0x24
    45ba:	6a7b      	ldr	r3, [r7, #36]	; 0x24
    45bc:	2b00      	cmp	r3, #0
    45be:	d130      	bne.n	4622 <ConvertRadixNumToString+0x100>
    45c0:	69bb      	ldr	r3, [r7, #24]
    45c2:	2230      	movs	r2, #48	; 0x30
    45c4:	701a      	strb	r2, [r3, #0]
    45c6:	69fb      	ldr	r3, [r7, #28]
    45c8:	3301      	adds	r3, #1
    45ca:	61fb      	str	r3, [r7, #28]
    45cc:	69fb      	ldr	r3, [r7, #28]
    45ce:	e02c      	b.n	462a <ConvertRadixNumToString+0x108>
    45d0:	683b      	ldr	r3, [r7, #0]
    45d2:	6a7a      	ldr	r2, [r7, #36]	; 0x24
    45d4:	fbb2 f3f3 	udiv	r3, r2, r3
    45d8:	617b      	str	r3, [r7, #20]
    45da:	683b      	ldr	r3, [r7, #0]
    45dc:	697a      	ldr	r2, [r7, #20]
    45de:	fb02 f303 	mul.w	r3, r2, r3
    45e2:	6a7a      	ldr	r2, [r7, #36]	; 0x24
    45e4:	1ad3      	subs	r3, r2, r3
    45e6:	623b      	str	r3, [r7, #32]
    45e8:	6a3b      	ldr	r3, [r7, #32]
    45ea:	2b09      	cmp	r3, #9
    45ec:	d803      	bhi.n	45f6 <ConvertRadixNumToString+0xd4>
    45ee:	6a3b      	ldr	r3, [r7, #32]
    45f0:	3330      	adds	r3, #48	; 0x30
    45f2:	623b      	str	r3, [r7, #32]
    45f4:	e00a      	b.n	460c <ConvertRadixNumToString+0xea>
    45f6:	f897 3038 	ldrb.w	r3, [r7, #56]	; 0x38
    45fa:	2b00      	cmp	r3, #0
    45fc:	d001      	beq.n	4602 <ConvertRadixNumToString+0xe0>
    45fe:	2241      	movs	r2, #65	; 0x41
    4600:	e000      	b.n	4604 <ConvertRadixNumToString+0xe2>
    4602:	2261      	movs	r2, #97	; 0x61
    4604:	6a3b      	ldr	r3, [r7, #32]
    4606:	4413      	add	r3, r2
    4608:	3b0a      	subs	r3, #10
    460a:	623b      	str	r3, [r7, #32]
    460c:	697b      	ldr	r3, [r7, #20]
    460e:	627b      	str	r3, [r7, #36]	; 0x24
    4610:	69bb      	ldr	r3, [r7, #24]
    4612:	1c5a      	adds	r2, r3, #1
    4614:	61ba      	str	r2, [r7, #24]
    4616:	6a3a      	ldr	r2, [r7, #32]
    4618:	b2d2      	uxtb	r2, r2
    461a:	701a      	strb	r2, [r3, #0]
    461c:	69fb      	ldr	r3, [r7, #28]
    461e:	3301      	adds	r3, #1
    4620:	61fb      	str	r3, [r7, #28]
    4622:	6a7b      	ldr	r3, [r7, #36]	; 0x24
    4624:	2b00      	cmp	r3, #0
    4626:	d1d3      	bne.n	45d0 <ConvertRadixNumToString+0xae>
    4628:	69fb      	ldr	r3, [r7, #28]
    462a:	4618      	mov	r0, r3
    462c:	3734      	adds	r7, #52	; 0x34
    462e:	46bd      	mov	sp, r7
    4630:	f85d 7b04 	ldr.w	r7, [sp], #4
    4634:	4770      	bx	lr

00004636 <StrFormatPrintf>:
    4636:	b590      	push	{r4, r7, lr}
    4638:	b09d      	sub	sp, #116	; 0x74
    463a:	af02      	add	r7, sp, #8
    463c:	60f8      	str	r0, [r7, #12]
    463e:	60b9      	str	r1, [r7, #8]
    4640:	607a      	str	r2, [r7, #4]
    4642:	603b      	str	r3, [r7, #0]
    4644:	2300      	movs	r3, #0
    4646:	663b      	str	r3, [r7, #96]	; 0x60
    4648:	2300      	movs	r3, #0
    464a:	65fb      	str	r3, [r7, #92]	; 0x5c
    464c:	2300      	movs	r3, #0
    464e:	61bb      	str	r3, [r7, #24]
    4650:	2300      	movs	r3, #0
    4652:	f887 304a 	strb.w	r3, [r7, #74]	; 0x4a
    4656:	2300      	movs	r3, #0
    4658:	613b      	str	r3, [r7, #16]
    465a:	68fb      	ldr	r3, [r7, #12]
    465c:	667b      	str	r3, [r7, #100]	; 0x64
    465e:	e164      	b.n	492a <StrFormatPrintf+0x2f4>
    4660:	6c7b      	ldr	r3, [r7, #68]	; 0x44
    4662:	2b25      	cmp	r3, #37	; 0x25
    4664:	d008      	beq.n	4678 <StrFormatPrintf+0x42>
    4666:	6c7b      	ldr	r3, [r7, #68]	; 0x44
    4668:	b2da      	uxtb	r2, r3
    466a:	f107 0118 	add.w	r1, r7, #24
    466e:	683c      	ldr	r4, [r7, #0]
    4670:	2301      	movs	r3, #1
    4672:	6878      	ldr	r0, [r7, #4]
    4674:	47a0      	blx	r4
    4676:	e155      	b.n	4924 <StrFormatPrintf+0x2ee>
    4678:	2301      	movs	r3, #1
    467a:	f887 304b 	strb.w	r3, [r7, #75]	; 0x4b
    467e:	2300      	movs	r3, #0
    4680:	657b      	str	r3, [r7, #84]	; 0x54
    4682:	2300      	movs	r3, #0
    4684:	65bb      	str	r3, [r7, #88]	; 0x58
    4686:	e01b      	b.n	46c0 <StrFormatPrintf+0x8a>
    4688:	6e7b      	ldr	r3, [r7, #100]	; 0x64
    468a:	3301      	adds	r3, #1
    468c:	667b      	str	r3, [r7, #100]	; 0x64
    468e:	6e7b      	ldr	r3, [r7, #100]	; 0x64
    4690:	781b      	ldrb	r3, [r3, #0]
    4692:	647b      	str	r3, [r7, #68]	; 0x44
    4694:	6c7b      	ldr	r3, [r7, #68]	; 0x44
    4696:	2b2f      	cmp	r3, #47	; 0x2f
    4698:	dd0d      	ble.n	46b6 <StrFormatPrintf+0x80>
    469a:	6c7b      	ldr	r3, [r7, #68]	; 0x44
    469c:	2b39      	cmp	r3, #57	; 0x39
    469e:	dc0a      	bgt.n	46b6 <StrFormatPrintf+0x80>
    46a0:	6d7a      	ldr	r2, [r7, #84]	; 0x54
    46a2:	4613      	mov	r3, r2
    46a4:	009b      	lsls	r3, r3, #2
    46a6:	4413      	add	r3, r2
    46a8:	005b      	lsls	r3, r3, #1
    46aa:	461a      	mov	r2, r3
    46ac:	6c7b      	ldr	r3, [r7, #68]	; 0x44
    46ae:	4413      	add	r3, r2
    46b0:	3b30      	subs	r3, #48	; 0x30
    46b2:	657b      	str	r3, [r7, #84]	; 0x54
    46b4:	e004      	b.n	46c0 <StrFormatPrintf+0x8a>
    46b6:	6e7b      	ldr	r3, [r7, #100]	; 0x64
    46b8:	3b01      	subs	r3, #1
    46ba:	667b      	str	r3, [r7, #100]	; 0x64
    46bc:	2301      	movs	r3, #1
    46be:	65bb      	str	r3, [r7, #88]	; 0x58
    46c0:	6dbb      	ldr	r3, [r7, #88]	; 0x58
    46c2:	2b00      	cmp	r3, #0
    46c4:	d0e0      	beq.n	4688 <StrFormatPrintf+0x52>
    46c6:	2306      	movs	r3, #6
    46c8:	653b      	str	r3, [r7, #80]	; 0x50
    46ca:	6e7b      	ldr	r3, [r7, #100]	; 0x64
    46cc:	3301      	adds	r3, #1
    46ce:	667b      	str	r3, [r7, #100]	; 0x64
    46d0:	6e7b      	ldr	r3, [r7, #100]	; 0x64
    46d2:	781b      	ldrb	r3, [r3, #0]
    46d4:	2b2e      	cmp	r3, #46	; 0x2e
    46d6:	d124      	bne.n	4722 <StrFormatPrintf+0xec>
    46d8:	2300      	movs	r3, #0
    46da:	653b      	str	r3, [r7, #80]	; 0x50
    46dc:	2300      	movs	r3, #0
    46de:	65bb      	str	r3, [r7, #88]	; 0x58
    46e0:	e01b      	b.n	471a <StrFormatPrintf+0xe4>
    46e2:	6e7b      	ldr	r3, [r7, #100]	; 0x64
    46e4:	3301      	adds	r3, #1
    46e6:	667b      	str	r3, [r7, #100]	; 0x64
    46e8:	6e7b      	ldr	r3, [r7, #100]	; 0x64
    46ea:	781b      	ldrb	r3, [r3, #0]
    46ec:	647b      	str	r3, [r7, #68]	; 0x44
    46ee:	6c7b      	ldr	r3, [r7, #68]	; 0x44
    46f0:	2b2f      	cmp	r3, #47	; 0x2f
    46f2:	dd0d      	ble.n	4710 <StrFormatPrintf+0xda>
    46f4:	6c7b      	ldr	r3, [r7, #68]	; 0x44
    46f6:	2b39      	cmp	r3, #57	; 0x39
    46f8:	dc0a      	bgt.n	4710 <StrFormatPrintf+0xda>
    46fa:	6d3a      	ldr	r2, [r7, #80]	; 0x50
    46fc:	4613      	mov	r3, r2
    46fe:	009b      	lsls	r3, r3, #2
    4700:	4413      	add	r3, r2
    4702:	005b      	lsls	r3, r3, #1
    4704:	461a      	mov	r2, r3
    4706:	6c7b      	ldr	r3, [r7, #68]	; 0x44
    4708:	4413      	add	r3, r2
    470a:	3b30      	subs	r3, #48	; 0x30
    470c:	653b      	str	r3, [r7, #80]	; 0x50
    470e:	e004      	b.n	471a <StrFormatPrintf+0xe4>
    4710:	6e7b      	ldr	r3, [r7, #100]	; 0x64
    4712:	3b01      	subs	r3, #1
    4714:	667b      	str	r3, [r7, #100]	; 0x64
    4716:	2301      	movs	r3, #1
    4718:	65bb      	str	r3, [r7, #88]	; 0x58
    471a:	6dbb      	ldr	r3, [r7, #88]	; 0x58
    471c:	2b00      	cmp	r3, #0
    471e:	d0e0      	beq.n	46e2 <StrFormatPrintf+0xac>
    4720:	e002      	b.n	4728 <StrFormatPrintf+0xf2>
    4722:	6e7b      	ldr	r3, [r7, #100]	; 0x64
    4724:	3b01      	subs	r3, #1
    4726:	667b      	str	r3, [r7, #100]	; 0x64
    4728:	6e7b      	ldr	r3, [r7, #100]	; 0x64
    472a:	3301      	adds	r3, #1
    472c:	667b      	str	r3, [r7, #100]	; 0x64
    472e:	6e7b      	ldr	r3, [r7, #100]	; 0x64
    4730:	781b      	ldrb	r3, [r3, #0]
    4732:	647b      	str	r3, [r7, #68]	; 0x44
    4734:	6c7b      	ldr	r3, [r7, #68]	; 0x44
    4736:	2b64      	cmp	r3, #100	; 0x64
    4738:	d01b      	beq.n	4772 <StrFormatPrintf+0x13c>
    473a:	6c7b      	ldr	r3, [r7, #68]	; 0x44
    473c:	2b69      	cmp	r3, #105	; 0x69
    473e:	d018      	beq.n	4772 <StrFormatPrintf+0x13c>
    4740:	6c7b      	ldr	r3, [r7, #68]	; 0x44
    4742:	2b66      	cmp	r3, #102	; 0x66
    4744:	d015      	beq.n	4772 <StrFormatPrintf+0x13c>
    4746:	6c7b      	ldr	r3, [r7, #68]	; 0x44
    4748:	2b46      	cmp	r3, #70	; 0x46
    474a:	d012      	beq.n	4772 <StrFormatPrintf+0x13c>
    474c:	6c7b      	ldr	r3, [r7, #68]	; 0x44
    474e:	2b78      	cmp	r3, #120	; 0x78
    4750:	d00f      	beq.n	4772 <StrFormatPrintf+0x13c>
    4752:	6c7b      	ldr	r3, [r7, #68]	; 0x44
    4754:	2b58      	cmp	r3, #88	; 0x58
    4756:	d00c      	beq.n	4772 <StrFormatPrintf+0x13c>
    4758:	6c7b      	ldr	r3, [r7, #68]	; 0x44
    475a:	2b6f      	cmp	r3, #111	; 0x6f
    475c:	d009      	beq.n	4772 <StrFormatPrintf+0x13c>
    475e:	6c7b      	ldr	r3, [r7, #68]	; 0x44
    4760:	2b62      	cmp	r3, #98	; 0x62
    4762:	d006      	beq.n	4772 <StrFormatPrintf+0x13c>
    4764:	6c7b      	ldr	r3, [r7, #68]	; 0x44
    4766:	2b70      	cmp	r3, #112	; 0x70
    4768:	d003      	beq.n	4772 <StrFormatPrintf+0x13c>
    476a:	6c7b      	ldr	r3, [r7, #68]	; 0x44
    476c:	2b75      	cmp	r3, #117	; 0x75
    476e:	f040 8096 	bne.w	489e <StrFormatPrintf+0x268>
    4772:	6c7b      	ldr	r3, [r7, #68]	; 0x44
    4774:	2b64      	cmp	r3, #100	; 0x64
    4776:	d002      	beq.n	477e <StrFormatPrintf+0x148>
    4778:	6c7b      	ldr	r3, [r7, #68]	; 0x44
    477a:	2b69      	cmp	r3, #105	; 0x69
    477c:	d115      	bne.n	47aa <StrFormatPrintf+0x174>
    477e:	68bb      	ldr	r3, [r7, #8]
    4780:	1d1a      	adds	r2, r3, #4
    4782:	60ba      	str	r2, [r7, #8]
    4784:	681b      	ldr	r3, [r3, #0]
    4786:	617b      	str	r3, [r7, #20]
    4788:	f107 0114 	add.w	r1, r7, #20
    478c:	f107 001c 	add.w	r0, r7, #28
    4790:	f897 304b 	ldrb.w	r3, [r7, #75]	; 0x4b
    4794:	9300      	str	r3, [sp, #0]
    4796:	230a      	movs	r3, #10
    4798:	2201      	movs	r2, #1
    479a:	f7ff fec2 	bl	4522 <ConvertRadixNumToString>
    479e:	65f8      	str	r0, [r7, #92]	; 0x5c
    47a0:	f107 021c 	add.w	r2, r7, #28
    47a4:	6dfb      	ldr	r3, [r7, #92]	; 0x5c
    47a6:	4413      	add	r3, r2
    47a8:	663b      	str	r3, [r7, #96]	; 0x60
    47aa:	6c7b      	ldr	r3, [r7, #68]	; 0x44
    47ac:	2b58      	cmp	r3, #88	; 0x58
    47ae:	d002      	beq.n	47b6 <StrFormatPrintf+0x180>
    47b0:	6c7b      	ldr	r3, [r7, #68]	; 0x44
    47b2:	2b78      	cmp	r3, #120	; 0x78
    47b4:	d11b      	bne.n	47ee <StrFormatPrintf+0x1b8>
    47b6:	6c7b      	ldr	r3, [r7, #68]	; 0x44
    47b8:	2b78      	cmp	r3, #120	; 0x78
    47ba:	d102      	bne.n	47c2 <StrFormatPrintf+0x18c>
    47bc:	2300      	movs	r3, #0
    47be:	f887 304b 	strb.w	r3, [r7, #75]	; 0x4b
    47c2:	68bb      	ldr	r3, [r7, #8]
    47c4:	1d1a      	adds	r2, r3, #4
    47c6:	60ba      	str	r2, [r7, #8]
    47c8:	681b      	ldr	r3, [r3, #0]
    47ca:	613b      	str	r3, [r7, #16]
    47cc:	f107 0110 	add.w	r1, r7, #16
    47d0:	f107 001c 	add.w	r0, r7, #28
    47d4:	f897 304b 	ldrb.w	r3, [r7, #75]	; 0x4b
    47d8:	9300      	str	r3, [sp, #0]
    47da:	2310      	movs	r3, #16
    47dc:	2200      	movs	r2, #0
    47de:	f7ff fea0 	bl	4522 <ConvertRadixNumToString>
    47e2:	65f8      	str	r0, [r7, #92]	; 0x5c
    47e4:	f107 021c 	add.w	r2, r7, #28
    47e8:	6dfb      	ldr	r3, [r7, #92]	; 0x5c
    47ea:	4413      	add	r3, r2
    47ec:	663b      	str	r3, [r7, #96]	; 0x60
    47ee:	6c7b      	ldr	r3, [r7, #68]	; 0x44
    47f0:	2b6f      	cmp	r3, #111	; 0x6f
    47f2:	d008      	beq.n	4806 <StrFormatPrintf+0x1d0>
    47f4:	6c7b      	ldr	r3, [r7, #68]	; 0x44
    47f6:	2b62      	cmp	r3, #98	; 0x62
    47f8:	d005      	beq.n	4806 <StrFormatPrintf+0x1d0>
    47fa:	6c7b      	ldr	r3, [r7, #68]	; 0x44
    47fc:	2b70      	cmp	r3, #112	; 0x70
    47fe:	d002      	beq.n	4806 <StrFormatPrintf+0x1d0>
    4800:	6c7b      	ldr	r3, [r7, #68]	; 0x44
    4802:	2b75      	cmp	r3, #117	; 0x75
    4804:	d12f      	bne.n	4866 <StrFormatPrintf+0x230>
    4806:	68bb      	ldr	r3, [r7, #8]
    4808:	1d1a      	adds	r2, r3, #4
    480a:	60ba      	str	r2, [r7, #8]
    480c:	681b      	ldr	r3, [r3, #0]
    480e:	613b      	str	r3, [r7, #16]
    4810:	6c7b      	ldr	r3, [r7, #68]	; 0x44
    4812:	2b6f      	cmp	r3, #111	; 0x6f
    4814:	d103      	bne.n	481e <StrFormatPrintf+0x1e8>
    4816:	2308      	movs	r3, #8
    4818:	f887 304a 	strb.w	r3, [r7, #74]	; 0x4a
    481c:	e010      	b.n	4840 <StrFormatPrintf+0x20a>
    481e:	6c7b      	ldr	r3, [r7, #68]	; 0x44
    4820:	2b62      	cmp	r3, #98	; 0x62
    4822:	d103      	bne.n	482c <StrFormatPrintf+0x1f6>
    4824:	2302      	movs	r3, #2
    4826:	f887 304a 	strb.w	r3, [r7, #74]	; 0x4a
    482a:	e009      	b.n	4840 <StrFormatPrintf+0x20a>
    482c:	6c7b      	ldr	r3, [r7, #68]	; 0x44
    482e:	2b70      	cmp	r3, #112	; 0x70
    4830:	d103      	bne.n	483a <StrFormatPrintf+0x204>
    4832:	2310      	movs	r3, #16
    4834:	f887 304a 	strb.w	r3, [r7, #74]	; 0x4a
    4838:	e002      	b.n	4840 <StrFormatPrintf+0x20a>
    483a:	230a      	movs	r3, #10
    483c:	f887 304a 	strb.w	r3, [r7, #74]	; 0x4a
    4840:	f897 204a 	ldrb.w	r2, [r7, #74]	; 0x4a
    4844:	f107 0110 	add.w	r1, r7, #16
    4848:	f107 001c 	add.w	r0, r7, #28
    484c:	f897 304b 	ldrb.w	r3, [r7, #75]	; 0x4b
    4850:	9300      	str	r3, [sp, #0]
    4852:	4613      	mov	r3, r2
    4854:	2200      	movs	r2, #0
    4856:	f7ff fe64 	bl	4522 <ConvertRadixNumToString>
    485a:	65f8      	str	r0, [r7, #92]	; 0x5c
    485c:	f107 021c 	add.w	r2, r7, #28
    4860:	6dfb      	ldr	r3, [r7, #92]	; 0x5c
    4862:	4413      	add	r3, r2
    4864:	663b      	str	r3, [r7, #96]	; 0x60
    4866:	6dfb      	ldr	r3, [r7, #92]	; 0x5c
    4868:	6d7a      	ldr	r2, [r7, #84]	; 0x54
    486a:	1ad3      	subs	r3, r2, r3
    486c:	f107 0118 	add.w	r1, r7, #24
    4870:	683c      	ldr	r4, [r7, #0]
    4872:	2220      	movs	r2, #32
    4874:	6878      	ldr	r0, [r7, #4]
    4876:	47a0      	blx	r4
    4878:	6e3b      	ldr	r3, [r7, #96]	; 0x60
    487a:	2b00      	cmp	r3, #0
    487c:	d052      	beq.n	4924 <StrFormatPrintf+0x2ee>
    487e:	e009      	b.n	4894 <StrFormatPrintf+0x25e>
    4880:	6e3b      	ldr	r3, [r7, #96]	; 0x60
    4882:	1e5a      	subs	r2, r3, #1
    4884:	663a      	str	r2, [r7, #96]	; 0x60
    4886:	781a      	ldrb	r2, [r3, #0]
    4888:	f107 0118 	add.w	r1, r7, #24
    488c:	683c      	ldr	r4, [r7, #0]
    488e:	2301      	movs	r3, #1
    4890:	6878      	ldr	r0, [r7, #4]
    4892:	47a0      	blx	r4
    4894:	6e3b      	ldr	r3, [r7, #96]	; 0x60
    4896:	781b      	ldrb	r3, [r3, #0]
    4898:	2b00      	cmp	r3, #0
    489a:	d1f1      	bne.n	4880 <StrFormatPrintf+0x24a>
    489c:	e042      	b.n	4924 <StrFormatPrintf+0x2ee>
    489e:	6c7b      	ldr	r3, [r7, #68]	; 0x44
    48a0:	2b63      	cmp	r3, #99	; 0x63
    48a2:	d10e      	bne.n	48c2 <StrFormatPrintf+0x28c>
    48a4:	68bb      	ldr	r3, [r7, #8]
    48a6:	1d1a      	adds	r2, r3, #4
    48a8:	60ba      	str	r2, [r7, #8]
    48aa:	681b      	ldr	r3, [r3, #0]
    48ac:	b2db      	uxtb	r3, r3
    48ae:	643b      	str	r3, [r7, #64]	; 0x40
    48b0:	6c3b      	ldr	r3, [r7, #64]	; 0x40
    48b2:	b2da      	uxtb	r2, r3
    48b4:	f107 0118 	add.w	r1, r7, #24
    48b8:	683c      	ldr	r4, [r7, #0]
    48ba:	2301      	movs	r3, #1
    48bc:	6878      	ldr	r0, [r7, #4]
    48be:	47a0      	blx	r4
    48c0:	e030      	b.n	4924 <StrFormatPrintf+0x2ee>
    48c2:	6c7b      	ldr	r3, [r7, #68]	; 0x44
    48c4:	2b73      	cmp	r3, #115	; 0x73
    48c6:	d125      	bne.n	4914 <StrFormatPrintf+0x2de>
    48c8:	68bb      	ldr	r3, [r7, #8]
    48ca:	1d1a      	adds	r2, r3, #4
    48cc:	60ba      	str	r2, [r7, #8]
    48ce:	681b      	ldr	r3, [r3, #0]
    48d0:	64fb      	str	r3, [r7, #76]	; 0x4c
    48d2:	6cfb      	ldr	r3, [r7, #76]	; 0x4c
    48d4:	2b00      	cmp	r3, #0
    48d6:	d025      	beq.n	4924 <StrFormatPrintf+0x2ee>
    48d8:	6cf8      	ldr	r0, [r7, #76]	; 0x4c
    48da:	f001 f80a 	bl	58f2 <strlen>
    48de:	4603      	mov	r3, r0
    48e0:	65fb      	str	r3, [r7, #92]	; 0x5c
    48e2:	6dfb      	ldr	r3, [r7, #92]	; 0x5c
    48e4:	6d7a      	ldr	r2, [r7, #84]	; 0x54
    48e6:	1ad3      	subs	r3, r2, r3
    48e8:	f107 0118 	add.w	r1, r7, #24
    48ec:	683c      	ldr	r4, [r7, #0]
    48ee:	2220      	movs	r2, #32
    48f0:	6878      	ldr	r0, [r7, #4]
    48f2:	47a0      	blx	r4
    48f4:	e009      	b.n	490a <StrFormatPrintf+0x2d4>
    48f6:	6cfb      	ldr	r3, [r7, #76]	; 0x4c
    48f8:	1c5a      	adds	r2, r3, #1
    48fa:	64fa      	str	r2, [r7, #76]	; 0x4c
    48fc:	781a      	ldrb	r2, [r3, #0]
    48fe:	f107 0118 	add.w	r1, r7, #24
    4902:	683c      	ldr	r4, [r7, #0]
    4904:	2301      	movs	r3, #1
    4906:	6878      	ldr	r0, [r7, #4]
    4908:	47a0      	blx	r4
    490a:	6cfb      	ldr	r3, [r7, #76]	; 0x4c
    490c:	781b      	ldrb	r3, [r3, #0]
    490e:	2b00      	cmp	r3, #0
    4910:	d1f1      	bne.n	48f6 <StrFormatPrintf+0x2c0>
    4912:	e007      	b.n	4924 <StrFormatPrintf+0x2ee>
    4914:	6c7b      	ldr	r3, [r7, #68]	; 0x44
    4916:	b2da      	uxtb	r2, r3
    4918:	f107 0118 	add.w	r1, r7, #24
    491c:	683c      	ldr	r4, [r7, #0]
    491e:	2301      	movs	r3, #1
    4920:	6878      	ldr	r0, [r7, #4]
    4922:	47a0      	blx	r4
    4924:	6e7b      	ldr	r3, [r7, #100]	; 0x64
    4926:	3301      	adds	r3, #1
    4928:	667b      	str	r3, [r7, #100]	; 0x64
    492a:	6e7b      	ldr	r3, [r7, #100]	; 0x64
    492c:	781b      	ldrb	r3, [r3, #0]
    492e:	647b      	str	r3, [r7, #68]	; 0x44
    4930:	6c7b      	ldr	r3, [r7, #68]	; 0x44
    4932:	2b00      	cmp	r3, #0
    4934:	f47f ae94 	bne.w	4660 <StrFormatPrintf+0x2a>
    4938:	69bb      	ldr	r3, [r7, #24]
    493a:	4618      	mov	r0, r3
    493c:	376c      	adds	r7, #108	; 0x6c
    493e:	46bd      	mov	sp, r7
    4940:	bd90      	pop	{r4, r7, pc}

00004942 <DMA0_DMA16_IRQHandler>:
    4942:	b508      	push	{r3, lr}
    4944:	f7fb fca9 	bl	29a <ADC0_DriverIRQHandler>
    4948:	bd08      	pop	{r3, pc}

0000494a <DMA1_DMA17_IRQHandler>:
    494a:	b508      	push	{r3, lr}
    494c:	f7fb fca5 	bl	29a <ADC0_DriverIRQHandler>
    4950:	bd08      	pop	{r3, pc}

00004952 <DMA2_DMA18_IRQHandler>:
    4952:	b508      	push	{r3, lr}
    4954:	f7fb fca1 	bl	29a <ADC0_DriverIRQHandler>
    4958:	bd08      	pop	{r3, pc}

0000495a <DMA3_DMA19_IRQHandler>:
    495a:	b508      	push	{r3, lr}
    495c:	f7fb fc9d 	bl	29a <ADC0_DriverIRQHandler>
    4960:	bd08      	pop	{r3, pc}

00004962 <DMA4_DMA20_IRQHandler>:
    4962:	b508      	push	{r3, lr}
    4964:	f7fb fc99 	bl	29a <ADC0_DriverIRQHandler>
    4968:	bd08      	pop	{r3, pc}

0000496a <DMA5_DMA21_IRQHandler>:
    496a:	b508      	push	{r3, lr}
    496c:	f7fb fc95 	bl	29a <ADC0_DriverIRQHandler>
    4970:	bd08      	pop	{r3, pc}

00004972 <DMA6_DMA22_IRQHandler>:
    4972:	b508      	push	{r3, lr}
    4974:	f7fb fc91 	bl	29a <ADC0_DriverIRQHandler>
    4978:	bd08      	pop	{r3, pc}

0000497a <DMA7_DMA23_IRQHandler>:
    497a:	b508      	push	{r3, lr}
    497c:	f7fb fc8d 	bl	29a <ADC0_DriverIRQHandler>
    4980:	bd08      	pop	{r3, pc}

00004982 <DMA8_DMA24_IRQHandler>:
    4982:	b508      	push	{r3, lr}
    4984:	f7fb fc89 	bl	29a <ADC0_DriverIRQHandler>
    4988:	bd08      	pop	{r3, pc}

0000498a <DMA9_DMA25_IRQHandler>:
    498a:	b508      	push	{r3, lr}
    498c:	f7fb fc85 	bl	29a <ADC0_DriverIRQHandler>
    4990:	bd08      	pop	{r3, pc}

00004992 <DMA10_DMA26_IRQHandler>:
    4992:	b508      	push	{r3, lr}
    4994:	f7fb fc81 	bl	29a <ADC0_DriverIRQHandler>
    4998:	bd08      	pop	{r3, pc}

0000499a <DMA11_DMA27_IRQHandler>:
    499a:	b508      	push	{r3, lr}
    499c:	f7fb fc7d 	bl	29a <ADC0_DriverIRQHandler>
    49a0:	bd08      	pop	{r3, pc}

000049a2 <DMA12_DMA28_IRQHandler>:
    49a2:	b508      	push	{r3, lr}
    49a4:	f7fb fc79 	bl	29a <ADC0_DriverIRQHandler>
    49a8:	bd08      	pop	{r3, pc}

000049aa <DMA13_DMA29_IRQHandler>:
    49aa:	b508      	push	{r3, lr}
    49ac:	f7fb fc75 	bl	29a <ADC0_DriverIRQHandler>
    49b0:	bd08      	pop	{r3, pc}

000049b2 <DMA14_DMA30_IRQHandler>:
    49b2:	b508      	push	{r3, lr}
    49b4:	f7fb fc71 	bl	29a <ADC0_DriverIRQHandler>
    49b8:	bd08      	pop	{r3, pc}

000049ba <DMA15_DMA31_IRQHandler>:
    49ba:	b508      	push	{r3, lr}
    49bc:	f7fb fc6d 	bl	29a <ADC0_DriverIRQHandler>
    49c0:	bd08      	pop	{r3, pc}

000049c2 <DMA_Error_IRQHandler>:
    49c2:	b508      	push	{r3, lr}
    49c4:	f7fb fc69 	bl	29a <ADC0_DriverIRQHandler>
    49c8:	bd08      	pop	{r3, pc}

000049ca <MCM_IRQHandler>:
    49ca:	b508      	push	{r3, lr}
    49cc:	f7fb fc65 	bl	29a <ADC0_DriverIRQHandler>
    49d0:	bd08      	pop	{r3, pc}

000049d2 <FTFE_IRQHandler>:
    49d2:	b508      	push	{r3, lr}
    49d4:	f7fb fc61 	bl	29a <ADC0_DriverIRQHandler>
    49d8:	bd08      	pop	{r3, pc}

000049da <Read_Collision_IRQHandler>:
    49da:	b508      	push	{r3, lr}
    49dc:	f7fb fc5d 	bl	29a <ADC0_DriverIRQHandler>
    49e0:	bd08      	pop	{r3, pc}

000049e2 <LVD_LVW_IRQHandler>:
    49e2:	b508      	push	{r3, lr}
    49e4:	f7fb fc59 	bl	29a <ADC0_DriverIRQHandler>
    49e8:	bd08      	pop	{r3, pc}

000049ea <LLWU_IRQHandler>:
    49ea:	b508      	push	{r3, lr}
    49ec:	f7fb fc55 	bl	29a <ADC0_DriverIRQHandler>
    49f0:	bd08      	pop	{r3, pc}

000049f2 <WDOG_EWM_IRQHandler>:
    49f2:	b508      	push	{r3, lr}
    49f4:	f7fb fc51 	bl	29a <ADC0_DriverIRQHandler>
    49f8:	bd08      	pop	{r3, pc}

000049fa <RNG_IRQHandler>:
    49fa:	b508      	push	{r3, lr}
    49fc:	f7fb fc4d 	bl	29a <ADC0_DriverIRQHandler>
    4a00:	bd08      	pop	{r3, pc}

00004a02 <I2C0_IRQHandler>:
    4a02:	b508      	push	{r3, lr}
    4a04:	f7fb fc49 	bl	29a <ADC0_DriverIRQHandler>
    4a08:	bd08      	pop	{r3, pc}

00004a0a <I2C1_IRQHandler>:
    4a0a:	b508      	push	{r3, lr}
    4a0c:	f7fb fc45 	bl	29a <ADC0_DriverIRQHandler>
    4a10:	bd08      	pop	{r3, pc}

00004a12 <SPI0_IRQHandler>:
    4a12:	b508      	push	{r3, lr}
    4a14:	f7fb fc41 	bl	29a <ADC0_DriverIRQHandler>
    4a18:	bd08      	pop	{r3, pc}

00004a1a <SPI1_IRQHandler>:
    4a1a:	b508      	push	{r3, lr}
    4a1c:	f7fb fc3d 	bl	29a <ADC0_DriverIRQHandler>
    4a20:	bd08      	pop	{r3, pc}

00004a22 <I2S0_Tx_IRQHandler>:
    4a22:	b508      	push	{r3, lr}
    4a24:	f7fb fc39 	bl	29a <ADC0_DriverIRQHandler>
    4a28:	bd08      	pop	{r3, pc}

00004a2a <I2S0_Rx_IRQHandler>:
    4a2a:	b508      	push	{r3, lr}
    4a2c:	f7fb fc35 	bl	29a <ADC0_DriverIRQHandler>
    4a30:	bd08      	pop	{r3, pc}

00004a32 <Reserved46_IRQHandler>:
    4a32:	b508      	push	{r3, lr}
    4a34:	f7fb fc31 	bl	29a <ADC0_DriverIRQHandler>
    4a38:	bd08      	pop	{r3, pc}

00004a3a <UART0_RX_TX_IRQHandler>:
    4a3a:	b508      	push	{r3, lr}
    4a3c:	f000 f9ec 	bl	4e18 <UART0_RX_TX_DriverIRQHandler>
    4a40:	bd08      	pop	{r3, pc}

00004a42 <UART0_ERR_IRQHandler>:
    4a42:	b508      	push	{r3, lr}
    4a44:	f7fb fc29 	bl	29a <ADC0_DriverIRQHandler>
    4a48:	bd08      	pop	{r3, pc}

00004a4a <UART1_RX_TX_IRQHandler>:
    4a4a:	b508      	push	{r3, lr}
    4a4c:	f000 f9ec 	bl	4e28 <UART1_RX_TX_DriverIRQHandler>
    4a50:	bd08      	pop	{r3, pc}

00004a52 <UART1_ERR_IRQHandler>:
    4a52:	b508      	push	{r3, lr}
    4a54:	f7fb fc21 	bl	29a <ADC0_DriverIRQHandler>
    4a58:	bd08      	pop	{r3, pc}

00004a5a <UART2_RX_TX_IRQHandler>:
    4a5a:	b508      	push	{r3, lr}
    4a5c:	f000 f9ec 	bl	4e38 <UART2_RX_TX_DriverIRQHandler>
    4a60:	bd08      	pop	{r3, pc}

00004a62 <UART2_ERR_IRQHandler>:
    4a62:	b508      	push	{r3, lr}
    4a64:	f7fb fc19 	bl	29a <ADC0_DriverIRQHandler>
    4a68:	bd08      	pop	{r3, pc}

00004a6a <UART3_RX_TX_IRQHandler>:
    4a6a:	b508      	push	{r3, lr}
    4a6c:	f000 f9ec 	bl	4e48 <UART3_RX_TX_DriverIRQHandler>
    4a70:	bd08      	pop	{r3, pc}

00004a72 <UART3_ERR_IRQHandler>:
    4a72:	b508      	push	{r3, lr}
    4a74:	f7fb fc11 	bl	29a <ADC0_DriverIRQHandler>
    4a78:	bd08      	pop	{r3, pc}

00004a7a <ADC0_IRQHandler>:
    4a7a:	b508      	push	{r3, lr}
    4a7c:	f7fb fc0d 	bl	29a <ADC0_DriverIRQHandler>
    4a80:	bd08      	pop	{r3, pc}

00004a82 <CMP0_IRQHandler>:
    4a82:	b508      	push	{r3, lr}
    4a84:	f7fb fc09 	bl	29a <ADC0_DriverIRQHandler>
    4a88:	bd08      	pop	{r3, pc}

00004a8a <CMP1_IRQHandler>:
    4a8a:	b508      	push	{r3, lr}
    4a8c:	f7fb fc05 	bl	29a <ADC0_DriverIRQHandler>
    4a90:	bd08      	pop	{r3, pc}

00004a92 <FTM0_IRQHandler>:
    4a92:	b508      	push	{r3, lr}
    4a94:	f7fb fc01 	bl	29a <ADC0_DriverIRQHandler>
    4a98:	bd08      	pop	{r3, pc}

00004a9a <FTM1_IRQHandler>:
    4a9a:	b508      	push	{r3, lr}
    4a9c:	f7fb fbfd 	bl	29a <ADC0_DriverIRQHandler>
    4aa0:	bd08      	pop	{r3, pc}

00004aa2 <FTM2_IRQHandler>:
    4aa2:	b508      	push	{r3, lr}
    4aa4:	f7fb fbf9 	bl	29a <ADC0_DriverIRQHandler>
    4aa8:	bd08      	pop	{r3, pc}

00004aaa <CMT_IRQHandler>:
    4aaa:	b508      	push	{r3, lr}
    4aac:	f7fb fbf5 	bl	29a <ADC0_DriverIRQHandler>
    4ab0:	bd08      	pop	{r3, pc}

00004ab2 <RTC_IRQHandler>:
    4ab2:	b508      	push	{r3, lr}
    4ab4:	f7fb fbf1 	bl	29a <ADC0_DriverIRQHandler>
    4ab8:	bd08      	pop	{r3, pc}

00004aba <RTC_Seconds_IRQHandler>:
    4aba:	b508      	push	{r3, lr}
    4abc:	f7fb fbed 	bl	29a <ADC0_DriverIRQHandler>
    4ac0:	bd08      	pop	{r3, pc}

00004ac2 <PIT0_IRQHandler>:
    4ac2:	b508      	push	{r3, lr}
    4ac4:	f7fb fbe9 	bl	29a <ADC0_DriverIRQHandler>
    4ac8:	bd08      	pop	{r3, pc}

00004aca <PIT1_IRQHandler>:
    4aca:	b508      	push	{r3, lr}
    4acc:	f7fb fbe5 	bl	29a <ADC0_DriverIRQHandler>
    4ad0:	bd08      	pop	{r3, pc}

00004ad2 <PIT2_IRQHandler>:
    4ad2:	b508      	push	{r3, lr}
    4ad4:	f7fb fbe1 	bl	29a <ADC0_DriverIRQHandler>
    4ad8:	bd08      	pop	{r3, pc}

00004ada <PIT3_IRQHandler>:
    4ada:	b508      	push	{r3, lr}
    4adc:	f7fb fbdd 	bl	29a <ADC0_DriverIRQHandler>
    4ae0:	bd08      	pop	{r3, pc}

00004ae2 <PDB0_IRQHandler>:
    4ae2:	b508      	push	{r3, lr}
    4ae4:	f7fb fbd9 	bl	29a <ADC0_DriverIRQHandler>
    4ae8:	bd08      	pop	{r3, pc}

00004aea <USB0_IRQHandler>:
    4aea:	b508      	push	{r3, lr}
    4aec:	f7fb fbd5 	bl	29a <ADC0_DriverIRQHandler>
    4af0:	bd08      	pop	{r3, pc}

00004af2 <USBDCD_IRQHandler>:
    4af2:	b508      	push	{r3, lr}
    4af4:	f7fb fbd1 	bl	29a <ADC0_DriverIRQHandler>
    4af8:	bd08      	pop	{r3, pc}

00004afa <Reserved71_IRQHandler>:
    4afa:	b508      	push	{r3, lr}
    4afc:	f7fb fbcd 	bl	29a <ADC0_DriverIRQHandler>
    4b00:	bd08      	pop	{r3, pc}

00004b02 <DAC0_IRQHandler>:
    4b02:	b508      	push	{r3, lr}
    4b04:	f7fb fbc9 	bl	29a <ADC0_DriverIRQHandler>
    4b08:	bd08      	pop	{r3, pc}

00004b0a <MCG_IRQHandler>:
    4b0a:	b508      	push	{r3, lr}
    4b0c:	f7fb fbc5 	bl	29a <ADC0_DriverIRQHandler>
    4b10:	bd08      	pop	{r3, pc}

00004b12 <LPTMR0_IRQHandler>:
    4b12:	b508      	push	{r3, lr}
    4b14:	f7fb fbc1 	bl	29a <ADC0_DriverIRQHandler>
    4b18:	bd08      	pop	{r3, pc}

00004b1a <PORTA_IRQHandler>:
    4b1a:	b508      	push	{r3, lr}
    4b1c:	f7fb fbbd 	bl	29a <ADC0_DriverIRQHandler>
    4b20:	bd08      	pop	{r3, pc}

00004b22 <PORTB_IRQHandler>:
    4b22:	b508      	push	{r3, lr}
    4b24:	f7fb fbb9 	bl	29a <ADC0_DriverIRQHandler>
    4b28:	bd08      	pop	{r3, pc}

00004b2a <PORTC_IRQHandler>:
    4b2a:	b508      	push	{r3, lr}
    4b2c:	f7fb fbb5 	bl	29a <ADC0_DriverIRQHandler>
    4b30:	bd08      	pop	{r3, pc}

00004b32 <PORTD_IRQHandler>:
    4b32:	b508      	push	{r3, lr}
    4b34:	f7fb fbb1 	bl	29a <ADC0_DriverIRQHandler>
    4b38:	bd08      	pop	{r3, pc}

00004b3a <PORTE_IRQHandler>:
    4b3a:	b508      	push	{r3, lr}
    4b3c:	f7fb fbad 	bl	29a <ADC0_DriverIRQHandler>
    4b40:	bd08      	pop	{r3, pc}

00004b42 <SWI_IRQHandler>:
    4b42:	b508      	push	{r3, lr}
    4b44:	f7fb fba9 	bl	29a <ADC0_DriverIRQHandler>
    4b48:	bd08      	pop	{r3, pc}

00004b4a <SPI2_IRQHandler>:
    4b4a:	b508      	push	{r3, lr}
    4b4c:	f7fb fba5 	bl	29a <ADC0_DriverIRQHandler>
    4b50:	bd08      	pop	{r3, pc}

00004b52 <UART4_RX_TX_IRQHandler>:
    4b52:	b508      	push	{r3, lr}
    4b54:	f000 f980 	bl	4e58 <UART4_RX_TX_DriverIRQHandler>
    4b58:	bd08      	pop	{r3, pc}

00004b5a <UART4_ERR_IRQHandler>:
    4b5a:	b508      	push	{r3, lr}
    4b5c:	f7fb fb9d 	bl	29a <ADC0_DriverIRQHandler>
    4b60:	bd08      	pop	{r3, pc}

00004b62 <Reserved84_IRQHandler>:
    4b62:	b508      	push	{r3, lr}
    4b64:	f7fb fb99 	bl	29a <ADC0_DriverIRQHandler>
    4b68:	bd08      	pop	{r3, pc}

00004b6a <Reserved85_IRQHandler>:
    4b6a:	b508      	push	{r3, lr}
    4b6c:	f7fb fb95 	bl	29a <ADC0_DriverIRQHandler>
    4b70:	bd08      	pop	{r3, pc}

00004b72 <CMP2_IRQHandler>:
    4b72:	b508      	push	{r3, lr}
    4b74:	f7fb fb91 	bl	29a <ADC0_DriverIRQHandler>
    4b78:	bd08      	pop	{r3, pc}

00004b7a <FTM3_IRQHandler>:
    4b7a:	b508      	push	{r3, lr}
    4b7c:	f7fb fb8d 	bl	29a <ADC0_DriverIRQHandler>
    4b80:	bd08      	pop	{r3, pc}

00004b82 <DAC1_IRQHandler>:
    4b82:	b508      	push	{r3, lr}
    4b84:	f7fb fb89 	bl	29a <ADC0_DriverIRQHandler>
    4b88:	bd08      	pop	{r3, pc}

00004b8a <ADC1_IRQHandler>:
    4b8a:	b508      	push	{r3, lr}
    4b8c:	f7fb fb85 	bl	29a <ADC0_DriverIRQHandler>
    4b90:	bd08      	pop	{r3, pc}

00004b92 <I2C2_IRQHandler>:
    4b92:	b508      	push	{r3, lr}
    4b94:	f7fb fb81 	bl	29a <ADC0_DriverIRQHandler>
    4b98:	bd08      	pop	{r3, pc}

00004b9a <CAN0_ORed_Message_buffer_IRQHandler>:
    4b9a:	b508      	push	{r3, lr}
    4b9c:	f7fb fb7d 	bl	29a <ADC0_DriverIRQHandler>
    4ba0:	bd08      	pop	{r3, pc}

00004ba2 <CAN0_Bus_Off_IRQHandler>:
    4ba2:	b508      	push	{r3, lr}
    4ba4:	f7fb fb79 	bl	29a <ADC0_DriverIRQHandler>
    4ba8:	bd08      	pop	{r3, pc}

00004baa <CAN0_Error_IRQHandler>:
    4baa:	b508      	push	{r3, lr}
    4bac:	f7fb fb75 	bl	29a <ADC0_DriverIRQHandler>
    4bb0:	bd08      	pop	{r3, pc}

00004bb2 <CAN0_Tx_Warning_IRQHandler>:
    4bb2:	b508      	push	{r3, lr}
    4bb4:	f7fb fb71 	bl	29a <ADC0_DriverIRQHandler>
    4bb8:	bd08      	pop	{r3, pc}

00004bba <CAN0_Rx_Warning_IRQHandler>:
    4bba:	b508      	push	{r3, lr}
    4bbc:	f7fb fb6d 	bl	29a <ADC0_DriverIRQHandler>
    4bc0:	bd08      	pop	{r3, pc}

00004bc2 <CAN0_Wake_Up_IRQHandler>:
    4bc2:	b508      	push	{r3, lr}
    4bc4:	f7fb fb69 	bl	29a <ADC0_DriverIRQHandler>
    4bc8:	bd08      	pop	{r3, pc}

00004bca <SDHC_IRQHandler>:
    4bca:	b508      	push	{r3, lr}
    4bcc:	f7fb fb65 	bl	29a <ADC0_DriverIRQHandler>
    4bd0:	bd08      	pop	{r3, pc}

00004bd2 <ENET_1588_Timer_IRQHandler>:
    4bd2:	b508      	push	{r3, lr}
    4bd4:	f7fb fb61 	bl	29a <ADC0_DriverIRQHandler>
    4bd8:	bd08      	pop	{r3, pc}

00004bda <ENET_Transmit_IRQHandler>:
    4bda:	b508      	push	{r3, lr}
    4bdc:	f7fb fb5d 	bl	29a <ADC0_DriverIRQHandler>
    4be0:	bd08      	pop	{r3, pc}

00004be2 <ENET_Receive_IRQHandler>:
    4be2:	b508      	push	{r3, lr}
    4be4:	f7fb fb59 	bl	29a <ADC0_DriverIRQHandler>
    4be8:	bd08      	pop	{r3, pc}

00004bea <ENET_Error_IRQHandler>:
    4bea:	b508      	push	{r3, lr}
    4bec:	f7fb fb55 	bl	29a <ADC0_DriverIRQHandler>
    4bf0:	bd08      	pop	{r3, pc}

00004bf2 <LPUART0_IRQHandler>:
    4bf2:	b508      	push	{r3, lr}
    4bf4:	f7fc ff8a 	bl	1b0c <LPUART0_DriverIRQHandler>
    4bf8:	bd08      	pop	{r3, pc}

00004bfa <TSI0_IRQHandler>:
    4bfa:	b508      	push	{r3, lr}
    4bfc:	f7fb fb4d 	bl	29a <ADC0_DriverIRQHandler>
    4c00:	bd08      	pop	{r3, pc}

00004c02 <TPM1_IRQHandler>:
    4c02:	b508      	push	{r3, lr}
    4c04:	f7fb fb49 	bl	29a <ADC0_DriverIRQHandler>
    4c08:	bd08      	pop	{r3, pc}

00004c0a <TPM2_IRQHandler>:
    4c0a:	b508      	push	{r3, lr}
    4c0c:	f7fb fb45 	bl	29a <ADC0_DriverIRQHandler>
    4c10:	bd08      	pop	{r3, pc}

00004c12 <USBHSDCD_IRQHandler>:
    4c12:	b508      	push	{r3, lr}
    4c14:	f7fb fb41 	bl	29a <ADC0_DriverIRQHandler>
    4c18:	bd08      	pop	{r3, pc}

00004c1a <I2C3_IRQHandler>:
    4c1a:	b508      	push	{r3, lr}
    4c1c:	f7fb fb3d 	bl	29a <ADC0_DriverIRQHandler>
    4c20:	bd08      	pop	{r3, pc}

00004c22 <CMP3_IRQHandler>:
    4c22:	b508      	push	{r3, lr}
    4c24:	f7fb fb39 	bl	29a <ADC0_DriverIRQHandler>
    4c28:	bd08      	pop	{r3, pc}

00004c2a <USBHS_IRQHandler>:
    4c2a:	b508      	push	{r3, lr}
    4c2c:	f7fb fb35 	bl	29a <ADC0_DriverIRQHandler>
    4c30:	bd08      	pop	{r3, pc}

00004c32 <CAN1_ORed_Message_buffer_IRQHandler>:
    4c32:	b508      	push	{r3, lr}
    4c34:	f7fb fb31 	bl	29a <ADC0_DriverIRQHandler>
    4c38:	bd08      	pop	{r3, pc}

00004c3a <CAN1_Bus_Off_IRQHandler>:
    4c3a:	b508      	push	{r3, lr}
    4c3c:	f7fb fb2d 	bl	29a <ADC0_DriverIRQHandler>
    4c40:	bd08      	pop	{r3, pc}

00004c42 <CAN1_Error_IRQHandler>:
    4c42:	b508      	push	{r3, lr}
    4c44:	f7fb fb29 	bl	29a <ADC0_DriverIRQHandler>
    4c48:	bd08      	pop	{r3, pc}

00004c4a <CAN1_Tx_Warning_IRQHandler>:
    4c4a:	b508      	push	{r3, lr}
    4c4c:	f7fb fb25 	bl	29a <ADC0_DriverIRQHandler>
    4c50:	bd08      	pop	{r3, pc}

00004c52 <CAN1_Rx_Warning_IRQHandler>:
    4c52:	b508      	push	{r3, lr}
    4c54:	f7fb fb21 	bl	29a <ADC0_DriverIRQHandler>
    4c58:	bd08      	pop	{r3, pc}

00004c5a <CAN1_Wake_Up_IRQHandler>:
    4c5a:	b508      	push	{r3, lr}
    4c5c:	f7fb fb1d 	bl	29a <ADC0_DriverIRQHandler>
    4c60:	bd08      	pop	{r3, pc}

00004c62 <HardFault_Handler>:
    4c62:	2004      	movs	r0, #4
    4c64:	4671      	mov	r1, lr
    4c66:	4208      	tst	r0, r1
    4c68:	d002      	beq.n	4c70 <_MSP>
    4c6a:	f3ef 8009 	mrs	r0, PSP
    4c6e:	e001      	b.n	4c74 <_process>

00004c70 <_MSP>:
    4c70:	f3ef 8008 	mrs	r0, MSP

00004c74 <_process>:
    4c74:	6981      	ldr	r1, [r0, #24]
    4c76:	880a      	ldrh	r2, [r1, #0]
    4c78:	f64b 63ab 	movw	r3, #48811	; 0xbeab
    4c7c:	429a      	cmp	r2, r3
    4c7e:	d000      	beq.n	4c82 <_semihost_return>
    4c80:	e7fe      	b.n	4c80 <_process+0xc>

00004c82 <_semihost_return>:
    4c82:	3102      	adds	r1, #2
    4c84:	6181      	str	r1, [r0, #24]
    4c86:	2120      	movs	r1, #32
    4c88:	6001      	str	r1, [r0, #0]
    4c8a:	4770      	bx	lr
    4c8c:	bf00      	nop

00004c8e <OSC_SetExtRefClkConfig>:
    4c8e:	b480      	push	{r7}
    4c90:	b085      	sub	sp, #20
    4c92:	af00      	add	r7, sp, #0
    4c94:	6078      	str	r0, [r7, #4]
    4c96:	6039      	str	r1, [r7, #0]
    4c98:	687b      	ldr	r3, [r7, #4]
    4c9a:	781b      	ldrb	r3, [r3, #0]
    4c9c:	73fb      	strb	r3, [r7, #15]
    4c9e:	7bfb      	ldrb	r3, [r7, #15]
    4ca0:	f003 035f 	and.w	r3, r3, #95	; 0x5f
    4ca4:	73fb      	strb	r3, [r7, #15]
    4ca6:	683b      	ldr	r3, [r7, #0]
    4ca8:	781a      	ldrb	r2, [r3, #0]
    4caa:	7bfb      	ldrb	r3, [r7, #15]
    4cac:	4313      	orrs	r3, r2
    4cae:	73fb      	strb	r3, [r7, #15]
    4cb0:	687b      	ldr	r3, [r7, #4]
    4cb2:	7bfa      	ldrb	r2, [r7, #15]
    4cb4:	701a      	strb	r2, [r3, #0]
    4cb6:	683b      	ldr	r3, [r7, #0]
    4cb8:	785b      	ldrb	r3, [r3, #1]
    4cba:	019b      	lsls	r3, r3, #6
    4cbc:	b2da      	uxtb	r2, r3
    4cbe:	687b      	ldr	r3, [r7, #4]
    4cc0:	709a      	strb	r2, [r3, #2]
    4cc2:	bf00      	nop
    4cc4:	3714      	adds	r7, #20
    4cc6:	46bd      	mov	sp, r7
    4cc8:	f85d 7b04 	ldr.w	r7, [sp], #4
    4ccc:	4770      	bx	lr

00004cce <OSC_SetCapLoad>:
    4cce:	b480      	push	{r7}
    4cd0:	b085      	sub	sp, #20
    4cd2:	af00      	add	r7, sp, #0
    4cd4:	6078      	str	r0, [r7, #4]
    4cd6:	460b      	mov	r3, r1
    4cd8:	70fb      	strb	r3, [r7, #3]
    4cda:	687b      	ldr	r3, [r7, #4]
    4cdc:	781b      	ldrb	r3, [r3, #0]
    4cde:	73fb      	strb	r3, [r7, #15]
    4ce0:	7bfb      	ldrb	r3, [r7, #15]
    4ce2:	f023 030f 	bic.w	r3, r3, #15
    4ce6:	73fb      	strb	r3, [r7, #15]
    4ce8:	7bfa      	ldrb	r2, [r7, #15]
    4cea:	78fb      	ldrb	r3, [r7, #3]
    4cec:	4313      	orrs	r3, r2
    4cee:	73fb      	strb	r3, [r7, #15]
    4cf0:	687b      	ldr	r3, [r7, #4]
    4cf2:	7bfa      	ldrb	r2, [r7, #15]
    4cf4:	701a      	strb	r2, [r3, #0]
    4cf6:	bf00      	nop
    4cf8:	3714      	adds	r7, #20
    4cfa:	46bd      	mov	sp, r7
    4cfc:	f85d 7b04 	ldr.w	r7, [sp], #4
    4d00:	4770      	bx	lr

00004d02 <CLOCK_GetPll0RefFreq>:
    4d02:	b580      	push	{r7, lr}
    4d04:	af00      	add	r7, sp, #0
    4d06:	f7fc f8bb 	bl	e80 <CLOCK_GetMcgExtClkFreq>
    4d0a:	4603      	mov	r3, r0
    4d0c:	4618      	mov	r0, r3
    4d0e:	bd80      	pop	{r7, pc}

00004d10 <CLOCK_EnableClock>:
    4d10:	b480      	push	{r7}
    4d12:	b085      	sub	sp, #20
    4d14:	af00      	add	r7, sp, #0
    4d16:	6078      	str	r0, [r7, #4]
    4d18:	687b      	ldr	r3, [r7, #4]
    4d1a:	0c1b      	lsrs	r3, r3, #16
    4d1c:	f103 4380 	add.w	r3, r3, #1073741824	; 0x40000000
    4d20:	f503 238e 	add.w	r3, r3, #290816	; 0x47000
    4d24:	60fb      	str	r3, [r7, #12]
    4d26:	68fb      	ldr	r3, [r7, #12]
    4d28:	6819      	ldr	r1, [r3, #0]
    4d2a:	687b      	ldr	r3, [r7, #4]
    4d2c:	b29b      	uxth	r3, r3
    4d2e:	2201      	movs	r2, #1
    4d30:	409a      	lsls	r2, r3
    4d32:	68fb      	ldr	r3, [r7, #12]
    4d34:	430a      	orrs	r2, r1
    4d36:	601a      	str	r2, [r3, #0]
    4d38:	bf00      	nop
    4d3a:	3714      	adds	r7, #20
    4d3c:	46bd      	mov	sp, r7
    4d3e:	f85d 7b04 	ldr.w	r7, [sp], #4
    4d42:	4770      	bx	lr

00004d44 <LPUART_GetStatusFlags>:
    4d44:	b480      	push	{r7}
    4d46:	b085      	sub	sp, #20
    4d48:	af00      	add	r7, sp, #0
    4d4a:	6078      	str	r0, [r7, #4]
    4d4c:	687b      	ldr	r3, [r7, #4]
    4d4e:	685b      	ldr	r3, [r3, #4]
    4d50:	60fb      	str	r3, [r7, #12]
    4d52:	68fb      	ldr	r3, [r7, #12]
    4d54:	4618      	mov	r0, r3
    4d56:	3714      	adds	r7, #20
    4d58:	46bd      	mov	sp, r7
    4d5a:	f85d 7b04 	ldr.w	r7, [sp], #4
    4d5e:	4770      	bx	lr

00004d60 <CLOCK_EnableClock>:
    4d60:	b480      	push	{r7}
    4d62:	b085      	sub	sp, #20
    4d64:	af00      	add	r7, sp, #0
    4d66:	6078      	str	r0, [r7, #4]
    4d68:	687b      	ldr	r3, [r7, #4]
    4d6a:	0c1b      	lsrs	r3, r3, #16
    4d6c:	f103 4380 	add.w	r3, r3, #1073741824	; 0x40000000
    4d70:	f503 238e 	add.w	r3, r3, #290816	; 0x47000
    4d74:	60fb      	str	r3, [r7, #12]
    4d76:	68fb      	ldr	r3, [r7, #12]
    4d78:	6819      	ldr	r1, [r3, #0]
    4d7a:	687b      	ldr	r3, [r7, #4]
    4d7c:	b29b      	uxth	r3, r3
    4d7e:	2201      	movs	r2, #1
    4d80:	409a      	lsls	r2, r3
    4d82:	68fb      	ldr	r3, [r7, #12]
    4d84:	430a      	orrs	r2, r1
    4d86:	601a      	str	r2, [r3, #0]
    4d88:	bf00      	nop
    4d8a:	3714      	adds	r7, #20
    4d8c:	46bd      	mov	sp, r7
    4d8e:	f85d 7b04 	ldr.w	r7, [sp], #4
    4d92:	4770      	bx	lr

00004d94 <UART_GetStatusFlags>:
    4d94:	b480      	push	{r7}
    4d96:	b085      	sub	sp, #20
    4d98:	af00      	add	r7, sp, #0
    4d9a:	6078      	str	r0, [r7, #4]
    4d9c:	687b      	ldr	r3, [r7, #4]
    4d9e:	791b      	ldrb	r3, [r3, #4]
    4da0:	b2db      	uxtb	r3, r3
    4da2:	461a      	mov	r2, r3
    4da4:	687b      	ldr	r3, [r7, #4]
    4da6:	795b      	ldrb	r3, [r3, #5]
    4da8:	b2db      	uxtb	r3, r3
    4daa:	021b      	lsls	r3, r3, #8
    4dac:	4313      	orrs	r3, r2
    4dae:	60fb      	str	r3, [r7, #12]
    4db0:	687b      	ldr	r3, [r7, #4]
    4db2:	7b1b      	ldrb	r3, [r3, #12]
    4db4:	b2db      	uxtb	r3, r3
    4db6:	041b      	lsls	r3, r3, #16
    4db8:	68fa      	ldr	r2, [r7, #12]
    4dba:	4313      	orrs	r3, r2
    4dbc:	60fb      	str	r3, [r7, #12]
    4dbe:	687b      	ldr	r3, [r7, #4]
    4dc0:	7c9b      	ldrb	r3, [r3, #18]
    4dc2:	b2db      	uxtb	r3, r3
    4dc4:	061b      	lsls	r3, r3, #24
    4dc6:	68fa      	ldr	r2, [r7, #12]
    4dc8:	4313      	orrs	r3, r2
    4dca:	60fb      	str	r3, [r7, #12]
    4dcc:	68fb      	ldr	r3, [r7, #12]
    4dce:	4618      	mov	r0, r3
    4dd0:	3714      	adds	r7, #20
    4dd2:	46bd      	mov	sp, r7
    4dd4:	f85d 7b04 	ldr.w	r7, [sp], #4
    4dd8:	4770      	bx	lr

00004dda <UART_WriteBlocking>:
    4dda:	b480      	push	{r7}
    4ddc:	b085      	sub	sp, #20
    4dde:	af00      	add	r7, sp, #0
    4de0:	60f8      	str	r0, [r7, #12]
    4de2:	60b9      	str	r1, [r7, #8]
    4de4:	607a      	str	r2, [r7, #4]
    4de6:	e00c      	b.n	4e02 <UART_WriteBlocking+0x28>
    4de8:	bf00      	nop
    4dea:	68fb      	ldr	r3, [r7, #12]
    4dec:	791b      	ldrb	r3, [r3, #4]
    4dee:	b2db      	uxtb	r3, r3
    4df0:	b25b      	sxtb	r3, r3
    4df2:	2b00      	cmp	r3, #0
    4df4:	daf9      	bge.n	4dea <UART_WriteBlocking+0x10>
    4df6:	68bb      	ldr	r3, [r7, #8]
    4df8:	1c5a      	adds	r2, r3, #1
    4dfa:	60ba      	str	r2, [r7, #8]
    4dfc:	781a      	ldrb	r2, [r3, #0]
    4dfe:	68fb      	ldr	r3, [r7, #12]
    4e00:	71da      	strb	r2, [r3, #7]
    4e02:	687b      	ldr	r3, [r7, #4]
    4e04:	1e5a      	subs	r2, r3, #1
    4e06:	607a      	str	r2, [r7, #4]
    4e08:	2b00      	cmp	r3, #0
    4e0a:	d1ed      	bne.n	4de8 <UART_WriteBlocking+0xe>
    4e0c:	bf00      	nop
    4e0e:	3714      	adds	r7, #20
    4e10:	46bd      	mov	sp, r7
    4e12:	f85d 7b04 	ldr.w	r7, [sp], #4
    4e16:	4770      	bx	lr

00004e18 <UART0_RX_TX_DriverIRQHandler>:
    4e18:	b580      	push	{r7, lr}
    4e1a:	af00      	add	r7, sp, #0
    4e1c:	f7fd f898 	bl	1f50 <UART0_DriverIRQHandler>
    4e20:	f3bf 8f4f 	dsb	sy
    4e24:	bf00      	nop
    4e26:	bd80      	pop	{r7, pc}

00004e28 <UART1_RX_TX_DriverIRQHandler>:
    4e28:	b580      	push	{r7, lr}
    4e2a:	af00      	add	r7, sp, #0
    4e2c:	f7fd f8a4 	bl	1f78 <UART1_DriverIRQHandler>
    4e30:	f3bf 8f4f 	dsb	sy
    4e34:	bf00      	nop
    4e36:	bd80      	pop	{r7, pc}

00004e38 <UART2_RX_TX_DriverIRQHandler>:
    4e38:	b580      	push	{r7, lr}
    4e3a:	af00      	add	r7, sp, #0
    4e3c:	f7fd f8b0 	bl	1fa0 <UART2_DriverIRQHandler>
    4e40:	f3bf 8f4f 	dsb	sy
    4e44:	bf00      	nop
    4e46:	bd80      	pop	{r7, pc}

00004e48 <UART3_RX_TX_DriverIRQHandler>:
    4e48:	b580      	push	{r7, lr}
    4e4a:	af00      	add	r7, sp, #0
    4e4c:	f7fd f8bc 	bl	1fc8 <UART3_DriverIRQHandler>
    4e50:	f3bf 8f4f 	dsb	sy
    4e54:	bf00      	nop
    4e56:	bd80      	pop	{r7, pc}

00004e58 <UART4_RX_TX_DriverIRQHandler>:
    4e58:	b580      	push	{r7, lr}
    4e5a:	af00      	add	r7, sp, #0
    4e5c:	f7fd f8c8 	bl	1ff0 <UART4_DriverIRQHandler>
    4e60:	f3bf 8f4f 	dsb	sy
    4e64:	bf00      	nop
    4e66:	bd80      	pop	{r7, pc}

00004e68 <CLOCK_EnableClock>:
    4e68:	b480      	push	{r7}
    4e6a:	b085      	sub	sp, #20
    4e6c:	af00      	add	r7, sp, #0
    4e6e:	6078      	str	r0, [r7, #4]
    4e70:	687b      	ldr	r3, [r7, #4]
    4e72:	0c1b      	lsrs	r3, r3, #16
    4e74:	f103 4380 	add.w	r3, r3, #1073741824	; 0x40000000
    4e78:	f503 238e 	add.w	r3, r3, #290816	; 0x47000
    4e7c:	60fb      	str	r3, [r7, #12]
    4e7e:	68fb      	ldr	r3, [r7, #12]
    4e80:	6819      	ldr	r1, [r3, #0]
    4e82:	687b      	ldr	r3, [r7, #4]
    4e84:	b29b      	uxth	r3, r3
    4e86:	2201      	movs	r2, #1
    4e88:	409a      	lsls	r2, r3
    4e8a:	68fb      	ldr	r3, [r7, #12]
    4e8c:	430a      	orrs	r2, r1
    4e8e:	601a      	str	r2, [r3, #0]
    4e90:	bf00      	nop
    4e92:	3714      	adds	r7, #20
    4e94:	46bd      	mov	sp, r7
    4e96:	f85d 7b04 	ldr.w	r7, [sp], #4
    4e9a:	4770      	bx	lr

00004e9c <PORT_SetPinMux>:
    4e9c:	b480      	push	{r7}
    4e9e:	b085      	sub	sp, #20
    4ea0:	af00      	add	r7, sp, #0
    4ea2:	60f8      	str	r0, [r7, #12]
    4ea4:	60b9      	str	r1, [r7, #8]
    4ea6:	4613      	mov	r3, r2
    4ea8:	71fb      	strb	r3, [r7, #7]
    4eaa:	68fb      	ldr	r3, [r7, #12]
    4eac:	68ba      	ldr	r2, [r7, #8]
    4eae:	f853 3022 	ldr.w	r3, [r3, r2, lsl #2]
    4eb2:	f423 62e0 	bic.w	r2, r3, #1792	; 0x700
    4eb6:	79fb      	ldrb	r3, [r7, #7]
    4eb8:	021b      	lsls	r3, r3, #8
    4eba:	f403 63e0 	and.w	r3, r3, #1792	; 0x700
    4ebe:	ea42 0103 	orr.w	r1, r2, r3
    4ec2:	68fb      	ldr	r3, [r7, #12]
    4ec4:	68ba      	ldr	r2, [r7, #8]
    4ec6:	f843 1022 	str.w	r1, [r3, r2, lsl #2]
    4eca:	bf00      	nop
    4ecc:	3714      	adds	r7, #20
    4ece:	46bd      	mov	sp, r7
    4ed0:	f85d 7b04 	ldr.w	r7, [sp], #4
    4ed4:	4770      	bx	lr

00004ed6 <vListInitialise>:
    4ed6:	b480      	push	{r7}
    4ed8:	b083      	sub	sp, #12
    4eda:	af00      	add	r7, sp, #0
    4edc:	6078      	str	r0, [r7, #4]
    4ede:	687b      	ldr	r3, [r7, #4]
    4ee0:	f103 0208 	add.w	r2, r3, #8
    4ee4:	687b      	ldr	r3, [r7, #4]
    4ee6:	605a      	str	r2, [r3, #4]
    4ee8:	687b      	ldr	r3, [r7, #4]
    4eea:	f04f 32ff 	mov.w	r2, #4294967295	; 0xffffffff
    4eee:	609a      	str	r2, [r3, #8]
    4ef0:	687b      	ldr	r3, [r7, #4]
    4ef2:	f103 0208 	add.w	r2, r3, #8
    4ef6:	687b      	ldr	r3, [r7, #4]
    4ef8:	60da      	str	r2, [r3, #12]
    4efa:	687b      	ldr	r3, [r7, #4]
    4efc:	f103 0208 	add.w	r2, r3, #8
    4f00:	687b      	ldr	r3, [r7, #4]
    4f02:	611a      	str	r2, [r3, #16]
    4f04:	687b      	ldr	r3, [r7, #4]
    4f06:	2200      	movs	r2, #0
    4f08:	601a      	str	r2, [r3, #0]
    4f0a:	bf00      	nop
    4f0c:	370c      	adds	r7, #12
    4f0e:	46bd      	mov	sp, r7
    4f10:	f85d 7b04 	ldr.w	r7, [sp], #4
    4f14:	4770      	bx	lr

00004f16 <vListInitialiseItem>:
    4f16:	b480      	push	{r7}
    4f18:	b083      	sub	sp, #12
    4f1a:	af00      	add	r7, sp, #0
    4f1c:	6078      	str	r0, [r7, #4]
    4f1e:	687b      	ldr	r3, [r7, #4]
    4f20:	2200      	movs	r2, #0
    4f22:	611a      	str	r2, [r3, #16]
    4f24:	bf00      	nop
    4f26:	370c      	adds	r7, #12
    4f28:	46bd      	mov	sp, r7
    4f2a:	f85d 7b04 	ldr.w	r7, [sp], #4
    4f2e:	4770      	bx	lr

00004f30 <vListInsertEnd>:
    4f30:	b480      	push	{r7}
    4f32:	b085      	sub	sp, #20
    4f34:	af00      	add	r7, sp, #0
    4f36:	6078      	str	r0, [r7, #4]
    4f38:	6039      	str	r1, [r7, #0]
    4f3a:	687b      	ldr	r3, [r7, #4]
    4f3c:	685b      	ldr	r3, [r3, #4]
    4f3e:	60fb      	str	r3, [r7, #12]
    4f40:	683b      	ldr	r3, [r7, #0]
    4f42:	68fa      	ldr	r2, [r7, #12]
    4f44:	605a      	str	r2, [r3, #4]
    4f46:	68fb      	ldr	r3, [r7, #12]
    4f48:	689a      	ldr	r2, [r3, #8]
    4f4a:	683b      	ldr	r3, [r7, #0]
    4f4c:	609a      	str	r2, [r3, #8]
    4f4e:	68fb      	ldr	r3, [r7, #12]
    4f50:	689b      	ldr	r3, [r3, #8]
    4f52:	683a      	ldr	r2, [r7, #0]
    4f54:	605a      	str	r2, [r3, #4]
    4f56:	68fb      	ldr	r3, [r7, #12]
    4f58:	683a      	ldr	r2, [r7, #0]
    4f5a:	609a      	str	r2, [r3, #8]
    4f5c:	683b      	ldr	r3, [r7, #0]
    4f5e:	687a      	ldr	r2, [r7, #4]
    4f60:	611a      	str	r2, [r3, #16]
    4f62:	687b      	ldr	r3, [r7, #4]
    4f64:	681b      	ldr	r3, [r3, #0]
    4f66:	1c5a      	adds	r2, r3, #1
    4f68:	687b      	ldr	r3, [r7, #4]
    4f6a:	601a      	str	r2, [r3, #0]
    4f6c:	bf00      	nop
    4f6e:	3714      	adds	r7, #20
    4f70:	46bd      	mov	sp, r7
    4f72:	f85d 7b04 	ldr.w	r7, [sp], #4
    4f76:	4770      	bx	lr

00004f78 <vListInsert>:
    4f78:	b480      	push	{r7}
    4f7a:	b085      	sub	sp, #20
    4f7c:	af00      	add	r7, sp, #0
    4f7e:	6078      	str	r0, [r7, #4]
    4f80:	6039      	str	r1, [r7, #0]
    4f82:	683b      	ldr	r3, [r7, #0]
    4f84:	681b      	ldr	r3, [r3, #0]
    4f86:	60bb      	str	r3, [r7, #8]
    4f88:	68bb      	ldr	r3, [r7, #8]
    4f8a:	f1b3 3fff 	cmp.w	r3, #4294967295	; 0xffffffff
    4f8e:	d103      	bne.n	4f98 <vListInsert+0x20>
    4f90:	687b      	ldr	r3, [r7, #4]
    4f92:	691b      	ldr	r3, [r3, #16]
    4f94:	60fb      	str	r3, [r7, #12]
    4f96:	e00c      	b.n	4fb2 <vListInsert+0x3a>
    4f98:	687b      	ldr	r3, [r7, #4]
    4f9a:	3308      	adds	r3, #8
    4f9c:	60fb      	str	r3, [r7, #12]
    4f9e:	e002      	b.n	4fa6 <vListInsert+0x2e>
    4fa0:	68fb      	ldr	r3, [r7, #12]
    4fa2:	685b      	ldr	r3, [r3, #4]
    4fa4:	60fb      	str	r3, [r7, #12]
    4fa6:	68fb      	ldr	r3, [r7, #12]
    4fa8:	685b      	ldr	r3, [r3, #4]
    4faa:	681b      	ldr	r3, [r3, #0]
    4fac:	68ba      	ldr	r2, [r7, #8]
    4fae:	429a      	cmp	r2, r3
    4fb0:	d2f6      	bcs.n	4fa0 <vListInsert+0x28>
    4fb2:	68fb      	ldr	r3, [r7, #12]
    4fb4:	685a      	ldr	r2, [r3, #4]
    4fb6:	683b      	ldr	r3, [r7, #0]
    4fb8:	605a      	str	r2, [r3, #4]
    4fba:	683b      	ldr	r3, [r7, #0]
    4fbc:	685b      	ldr	r3, [r3, #4]
    4fbe:	683a      	ldr	r2, [r7, #0]
    4fc0:	609a      	str	r2, [r3, #8]
    4fc2:	683b      	ldr	r3, [r7, #0]
    4fc4:	68fa      	ldr	r2, [r7, #12]
    4fc6:	609a      	str	r2, [r3, #8]
    4fc8:	68fb      	ldr	r3, [r7, #12]
    4fca:	683a      	ldr	r2, [r7, #0]
    4fcc:	605a      	str	r2, [r3, #4]
    4fce:	683b      	ldr	r3, [r7, #0]
    4fd0:	687a      	ldr	r2, [r7, #4]
    4fd2:	611a      	str	r2, [r3, #16]
    4fd4:	687b      	ldr	r3, [r7, #4]
    4fd6:	681b      	ldr	r3, [r3, #0]
    4fd8:	1c5a      	adds	r2, r3, #1
    4fda:	687b      	ldr	r3, [r7, #4]
    4fdc:	601a      	str	r2, [r3, #0]
    4fde:	bf00      	nop
    4fe0:	3714      	adds	r7, #20
    4fe2:	46bd      	mov	sp, r7
    4fe4:	f85d 7b04 	ldr.w	r7, [sp], #4
    4fe8:	4770      	bx	lr

00004fea <uxListRemove>:
    4fea:	b480      	push	{r7}
    4fec:	b085      	sub	sp, #20
    4fee:	af00      	add	r7, sp, #0
    4ff0:	6078      	str	r0, [r7, #4]
    4ff2:	687b      	ldr	r3, [r7, #4]
    4ff4:	691b      	ldr	r3, [r3, #16]
    4ff6:	60fb      	str	r3, [r7, #12]
    4ff8:	687b      	ldr	r3, [r7, #4]
    4ffa:	685b      	ldr	r3, [r3, #4]
    4ffc:	687a      	ldr	r2, [r7, #4]
    4ffe:	6892      	ldr	r2, [r2, #8]
    5000:	609a      	str	r2, [r3, #8]
    5002:	687b      	ldr	r3, [r7, #4]
    5004:	689b      	ldr	r3, [r3, #8]
    5006:	687a      	ldr	r2, [r7, #4]
    5008:	6852      	ldr	r2, [r2, #4]
    500a:	605a      	str	r2, [r3, #4]
    500c:	68fb      	ldr	r3, [r7, #12]
    500e:	685b      	ldr	r3, [r3, #4]
    5010:	687a      	ldr	r2, [r7, #4]
    5012:	429a      	cmp	r2, r3
    5014:	d103      	bne.n	501e <uxListRemove+0x34>
    5016:	687b      	ldr	r3, [r7, #4]
    5018:	689a      	ldr	r2, [r3, #8]
    501a:	68fb      	ldr	r3, [r7, #12]
    501c:	605a      	str	r2, [r3, #4]
    501e:	687b      	ldr	r3, [r7, #4]
    5020:	2200      	movs	r2, #0
    5022:	611a      	str	r2, [r3, #16]
    5024:	68fb      	ldr	r3, [r7, #12]
    5026:	681b      	ldr	r3, [r3, #0]
    5028:	1e5a      	subs	r2, r3, #1
    502a:	68fb      	ldr	r3, [r7, #12]
    502c:	601a      	str	r2, [r3, #0]
    502e:	68fb      	ldr	r3, [r7, #12]
    5030:	681b      	ldr	r3, [r3, #0]
    5032:	4618      	mov	r0, r3
    5034:	3714      	adds	r7, #20
    5036:	46bd      	mov	sp, r7
    5038:	f85d 7b04 	ldr.w	r7, [sp], #4
    503c:	4770      	bx	lr

0000503e <xQueueGenericCreate>:
    503e:	b580      	push	{r7, lr}
    5040:	b08a      	sub	sp, #40	; 0x28
    5042:	af02      	add	r7, sp, #8
    5044:	60f8      	str	r0, [r7, #12]
    5046:	60b9      	str	r1, [r7, #8]
    5048:	4613      	mov	r3, r2
    504a:	71fb      	strb	r3, [r7, #7]
    504c:	68fb      	ldr	r3, [r7, #12]
    504e:	2b00      	cmp	r3, #0
    5050:	d109      	bne.n	5066 <xQueueGenericCreate+0x28>
    5052:	f04f 0320 	mov.w	r3, #32
    5056:	f383 8811 	msr	BASEPRI, r3
    505a:	f3bf 8f6f 	isb	sy
    505e:	f3bf 8f4f 	dsb	sy
    5062:	613b      	str	r3, [r7, #16]
    5064:	e7fe      	b.n	5064 <xQueueGenericCreate+0x26>
    5066:	68bb      	ldr	r3, [r7, #8]
    5068:	2b00      	cmp	r3, #0
    506a:	d102      	bne.n	5072 <xQueueGenericCreate+0x34>
    506c:	2300      	movs	r3, #0
    506e:	61fb      	str	r3, [r7, #28]
    5070:	e004      	b.n	507c <xQueueGenericCreate+0x3e>
    5072:	68fb      	ldr	r3, [r7, #12]
    5074:	68ba      	ldr	r2, [r7, #8]
    5076:	fb02 f303 	mul.w	r3, r2, r3
    507a:	61fb      	str	r3, [r7, #28]
    507c:	69fb      	ldr	r3, [r7, #28]
    507e:	3350      	adds	r3, #80	; 0x50
    5080:	4618      	mov	r0, r3
    5082:	f7fd f895 	bl	21b0 <pvPortMalloc>
    5086:	61b8      	str	r0, [r7, #24]
    5088:	69bb      	ldr	r3, [r7, #24]
    508a:	2b00      	cmp	r3, #0
    508c:	d00b      	beq.n	50a6 <xQueueGenericCreate+0x68>
    508e:	69bb      	ldr	r3, [r7, #24]
    5090:	3350      	adds	r3, #80	; 0x50
    5092:	617b      	str	r3, [r7, #20]
    5094:	79fa      	ldrb	r2, [r7, #7]
    5096:	69bb      	ldr	r3, [r7, #24]
    5098:	9300      	str	r3, [sp, #0]
    509a:	4613      	mov	r3, r2
    509c:	697a      	ldr	r2, [r7, #20]
    509e:	68b9      	ldr	r1, [r7, #8]
    50a0:	68f8      	ldr	r0, [r7, #12]
    50a2:	f000 f805 	bl	50b0 <prvInitialiseNewQueue>
    50a6:	69bb      	ldr	r3, [r7, #24]
    50a8:	4618      	mov	r0, r3
    50aa:	3720      	adds	r7, #32
    50ac:	46bd      	mov	sp, r7
    50ae:	bd80      	pop	{r7, pc}

000050b0 <prvInitialiseNewQueue>:
    50b0:	b580      	push	{r7, lr}
    50b2:	b084      	sub	sp, #16
    50b4:	af00      	add	r7, sp, #0
    50b6:	60f8      	str	r0, [r7, #12]
    50b8:	60b9      	str	r1, [r7, #8]
    50ba:	607a      	str	r2, [r7, #4]
    50bc:	70fb      	strb	r3, [r7, #3]
    50be:	68bb      	ldr	r3, [r7, #8]
    50c0:	2b00      	cmp	r3, #0
    50c2:	d103      	bne.n	50cc <prvInitialiseNewQueue+0x1c>
    50c4:	69bb      	ldr	r3, [r7, #24]
    50c6:	69ba      	ldr	r2, [r7, #24]
    50c8:	601a      	str	r2, [r3, #0]
    50ca:	e002      	b.n	50d2 <prvInitialiseNewQueue+0x22>
    50cc:	69bb      	ldr	r3, [r7, #24]
    50ce:	687a      	ldr	r2, [r7, #4]
    50d0:	601a      	str	r2, [r3, #0]
    50d2:	69bb      	ldr	r3, [r7, #24]
    50d4:	68fa      	ldr	r2, [r7, #12]
    50d6:	63da      	str	r2, [r3, #60]	; 0x3c
    50d8:	69bb      	ldr	r3, [r7, #24]
    50da:	68ba      	ldr	r2, [r7, #8]
    50dc:	641a      	str	r2, [r3, #64]	; 0x40
    50de:	2101      	movs	r1, #1
    50e0:	69b8      	ldr	r0, [r7, #24]
    50e2:	f7fd fc09 	bl	28f8 <xQueueGenericReset>
    50e6:	69bb      	ldr	r3, [r7, #24]
    50e8:	78fa      	ldrb	r2, [r7, #3]
    50ea:	f883 204c 	strb.w	r2, [r3, #76]	; 0x4c
    50ee:	bf00      	nop
    50f0:	3710      	adds	r7, #16
    50f2:	46bd      	mov	sp, r7
    50f4:	bd80      	pop	{r7, pc}

000050f6 <xQueueGenericSendFromISR>:
    50f6:	b580      	push	{r7, lr}
    50f8:	b08e      	sub	sp, #56	; 0x38
    50fa:	af00      	add	r7, sp, #0
    50fc:	60f8      	str	r0, [r7, #12]
    50fe:	60b9      	str	r1, [r7, #8]
    5100:	607a      	str	r2, [r7, #4]
    5102:	603b      	str	r3, [r7, #0]
    5104:	68fb      	ldr	r3, [r7, #12]
    5106:	633b      	str	r3, [r7, #48]	; 0x30
    5108:	6b3b      	ldr	r3, [r7, #48]	; 0x30
    510a:	2b00      	cmp	r3, #0
    510c:	d109      	bne.n	5122 <xQueueGenericSendFromISR+0x2c>
    510e:	f04f 0320 	mov.w	r3, #32
    5112:	f383 8811 	msr	BASEPRI, r3
    5116:	f3bf 8f6f 	isb	sy
    511a:	f3bf 8f4f 	dsb	sy
    511e:	627b      	str	r3, [r7, #36]	; 0x24
    5120:	e7fe      	b.n	5120 <xQueueGenericSendFromISR+0x2a>
    5122:	68bb      	ldr	r3, [r7, #8]
    5124:	2b00      	cmp	r3, #0
    5126:	d103      	bne.n	5130 <xQueueGenericSendFromISR+0x3a>
    5128:	6b3b      	ldr	r3, [r7, #48]	; 0x30
    512a:	6c1b      	ldr	r3, [r3, #64]	; 0x40
    512c:	2b00      	cmp	r3, #0
    512e:	d101      	bne.n	5134 <xQueueGenericSendFromISR+0x3e>
    5130:	2301      	movs	r3, #1
    5132:	e000      	b.n	5136 <xQueueGenericSendFromISR+0x40>
    5134:	2300      	movs	r3, #0
    5136:	2b00      	cmp	r3, #0
    5138:	d109      	bne.n	514e <xQueueGenericSendFromISR+0x58>
    513a:	f04f 0320 	mov.w	r3, #32
    513e:	f383 8811 	msr	BASEPRI, r3
    5142:	f3bf 8f6f 	isb	sy
    5146:	f3bf 8f4f 	dsb	sy
    514a:	623b      	str	r3, [r7, #32]
    514c:	e7fe      	b.n	514c <xQueueGenericSendFromISR+0x56>
    514e:	683b      	ldr	r3, [r7, #0]
    5150:	2b02      	cmp	r3, #2
    5152:	d103      	bne.n	515c <xQueueGenericSendFromISR+0x66>
    5154:	6b3b      	ldr	r3, [r7, #48]	; 0x30
    5156:	6bdb      	ldr	r3, [r3, #60]	; 0x3c
    5158:	2b01      	cmp	r3, #1
    515a:	d101      	bne.n	5160 <xQueueGenericSendFromISR+0x6a>
    515c:	2301      	movs	r3, #1
    515e:	e000      	b.n	5162 <xQueueGenericSendFromISR+0x6c>
    5160:	2300      	movs	r3, #0
    5162:	2b00      	cmp	r3, #0
    5164:	d109      	bne.n	517a <xQueueGenericSendFromISR+0x84>
    5166:	f04f 0320 	mov.w	r3, #32
    516a:	f383 8811 	msr	BASEPRI, r3
    516e:	f3bf 8f6f 	isb	sy
    5172:	f3bf 8f4f 	dsb	sy
    5176:	61fb      	str	r3, [r7, #28]
    5178:	e7fe      	b.n	5178 <xQueueGenericSendFromISR+0x82>
    517a:	f7fd fb7f 	bl	287c <vPortValidateInterruptPriority>
    517e:	f3ef 8211 	mrs	r2, BASEPRI
    5182:	f04f 0320 	mov.w	r3, #32
    5186:	f383 8811 	msr	BASEPRI, r3
    518a:	f3bf 8f6f 	isb	sy
    518e:	f3bf 8f4f 	dsb	sy
    5192:	61ba      	str	r2, [r7, #24]
    5194:	617b      	str	r3, [r7, #20]
    5196:	69bb      	ldr	r3, [r7, #24]
    5198:	62fb      	str	r3, [r7, #44]	; 0x2c
    519a:	6b3b      	ldr	r3, [r7, #48]	; 0x30
    519c:	6b9a      	ldr	r2, [r3, #56]	; 0x38
    519e:	6b3b      	ldr	r3, [r7, #48]	; 0x30
    51a0:	6bdb      	ldr	r3, [r3, #60]	; 0x3c
    51a2:	429a      	cmp	r2, r3
    51a4:	d302      	bcc.n	51ac <xQueueGenericSendFromISR+0xb6>
    51a6:	683b      	ldr	r3, [r7, #0]
    51a8:	2b02      	cmp	r3, #2
    51aa:	d12c      	bne.n	5206 <xQueueGenericSendFromISR+0x110>
    51ac:	6b3b      	ldr	r3, [r7, #48]	; 0x30
    51ae:	f893 3045 	ldrb.w	r3, [r3, #69]	; 0x45
    51b2:	f887 302b 	strb.w	r3, [r7, #43]	; 0x2b
    51b6:	683a      	ldr	r2, [r7, #0]
    51b8:	68b9      	ldr	r1, [r7, #8]
    51ba:	6b38      	ldr	r0, [r7, #48]	; 0x30
    51bc:	f000 f82f 	bl	521e <prvCopyDataToQueue>
    51c0:	f997 302b 	ldrsb.w	r3, [r7, #43]	; 0x2b
    51c4:	f1b3 3fff 	cmp.w	r3, #4294967295	; 0xffffffff
    51c8:	d112      	bne.n	51f0 <xQueueGenericSendFromISR+0xfa>
    51ca:	6b3b      	ldr	r3, [r7, #48]	; 0x30
    51cc:	6a5b      	ldr	r3, [r3, #36]	; 0x24
    51ce:	2b00      	cmp	r3, #0
    51d0:	d016      	beq.n	5200 <xQueueGenericSendFromISR+0x10a>
    51d2:	6b3b      	ldr	r3, [r7, #48]	; 0x30
    51d4:	3324      	adds	r3, #36	; 0x24
    51d6:	4618      	mov	r0, r3
    51d8:	f7fe f8bc 	bl	3354 <xTaskRemoveFromEventList>
    51dc:	4603      	mov	r3, r0
    51de:	2b00      	cmp	r3, #0
    51e0:	d00e      	beq.n	5200 <xQueueGenericSendFromISR+0x10a>
    51e2:	687b      	ldr	r3, [r7, #4]
    51e4:	2b00      	cmp	r3, #0
    51e6:	d00b      	beq.n	5200 <xQueueGenericSendFromISR+0x10a>
    51e8:	687b      	ldr	r3, [r7, #4]
    51ea:	2201      	movs	r2, #1
    51ec:	601a      	str	r2, [r3, #0]
    51ee:	e007      	b.n	5200 <xQueueGenericSendFromISR+0x10a>
    51f0:	f897 302b 	ldrb.w	r3, [r7, #43]	; 0x2b
    51f4:	3301      	adds	r3, #1
    51f6:	b2db      	uxtb	r3, r3
    51f8:	b25a      	sxtb	r2, r3
    51fa:	6b3b      	ldr	r3, [r7, #48]	; 0x30
    51fc:	f883 2045 	strb.w	r2, [r3, #69]	; 0x45
    5200:	2301      	movs	r3, #1
    5202:	637b      	str	r3, [r7, #52]	; 0x34
    5204:	e001      	b.n	520a <xQueueGenericSendFromISR+0x114>
    5206:	2300      	movs	r3, #0
    5208:	637b      	str	r3, [r7, #52]	; 0x34
    520a:	6afb      	ldr	r3, [r7, #44]	; 0x2c
    520c:	613b      	str	r3, [r7, #16]
    520e:	693b      	ldr	r3, [r7, #16]
    5210:	f383 8811 	msr	BASEPRI, r3
    5214:	6b7b      	ldr	r3, [r7, #52]	; 0x34
    5216:	4618      	mov	r0, r3
    5218:	3738      	adds	r7, #56	; 0x38
    521a:	46bd      	mov	sp, r7
    521c:	bd80      	pop	{r7, pc}

0000521e <prvCopyDataToQueue>:
    521e:	b580      	push	{r7, lr}
    5220:	b086      	sub	sp, #24
    5222:	af00      	add	r7, sp, #0
    5224:	60f8      	str	r0, [r7, #12]
    5226:	60b9      	str	r1, [r7, #8]
    5228:	607a      	str	r2, [r7, #4]
    522a:	2300      	movs	r3, #0
    522c:	617b      	str	r3, [r7, #20]
    522e:	68fb      	ldr	r3, [r7, #12]
    5230:	6b9b      	ldr	r3, [r3, #56]	; 0x38
    5232:	613b      	str	r3, [r7, #16]
    5234:	68fb      	ldr	r3, [r7, #12]
    5236:	6c1b      	ldr	r3, [r3, #64]	; 0x40
    5238:	2b00      	cmp	r3, #0
    523a:	d10d      	bne.n	5258 <prvCopyDataToQueue+0x3a>
    523c:	68fb      	ldr	r3, [r7, #12]
    523e:	681b      	ldr	r3, [r3, #0]
    5240:	2b00      	cmp	r3, #0
    5242:	d14d      	bne.n	52e0 <prvCopyDataToQueue+0xc2>
    5244:	68fb      	ldr	r3, [r7, #12]
    5246:	685b      	ldr	r3, [r3, #4]
    5248:	4618      	mov	r0, r3
    524a:	f7fe fa2f 	bl	36ac <xTaskPriorityDisinherit>
    524e:	6178      	str	r0, [r7, #20]
    5250:	68fb      	ldr	r3, [r7, #12]
    5252:	2200      	movs	r2, #0
    5254:	605a      	str	r2, [r3, #4]
    5256:	e043      	b.n	52e0 <prvCopyDataToQueue+0xc2>
    5258:	687b      	ldr	r3, [r7, #4]
    525a:	2b00      	cmp	r3, #0
    525c:	d119      	bne.n	5292 <prvCopyDataToQueue+0x74>
    525e:	68fb      	ldr	r3, [r7, #12]
    5260:	6898      	ldr	r0, [r3, #8]
    5262:	68fb      	ldr	r3, [r7, #12]
    5264:	6c1b      	ldr	r3, [r3, #64]	; 0x40
    5266:	461a      	mov	r2, r3
    5268:	68b9      	ldr	r1, [r7, #8]
    526a:	f000 fa27 	bl	56bc <memcpy>
    526e:	68fb      	ldr	r3, [r7, #12]
    5270:	689a      	ldr	r2, [r3, #8]
    5272:	68fb      	ldr	r3, [r7, #12]
    5274:	6c1b      	ldr	r3, [r3, #64]	; 0x40
    5276:	441a      	add	r2, r3
    5278:	68fb      	ldr	r3, [r7, #12]
    527a:	609a      	str	r2, [r3, #8]
    527c:	68fb      	ldr	r3, [r7, #12]
    527e:	689a      	ldr	r2, [r3, #8]
    5280:	68fb      	ldr	r3, [r7, #12]
    5282:	685b      	ldr	r3, [r3, #4]
    5284:	429a      	cmp	r2, r3
    5286:	d32b      	bcc.n	52e0 <prvCopyDataToQueue+0xc2>
    5288:	68fb      	ldr	r3, [r7, #12]
    528a:	681a      	ldr	r2, [r3, #0]
    528c:	68fb      	ldr	r3, [r7, #12]
    528e:	609a      	str	r2, [r3, #8]
    5290:	e026      	b.n	52e0 <prvCopyDataToQueue+0xc2>
    5292:	68fb      	ldr	r3, [r7, #12]
    5294:	68d8      	ldr	r0, [r3, #12]
    5296:	68fb      	ldr	r3, [r7, #12]
    5298:	6c1b      	ldr	r3, [r3, #64]	; 0x40
    529a:	461a      	mov	r2, r3
    529c:	68b9      	ldr	r1, [r7, #8]
    529e:	f000 fa0d 	bl	56bc <memcpy>
    52a2:	68fb      	ldr	r3, [r7, #12]
    52a4:	68da      	ldr	r2, [r3, #12]
    52a6:	68fb      	ldr	r3, [r7, #12]
    52a8:	6c1b      	ldr	r3, [r3, #64]	; 0x40
    52aa:	425b      	negs	r3, r3
    52ac:	441a      	add	r2, r3
    52ae:	68fb      	ldr	r3, [r7, #12]
    52b0:	60da      	str	r2, [r3, #12]
    52b2:	68fb      	ldr	r3, [r7, #12]
    52b4:	68da      	ldr	r2, [r3, #12]
    52b6:	68fb      	ldr	r3, [r7, #12]
    52b8:	681b      	ldr	r3, [r3, #0]
    52ba:	429a      	cmp	r2, r3
    52bc:	d207      	bcs.n	52ce <prvCopyDataToQueue+0xb0>
    52be:	68fb      	ldr	r3, [r7, #12]
    52c0:	685a      	ldr	r2, [r3, #4]
    52c2:	68fb      	ldr	r3, [r7, #12]
    52c4:	6c1b      	ldr	r3, [r3, #64]	; 0x40
    52c6:	425b      	negs	r3, r3
    52c8:	441a      	add	r2, r3
    52ca:	68fb      	ldr	r3, [r7, #12]
    52cc:	60da      	str	r2, [r3, #12]
    52ce:	687b      	ldr	r3, [r7, #4]
    52d0:	2b02      	cmp	r3, #2
    52d2:	d105      	bne.n	52e0 <prvCopyDataToQueue+0xc2>
    52d4:	693b      	ldr	r3, [r7, #16]
    52d6:	2b00      	cmp	r3, #0
    52d8:	d002      	beq.n	52e0 <prvCopyDataToQueue+0xc2>
    52da:	693b      	ldr	r3, [r7, #16]
    52dc:	3b01      	subs	r3, #1
    52de:	613b      	str	r3, [r7, #16]
    52e0:	693b      	ldr	r3, [r7, #16]
    52e2:	1c5a      	adds	r2, r3, #1
    52e4:	68fb      	ldr	r3, [r7, #12]
    52e6:	639a      	str	r2, [r3, #56]	; 0x38
    52e8:	697b      	ldr	r3, [r7, #20]
    52ea:	4618      	mov	r0, r3
    52ec:	3718      	adds	r7, #24
    52ee:	46bd      	mov	sp, r7
    52f0:	bd80      	pop	{r7, pc}

000052f2 <prvCopyDataFromQueue>:
    52f2:	b580      	push	{r7, lr}
    52f4:	b082      	sub	sp, #8
    52f6:	af00      	add	r7, sp, #0
    52f8:	6078      	str	r0, [r7, #4]
    52fa:	6039      	str	r1, [r7, #0]
    52fc:	687b      	ldr	r3, [r7, #4]
    52fe:	6c1b      	ldr	r3, [r3, #64]	; 0x40
    5300:	2b00      	cmp	r3, #0
    5302:	d018      	beq.n	5336 <prvCopyDataFromQueue+0x44>
    5304:	687b      	ldr	r3, [r7, #4]
    5306:	68da      	ldr	r2, [r3, #12]
    5308:	687b      	ldr	r3, [r7, #4]
    530a:	6c1b      	ldr	r3, [r3, #64]	; 0x40
    530c:	441a      	add	r2, r3
    530e:	687b      	ldr	r3, [r7, #4]
    5310:	60da      	str	r2, [r3, #12]
    5312:	687b      	ldr	r3, [r7, #4]
    5314:	68da      	ldr	r2, [r3, #12]
    5316:	687b      	ldr	r3, [r7, #4]
    5318:	685b      	ldr	r3, [r3, #4]
    531a:	429a      	cmp	r2, r3
    531c:	d303      	bcc.n	5326 <prvCopyDataFromQueue+0x34>
    531e:	687b      	ldr	r3, [r7, #4]
    5320:	681a      	ldr	r2, [r3, #0]
    5322:	687b      	ldr	r3, [r7, #4]
    5324:	60da      	str	r2, [r3, #12]
    5326:	687b      	ldr	r3, [r7, #4]
    5328:	68d9      	ldr	r1, [r3, #12]
    532a:	687b      	ldr	r3, [r7, #4]
    532c:	6c1b      	ldr	r3, [r3, #64]	; 0x40
    532e:	461a      	mov	r2, r3
    5330:	6838      	ldr	r0, [r7, #0]
    5332:	f000 f9c3 	bl	56bc <memcpy>
    5336:	bf00      	nop
    5338:	3708      	adds	r7, #8
    533a:	46bd      	mov	sp, r7
    533c:	bd80      	pop	{r7, pc}

0000533e <prvUnlockQueue>:
    533e:	b580      	push	{r7, lr}
    5340:	b084      	sub	sp, #16
    5342:	af00      	add	r7, sp, #0
    5344:	6078      	str	r0, [r7, #4]
    5346:	f7fd fa19 	bl	277c <vPortEnterCritical>
    534a:	687b      	ldr	r3, [r7, #4]
    534c:	f893 3045 	ldrb.w	r3, [r3, #69]	; 0x45
    5350:	73fb      	strb	r3, [r7, #15]
    5352:	e011      	b.n	5378 <prvUnlockQueue+0x3a>
    5354:	687b      	ldr	r3, [r7, #4]
    5356:	6a5b      	ldr	r3, [r3, #36]	; 0x24
    5358:	2b00      	cmp	r3, #0
    535a:	d012      	beq.n	5382 <prvUnlockQueue+0x44>
    535c:	687b      	ldr	r3, [r7, #4]
    535e:	3324      	adds	r3, #36	; 0x24
    5360:	4618      	mov	r0, r3
    5362:	f7fd fff7 	bl	3354 <xTaskRemoveFromEventList>
    5366:	4603      	mov	r3, r0
    5368:	2b00      	cmp	r3, #0
    536a:	d001      	beq.n	5370 <prvUnlockQueue+0x32>
    536c:	f7fe f8ca 	bl	3504 <vTaskMissedYield>
    5370:	7bfb      	ldrb	r3, [r7, #15]
    5372:	3b01      	subs	r3, #1
    5374:	b2db      	uxtb	r3, r3
    5376:	73fb      	strb	r3, [r7, #15]
    5378:	f997 300f 	ldrsb.w	r3, [r7, #15]
    537c:	2b00      	cmp	r3, #0
    537e:	dce9      	bgt.n	5354 <prvUnlockQueue+0x16>
    5380:	e000      	b.n	5384 <prvUnlockQueue+0x46>
    5382:	bf00      	nop
    5384:	687b      	ldr	r3, [r7, #4]
    5386:	22ff      	movs	r2, #255	; 0xff
    5388:	f883 2045 	strb.w	r2, [r3, #69]	; 0x45
    538c:	f7fd fa24 	bl	27d8 <vPortExitCritical>
    5390:	f7fd f9f4 	bl	277c <vPortEnterCritical>
    5394:	687b      	ldr	r3, [r7, #4]
    5396:	f893 3044 	ldrb.w	r3, [r3, #68]	; 0x44
    539a:	73bb      	strb	r3, [r7, #14]
    539c:	e011      	b.n	53c2 <prvUnlockQueue+0x84>
    539e:	687b      	ldr	r3, [r7, #4]
    53a0:	691b      	ldr	r3, [r3, #16]
    53a2:	2b00      	cmp	r3, #0
    53a4:	d012      	beq.n	53cc <prvUnlockQueue+0x8e>
    53a6:	687b      	ldr	r3, [r7, #4]
    53a8:	3310      	adds	r3, #16
    53aa:	4618      	mov	r0, r3
    53ac:	f7fd ffd2 	bl	3354 <xTaskRemoveFromEventList>
    53b0:	4603      	mov	r3, r0
    53b2:	2b00      	cmp	r3, #0
    53b4:	d001      	beq.n	53ba <prvUnlockQueue+0x7c>
    53b6:	f7fe f8a5 	bl	3504 <vTaskMissedYield>
    53ba:	7bbb      	ldrb	r3, [r7, #14]
    53bc:	3b01      	subs	r3, #1
    53be:	b2db      	uxtb	r3, r3
    53c0:	73bb      	strb	r3, [r7, #14]
    53c2:	f997 300e 	ldrsb.w	r3, [r7, #14]
    53c6:	2b00      	cmp	r3, #0
    53c8:	dce9      	bgt.n	539e <prvUnlockQueue+0x60>
    53ca:	e000      	b.n	53ce <prvUnlockQueue+0x90>
    53cc:	bf00      	nop
    53ce:	687b      	ldr	r3, [r7, #4]
    53d0:	22ff      	movs	r2, #255	; 0xff
    53d2:	f883 2044 	strb.w	r2, [r3, #68]	; 0x44
    53d6:	f7fd f9ff 	bl	27d8 <vPortExitCritical>
    53da:	bf00      	nop
    53dc:	3710      	adds	r7, #16
    53de:	46bd      	mov	sp, r7
    53e0:	bd80      	pop	{r7, pc}

000053e2 <prvIsQueueEmpty>:
    53e2:	b580      	push	{r7, lr}
    53e4:	b084      	sub	sp, #16
    53e6:	af00      	add	r7, sp, #0
    53e8:	6078      	str	r0, [r7, #4]
    53ea:	f7fd f9c7 	bl	277c <vPortEnterCritical>
    53ee:	687b      	ldr	r3, [r7, #4]
    53f0:	6b9b      	ldr	r3, [r3, #56]	; 0x38
    53f2:	2b00      	cmp	r3, #0
    53f4:	d102      	bne.n	53fc <prvIsQueueEmpty+0x1a>
    53f6:	2301      	movs	r3, #1
    53f8:	60fb      	str	r3, [r7, #12]
    53fa:	e001      	b.n	5400 <prvIsQueueEmpty+0x1e>
    53fc:	2300      	movs	r3, #0
    53fe:	60fb      	str	r3, [r7, #12]
    5400:	f7fd f9ea 	bl	27d8 <vPortExitCritical>
    5404:	68fb      	ldr	r3, [r7, #12]
    5406:	4618      	mov	r0, r3
    5408:	3710      	adds	r7, #16
    540a:	46bd      	mov	sp, r7
    540c:	bd80      	pop	{r7, pc}

0000540e <prvIsQueueFull>:
    540e:	b580      	push	{r7, lr}
    5410:	b084      	sub	sp, #16
    5412:	af00      	add	r7, sp, #0
    5414:	6078      	str	r0, [r7, #4]
    5416:	f7fd f9b1 	bl	277c <vPortEnterCritical>
    541a:	687b      	ldr	r3, [r7, #4]
    541c:	6b9a      	ldr	r2, [r3, #56]	; 0x38
    541e:	687b      	ldr	r3, [r7, #4]
    5420:	6bdb      	ldr	r3, [r3, #60]	; 0x3c
    5422:	429a      	cmp	r2, r3
    5424:	d102      	bne.n	542c <prvIsQueueFull+0x1e>
    5426:	2301      	movs	r3, #1
    5428:	60fb      	str	r3, [r7, #12]
    542a:	e001      	b.n	5430 <prvIsQueueFull+0x22>
    542c:	2300      	movs	r3, #0
    542e:	60fb      	str	r3, [r7, #12]
    5430:	f7fd f9d2 	bl	27d8 <vPortExitCritical>
    5434:	68fb      	ldr	r3, [r7, #12]
    5436:	4618      	mov	r0, r3
    5438:	3710      	adds	r7, #16
    543a:	46bd      	mov	sp, r7
    543c:	bd80      	pop	{r7, pc}

0000543e <vQueueWaitForMessageRestricted>:
    543e:	b580      	push	{r7, lr}
    5440:	b086      	sub	sp, #24
    5442:	af00      	add	r7, sp, #0
    5444:	60f8      	str	r0, [r7, #12]
    5446:	60b9      	str	r1, [r7, #8]
    5448:	607a      	str	r2, [r7, #4]
    544a:	68fb      	ldr	r3, [r7, #12]
    544c:	617b      	str	r3, [r7, #20]
    544e:	f7fd f995 	bl	277c <vPortEnterCritical>
    5452:	697b      	ldr	r3, [r7, #20]
    5454:	f893 3044 	ldrb.w	r3, [r3, #68]	; 0x44
    5458:	b25b      	sxtb	r3, r3
    545a:	f1b3 3fff 	cmp.w	r3, #4294967295	; 0xffffffff
    545e:	d103      	bne.n	5468 <vQueueWaitForMessageRestricted+0x2a>
    5460:	697b      	ldr	r3, [r7, #20]
    5462:	2200      	movs	r2, #0
    5464:	f883 2044 	strb.w	r2, [r3, #68]	; 0x44
    5468:	697b      	ldr	r3, [r7, #20]
    546a:	f893 3045 	ldrb.w	r3, [r3, #69]	; 0x45
    546e:	b25b      	sxtb	r3, r3
    5470:	f1b3 3fff 	cmp.w	r3, #4294967295	; 0xffffffff
    5474:	d103      	bne.n	547e <vQueueWaitForMessageRestricted+0x40>
    5476:	697b      	ldr	r3, [r7, #20]
    5478:	2200      	movs	r2, #0
    547a:	f883 2045 	strb.w	r2, [r3, #69]	; 0x45
    547e:	f7fd f9ab 	bl	27d8 <vPortExitCritical>
    5482:	697b      	ldr	r3, [r7, #20]
    5484:	6b9b      	ldr	r3, [r3, #56]	; 0x38
    5486:	2b00      	cmp	r3, #0
    5488:	d106      	bne.n	5498 <vQueueWaitForMessageRestricted+0x5a>
    548a:	697b      	ldr	r3, [r7, #20]
    548c:	3324      	adds	r3, #36	; 0x24
    548e:	687a      	ldr	r2, [r7, #4]
    5490:	68b9      	ldr	r1, [r7, #8]
    5492:	4618      	mov	r0, r3
    5494:	f7fd ff34 	bl	3300 <vTaskPlaceOnEventListRestricted>
    5498:	6978      	ldr	r0, [r7, #20]
    549a:	f7ff ff50 	bl	533e <prvUnlockQueue>
    549e:	bf00      	nop
    54a0:	3718      	adds	r7, #24
    54a2:	46bd      	mov	sp, r7
    54a4:	bd80      	pop	{r7, pc}

000054a6 <xTaskCreate>:
    54a6:	b580      	push	{r7, lr}
    54a8:	b08c      	sub	sp, #48	; 0x30
    54aa:	af04      	add	r7, sp, #16
    54ac:	60f8      	str	r0, [r7, #12]
    54ae:	60b9      	str	r1, [r7, #8]
    54b0:	603b      	str	r3, [r7, #0]
    54b2:	4613      	mov	r3, r2
    54b4:	80fb      	strh	r3, [r7, #6]
    54b6:	88fb      	ldrh	r3, [r7, #6]
    54b8:	009b      	lsls	r3, r3, #2
    54ba:	4618      	mov	r0, r3
    54bc:	f7fc fe78 	bl	21b0 <pvPortMalloc>
    54c0:	6178      	str	r0, [r7, #20]
    54c2:	697b      	ldr	r3, [r7, #20]
    54c4:	2b00      	cmp	r3, #0
    54c6:	d00e      	beq.n	54e6 <xTaskCreate+0x40>
    54c8:	2078      	movs	r0, #120	; 0x78
    54ca:	f7fc fe71 	bl	21b0 <pvPortMalloc>
    54ce:	61f8      	str	r0, [r7, #28]
    54d0:	69fb      	ldr	r3, [r7, #28]
    54d2:	2b00      	cmp	r3, #0
    54d4:	d003      	beq.n	54de <xTaskCreate+0x38>
    54d6:	69fb      	ldr	r3, [r7, #28]
    54d8:	697a      	ldr	r2, [r7, #20]
    54da:	631a      	str	r2, [r3, #48]	; 0x30
    54dc:	e005      	b.n	54ea <xTaskCreate+0x44>
    54de:	6978      	ldr	r0, [r7, #20]
    54e0:	f7fc ff28 	bl	2334 <vPortFree>
    54e4:	e001      	b.n	54ea <xTaskCreate+0x44>
    54e6:	2300      	movs	r3, #0
    54e8:	61fb      	str	r3, [r7, #28]
    54ea:	69fb      	ldr	r3, [r7, #28]
    54ec:	2b00      	cmp	r3, #0
    54ee:	d013      	beq.n	5518 <xTaskCreate+0x72>
    54f0:	88fa      	ldrh	r2, [r7, #6]
    54f2:	2300      	movs	r3, #0
    54f4:	9303      	str	r3, [sp, #12]
    54f6:	69fb      	ldr	r3, [r7, #28]
    54f8:	9302      	str	r3, [sp, #8]
    54fa:	6afb      	ldr	r3, [r7, #44]	; 0x2c
    54fc:	9301      	str	r3, [sp, #4]
    54fe:	6abb      	ldr	r3, [r7, #40]	; 0x28
    5500:	9300      	str	r3, [sp, #0]
    5502:	683b      	ldr	r3, [r7, #0]
    5504:	68b9      	ldr	r1, [r7, #8]
    5506:	68f8      	ldr	r0, [r7, #12]
    5508:	f000 f80e 	bl	5528 <prvInitialiseNewTask>
    550c:	69f8      	ldr	r0, [r7, #28]
    550e:	f7fd fc59 	bl	2dc4 <prvAddNewTaskToReadyList>
    5512:	2301      	movs	r3, #1
    5514:	61bb      	str	r3, [r7, #24]
    5516:	e002      	b.n	551e <xTaskCreate+0x78>
    5518:	f04f 33ff 	mov.w	r3, #4294967295	; 0xffffffff
    551c:	61bb      	str	r3, [r7, #24]
    551e:	69bb      	ldr	r3, [r7, #24]
    5520:	4618      	mov	r0, r3
    5522:	3720      	adds	r7, #32
    5524:	46bd      	mov	sp, r7
    5526:	bd80      	pop	{r7, pc}

00005528 <prvInitialiseNewTask>:
    5528:	b580      	push	{r7, lr}
    552a:	b088      	sub	sp, #32
    552c:	af00      	add	r7, sp, #0
    552e:	60f8      	str	r0, [r7, #12]
    5530:	60b9      	str	r1, [r7, #8]
    5532:	607a      	str	r2, [r7, #4]
    5534:	603b      	str	r3, [r7, #0]
    5536:	6b3b      	ldr	r3, [r7, #48]	; 0x30
    5538:	6b18      	ldr	r0, [r3, #48]	; 0x30
    553a:	687b      	ldr	r3, [r7, #4]
    553c:	009b      	lsls	r3, r3, #2
    553e:	461a      	mov	r2, r3
    5540:	21a5      	movs	r1, #165	; 0xa5
    5542:	f000 f8bd 	bl	56c0 <memset>
    5546:	6b3b      	ldr	r3, [r7, #48]	; 0x30
    5548:	6b1a      	ldr	r2, [r3, #48]	; 0x30
    554a:	687b      	ldr	r3, [r7, #4]
    554c:	f103 4380 	add.w	r3, r3, #1073741824	; 0x40000000
    5550:	3b01      	subs	r3, #1
    5552:	009b      	lsls	r3, r3, #2
    5554:	4413      	add	r3, r2
    5556:	61bb      	str	r3, [r7, #24]
    5558:	69bb      	ldr	r3, [r7, #24]
    555a:	f023 0307 	bic.w	r3, r3, #7
    555e:	61bb      	str	r3, [r7, #24]
    5560:	69bb      	ldr	r3, [r7, #24]
    5562:	f003 0307 	and.w	r3, r3, #7
    5566:	2b00      	cmp	r3, #0
    5568:	d009      	beq.n	557e <prvInitialiseNewTask+0x56>
    556a:	f04f 0320 	mov.w	r3, #32
    556e:	f383 8811 	msr	BASEPRI, r3
    5572:	f3bf 8f6f 	isb	sy
    5576:	f3bf 8f4f 	dsb	sy
    557a:	617b      	str	r3, [r7, #20]
    557c:	e7fe      	b.n	557c <prvInitialiseNewTask+0x54>
    557e:	6b3b      	ldr	r3, [r7, #48]	; 0x30
    5580:	69ba      	ldr	r2, [r7, #24]
    5582:	649a      	str	r2, [r3, #72]	; 0x48
    5584:	2300      	movs	r3, #0
    5586:	61fb      	str	r3, [r7, #28]
    5588:	e012      	b.n	55b0 <prvInitialiseNewTask+0x88>
    558a:	68ba      	ldr	r2, [r7, #8]
    558c:	69fb      	ldr	r3, [r7, #28]
    558e:	4413      	add	r3, r2
    5590:	7819      	ldrb	r1, [r3, #0]
    5592:	6b3a      	ldr	r2, [r7, #48]	; 0x30
    5594:	69fb      	ldr	r3, [r7, #28]
    5596:	4413      	add	r3, r2
    5598:	3334      	adds	r3, #52	; 0x34
    559a:	460a      	mov	r2, r1
    559c:	701a      	strb	r2, [r3, #0]
    559e:	68ba      	ldr	r2, [r7, #8]
    55a0:	69fb      	ldr	r3, [r7, #28]
    55a2:	4413      	add	r3, r2
    55a4:	781b      	ldrb	r3, [r3, #0]
    55a6:	2b00      	cmp	r3, #0
    55a8:	d006      	beq.n	55b8 <prvInitialiseNewTask+0x90>
    55aa:	69fb      	ldr	r3, [r7, #28]
    55ac:	3301      	adds	r3, #1
    55ae:	61fb      	str	r3, [r7, #28]
    55b0:	69fb      	ldr	r3, [r7, #28]
    55b2:	2b13      	cmp	r3, #19
    55b4:	d9e9      	bls.n	558a <prvInitialiseNewTask+0x62>
    55b6:	e000      	b.n	55ba <prvInitialiseNewTask+0x92>
    55b8:	bf00      	nop
    55ba:	6b3b      	ldr	r3, [r7, #48]	; 0x30
    55bc:	2200      	movs	r2, #0
    55be:	f883 2047 	strb.w	r2, [r3, #71]	; 0x47
    55c2:	6abb      	ldr	r3, [r7, #40]	; 0x28
    55c4:	2b04      	cmp	r3, #4
    55c6:	d901      	bls.n	55cc <prvInitialiseNewTask+0xa4>
    55c8:	2304      	movs	r3, #4
    55ca:	62bb      	str	r3, [r7, #40]	; 0x28
    55cc:	6b3b      	ldr	r3, [r7, #48]	; 0x30
    55ce:	6aba      	ldr	r2, [r7, #40]	; 0x28
    55d0:	62da      	str	r2, [r3, #44]	; 0x2c
    55d2:	6b3b      	ldr	r3, [r7, #48]	; 0x30
    55d4:	6aba      	ldr	r2, [r7, #40]	; 0x28
    55d6:	655a      	str	r2, [r3, #84]	; 0x54
    55d8:	6b3b      	ldr	r3, [r7, #48]	; 0x30
    55da:	2200      	movs	r2, #0
    55dc:	659a      	str	r2, [r3, #88]	; 0x58
    55de:	6b3b      	ldr	r3, [r7, #48]	; 0x30
    55e0:	3304      	adds	r3, #4
    55e2:	4618      	mov	r0, r3
    55e4:	f7ff fc97 	bl	4f16 <vListInitialiseItem>
    55e8:	6b3b      	ldr	r3, [r7, #48]	; 0x30
    55ea:	3318      	adds	r3, #24
    55ec:	4618      	mov	r0, r3
    55ee:	f7ff fc92 	bl	4f16 <vListInitialiseItem>
    55f2:	6b3b      	ldr	r3, [r7, #48]	; 0x30
    55f4:	6b3a      	ldr	r2, [r7, #48]	; 0x30
    55f6:	611a      	str	r2, [r3, #16]
    55f8:	6abb      	ldr	r3, [r7, #40]	; 0x28
    55fa:	f1c3 0205 	rsb	r2, r3, #5
    55fe:	6b3b      	ldr	r3, [r7, #48]	; 0x30
    5600:	619a      	str	r2, [r3, #24]
    5602:	6b3b      	ldr	r3, [r7, #48]	; 0x30
    5604:	6b3a      	ldr	r2, [r7, #48]	; 0x30
    5606:	625a      	str	r2, [r3, #36]	; 0x24
    5608:	2300      	movs	r3, #0
    560a:	61fb      	str	r3, [r7, #28]
    560c:	e009      	b.n	5622 <prvInitialiseNewTask+0xfa>
    560e:	6b3a      	ldr	r2, [r7, #48]	; 0x30
    5610:	69fb      	ldr	r3, [r7, #28]
    5612:	3316      	adds	r3, #22
    5614:	009b      	lsls	r3, r3, #2
    5616:	4413      	add	r3, r2
    5618:	2200      	movs	r2, #0
    561a:	605a      	str	r2, [r3, #4]
    561c:	69fb      	ldr	r3, [r7, #28]
    561e:	3301      	adds	r3, #1
    5620:	61fb      	str	r3, [r7, #28]
    5622:	69fb      	ldr	r3, [r7, #28]
    5624:	2b04      	cmp	r3, #4
    5626:	d9f2      	bls.n	560e <prvInitialiseNewTask+0xe6>
    5628:	6b3b      	ldr	r3, [r7, #48]	; 0x30
    562a:	2200      	movs	r2, #0
    562c:	671a      	str	r2, [r3, #112]	; 0x70
    562e:	6b3b      	ldr	r3, [r7, #48]	; 0x30
    5630:	2200      	movs	r2, #0
    5632:	f883 2074 	strb.w	r2, [r3, #116]	; 0x74
    5636:	683a      	ldr	r2, [r7, #0]
    5638:	68f9      	ldr	r1, [r7, #12]
    563a:	69b8      	ldr	r0, [r7, #24]
    563c:	f7fc ff8e 	bl	255c <pxPortInitialiseStack>
    5640:	4602      	mov	r2, r0
    5642:	6b3b      	ldr	r3, [r7, #48]	; 0x30
    5644:	601a      	str	r2, [r3, #0]
    5646:	6afb      	ldr	r3, [r7, #44]	; 0x2c
    5648:	2b00      	cmp	r3, #0
    564a:	d002      	beq.n	5652 <prvInitialiseNewTask+0x12a>
    564c:	6afb      	ldr	r3, [r7, #44]	; 0x2c
    564e:	6b3a      	ldr	r2, [r7, #48]	; 0x30
    5650:	601a      	str	r2, [r3, #0]
    5652:	bf00      	nop
    5654:	3720      	adds	r7, #32
    5656:	46bd      	mov	sp, r7
    5658:	bd80      	pop	{r7, pc}

0000565a <prvDeleteTCB>:
    565a:	b580      	push	{r7, lr}
    565c:	b082      	sub	sp, #8
    565e:	af00      	add	r7, sp, #0
    5660:	6078      	str	r0, [r7, #4]
    5662:	687b      	ldr	r3, [r7, #4]
    5664:	6b1b      	ldr	r3, [r3, #48]	; 0x30
    5666:	4618      	mov	r0, r3
    5668:	f7fc fe64 	bl	2334 <vPortFree>
    566c:	6878      	ldr	r0, [r7, #4]
    566e:	f7fc fe61 	bl	2334 <vPortFree>
    5672:	bf00      	nop
    5674:	3708      	adds	r7, #8
    5676:	46bd      	mov	sp, r7
    5678:	bd80      	pop	{r7, pc}

0000567a <prvTimerTask>:
    567a:	b580      	push	{r7, lr}
    567c:	b084      	sub	sp, #16
    567e:	af00      	add	r7, sp, #0
    5680:	6078      	str	r0, [r7, #4]
    5682:	f107 0308 	add.w	r3, r7, #8
    5686:	4618      	mov	r0, r3
    5688:	f7fe fa04 	bl	3a94 <prvGetNextExpireTime>
    568c:	60f8      	str	r0, [r7, #12]
    568e:	68bb      	ldr	r3, [r7, #8]
    5690:	4619      	mov	r1, r3
    5692:	68f8      	ldr	r0, [r7, #12]
    5694:	f7fe f9b0 	bl	39f8 <prvProcessTimerOrBlockTask>
    5698:	f7fe fa82 	bl	3ba0 <prvProcessReceivedCommands>
    569c:	e7f1      	b.n	5682 <prvTimerTask+0x8>

0000569e <SystemInitHook>:
    569e:	b480      	push	{r7}
    56a0:	af00      	add	r7, sp, #0
    56a2:	bf00      	nop
    56a4:	46bd      	mov	sp, r7
    56a6:	f85d 7b04 	ldr.w	r7, [sp], #4
    56aa:	4770      	bx	lr

000056ac <__main>:
    56ac:	b508      	push	{r3, lr}
    56ae:	f7fe fd47 	bl	4140 <_initio>
    56b2:	e8bd 4008 	ldmia.w	sp!, {r3, lr}
    56b6:	f7fb bb45 	b.w	d44 <main>

000056ba <__sys_appexit>:
    56ba:	e7fe      	b.n	56ba <__sys_appexit>

000056bc <memcpy>:
    56bc:	f000 b9c8 	b.w	5a50 <__aeabi_memcpy>

000056c0 <memset>:
    56c0:	f000 b9e0 	b.w	5a84 <__aeabi_lowlevel_memset>

000056c4 <_deferredlazyseek>:
    56c4:	68c3      	ldr	r3, [r0, #12]
    56c6:	6982      	ldr	r2, [r0, #24]
    56c8:	f023 0320 	bic.w	r3, r3, #32
    56cc:	b510      	push	{r4, lr}
    56ce:	60c3      	str	r3, [r0, #12]
    56d0:	6a83      	ldr	r3, [r0, #40]	; 0x28
    56d2:	429a      	cmp	r2, r3
    56d4:	4604      	mov	r4, r0
    56d6:	d00e      	beq.n	56f6 <_deferredlazyseek+0x32>
    56d8:	f000 f8b4 	bl	5844 <_fflush>
    56dc:	68e3      	ldr	r3, [r4, #12]
    56de:	f423 5340 	bic.w	r3, r3, #12288	; 0x3000
    56e2:	f023 0310 	bic.w	r3, r3, #16
    56e6:	f043 0310 	orr.w	r3, r3, #16
    56ea:	60e3      	str	r3, [r4, #12]
    56ec:	6aa3      	ldr	r3, [r4, #40]	; 0x28
    56ee:	61a3      	str	r3, [r4, #24]
    56f0:	6923      	ldr	r3, [r4, #16]
    56f2:	62e3      	str	r3, [r4, #44]	; 0x2c
    56f4:	6023      	str	r3, [r4, #0]
    56f6:	68e3      	ldr	r3, [r4, #12]
    56f8:	f423 4380 	bic.w	r3, r3, #16384	; 0x4000
    56fc:	f023 0340 	bic.w	r3, r3, #64	; 0x40
    5700:	60e3      	str	r3, [r4, #12]
    5702:	bd10      	pop	{r4, pc}

00005704 <__flsbuf>:
    5704:	68cb      	ldr	r3, [r1, #12]
    5706:	f423 2200 	bic.w	r2, r3, #524288	; 0x80000
    570a:	b570      	push	{r4, r5, r6, lr}
    570c:	460c      	mov	r4, r1
    570e:	60ca      	str	r2, [r1, #12]
    5710:	0699      	lsls	r1, r3, #26
    5712:	4605      	mov	r5, r0
    5714:	d502      	bpl.n	571c <__flsbuf+0x18>
    5716:	4620      	mov	r0, r4
    5718:	f7ff ffd4 	bl	56c4 <_deferredlazyseek>
    571c:	e9d4 3602 	ldrd	r3, r6, [r4, #8]
    5720:	1c5a      	adds	r2, r3, #1
    5722:	da10      	bge.n	5746 <__flsbuf+0x42>
    5724:	05b0      	lsls	r0, r6, #22
    5726:	d40e      	bmi.n	5746 <__flsbuf+0x42>
    5728:	f1c3 23ff 	rsb	r3, r3, #4278255360	; 0xff00ff00
    572c:	f503 037f 	add.w	r3, r3, #16711680	; 0xff0000
    5730:	33fe      	adds	r3, #254	; 0xfe
    5732:	60a3      	str	r3, [r4, #8]
    5734:	6823      	ldr	r3, [r4, #0]
    5736:	f446 3690 	orr.w	r6, r6, #73728	; 0x12000
    573a:	1c5a      	adds	r2, r3, #1
    573c:	60e6      	str	r6, [r4, #12]
    573e:	6022      	str	r2, [r4, #0]
    5740:	701d      	strb	r5, [r3, #0]
    5742:	b2e8      	uxtb	r0, r5
    5744:	bd70      	pop	{r4, r5, r6, pc}
    5746:	f241 028a 	movw	r2, #4234	; 0x108a
    574a:	4032      	ands	r2, r6
    574c:	2a02      	cmp	r2, #2
    574e:	d007      	beq.n	5760 <__flsbuf+0x5c>
    5750:	2300      	movs	r3, #0
    5752:	f046 0680 	orr.w	r6, r6, #128	; 0x80
    5756:	60a3      	str	r3, [r4, #8]
    5758:	60e6      	str	r6, [r4, #12]
    575a:	f04f 30ff 	mov.w	r0, #4294967295	; 0xffffffff
    575e:	e7f1      	b.n	5744 <__flsbuf+0x40>
    5760:	f24a 0310 	movw	r3, #40976	; 0xa010
    5764:	4033      	ands	r3, r6
    5766:	f5b3 4f00 	cmp.w	r3, #32768	; 0x8000
    576a:	d10a      	bne.n	5782 <__flsbuf+0x7e>
    576c:	2100      	movs	r1, #0
    576e:	4620      	mov	r0, r4
    5770:	f7fe fc44 	bl	3ffc <fseek>
    5774:	68e3      	ldr	r3, [r4, #12]
    5776:	0699      	lsls	r1, r3, #26
    5778:	d502      	bpl.n	5780 <__flsbuf+0x7c>
    577a:	4620      	mov	r0, r4
    577c:	f7ff ffa2 	bl	56c4 <_deferredlazyseek>
    5780:	68e6      	ldr	r6, [r4, #12]
    5782:	f446 3390 	orr.w	r3, r6, #73728	; 0x12000
    5786:	f416 6f70 	tst.w	r6, #3840	; 0xf00
    578a:	60e3      	str	r3, [r4, #12]
    578c:	d10e      	bne.n	57ac <__flsbuf+0xa8>
    578e:	6960      	ldr	r0, [r4, #20]
    5790:	f000 f997 	bl	5ac2 <__sys_istty>
    5794:	b300      	cbz	r0, 57d8 <__flsbuf+0xd4>
    5796:	0572      	lsls	r2, r6, #21
    5798:	d51e      	bpl.n	57d8 <__flsbuf+0xd4>
    579a:	f104 0324 	add.w	r3, r4, #36	; 0x24
    579e:	6123      	str	r3, [r4, #16]
    57a0:	6023      	str	r3, [r4, #0]
    57a2:	2301      	movs	r3, #1
    57a4:	61e3      	str	r3, [r4, #28]
    57a6:	f446 3392 	orr.w	r3, r6, #74752	; 0x12400
    57aa:	60e3      	str	r3, [r4, #12]
    57ac:	f413 6f10 	tst.w	r3, #2304	; 0x900
    57b0:	6821      	ldr	r1, [r4, #0]
    57b2:	6926      	ldr	r6, [r4, #16]
    57b4:	d026      	beq.n	5804 <__flsbuf+0x100>
    57b6:	6ae3      	ldr	r3, [r4, #44]	; 0x2c
    57b8:	4299      	cmp	r1, r3
    57ba:	bf2c      	ite	cs
    57bc:	ebc6 0101 	rsbcs	r1, r6, r1
    57c0:	ebc6 0103 	rsbcc	r1, r6, r3
    57c4:	b9b9      	cbnz	r1, 57f6 <__flsbuf+0xf2>
    57c6:	1c73      	adds	r3, r6, #1
    57c8:	62e3      	str	r3, [r4, #44]	; 0x2c
    57ca:	6023      	str	r3, [r4, #0]
    57cc:	69e3      	ldr	r3, [r4, #28]
    57ce:	6323      	str	r3, [r4, #48]	; 0x30
    57d0:	1e5a      	subs	r2, r3, #1
    57d2:	60a2      	str	r2, [r4, #8]
    57d4:	7035      	strb	r5, [r6, #0]
    57d6:	e7b4      	b.n	5742 <__flsbuf+0x3e>
    57d8:	f44f 7080 	mov.w	r0, #256	; 0x100
    57dc:	f7fe fbfe 	bl	3fdc <_Csys_alloc>
    57e0:	f44f 7380 	mov.w	r3, #256	; 0x100
    57e4:	68e2      	ldr	r2, [r4, #12]
    57e6:	61e3      	str	r3, [r4, #28]
    57e8:	f446 3394 	orr.w	r3, r6, #75776	; 0x12800
    57ec:	431a      	orrs	r2, r3
    57ee:	6120      	str	r0, [r4, #16]
    57f0:	6020      	str	r0, [r4, #0]
    57f2:	60e2      	str	r2, [r4, #12]
    57f4:	e7da      	b.n	57ac <__flsbuf+0xa8>
    57f6:	4622      	mov	r2, r4
    57f8:	4630      	mov	r0, r6
    57fa:	f7fe fb55 	bl	3ea8 <_Cwritebuf>
    57fe:	2800      	cmp	r0, #0
    5800:	d0e1      	beq.n	57c6 <__flsbuf+0xc2>
    5802:	e7aa      	b.n	575a <__flsbuf+0x56>
    5804:	1c4a      	adds	r2, r1, #1
    5806:	b2ed      	uxtb	r5, r5
    5808:	6022      	str	r2, [r4, #0]
    580a:	700d      	strb	r5, [r1, #0]
    580c:	6ae2      	ldr	r2, [r4, #44]	; 0x2c
    580e:	6821      	ldr	r1, [r4, #0]
    5810:	4291      	cmp	r1, r2
    5812:	bf2c      	ite	cs
    5814:	ebc6 0101 	rsbcs	r1, r6, r1
    5818:	ebc6 0102 	rsbcc	r1, r6, r2
    581c:	69e2      	ldr	r2, [r4, #28]
    581e:	6322      	str	r2, [r4, #48]	; 0x30
    5820:	055b      	lsls	r3, r3, #21
    5822:	d403      	bmi.n	582c <__flsbuf+0x128>
    5824:	2d0a      	cmp	r5, #10
    5826:	d001      	beq.n	582c <__flsbuf+0x128>
    5828:	428a      	cmp	r2, r1
    582a:	dc09      	bgt.n	5840 <__flsbuf+0x13c>
    582c:	2300      	movs	r3, #0
    582e:	62e6      	str	r6, [r4, #44]	; 0x2c
    5830:	6026      	str	r6, [r4, #0]
    5832:	60a3      	str	r3, [r4, #8]
    5834:	4622      	mov	r2, r4
    5836:	4630      	mov	r0, r6
    5838:	f7fe fb36 	bl	3ea8 <_Cwritebuf>
    583c:	2800      	cmp	r0, #0
    583e:	d18c      	bne.n	575a <__flsbuf+0x56>
    5840:	4628      	mov	r0, r5
    5842:	e77f      	b.n	5744 <__flsbuf+0x40>

00005844 <_fflush>:
    5844:	b538      	push	{r3, r4, r5, lr}
    5846:	6801      	ldr	r1, [r0, #0]
    5848:	6905      	ldr	r5, [r0, #16]
    584a:	6ac3      	ldr	r3, [r0, #44]	; 0x2c
    584c:	4604      	mov	r4, r0
    584e:	68c0      	ldr	r0, [r0, #12]
    5850:	f420 2200 	bic.w	r2, r0, #524288	; 0x80000
    5854:	60e2      	str	r2, [r4, #12]
    5856:	f000 0282 	and.w	r2, r0, #130	; 0x82
    585a:	2a02      	cmp	r2, #2
    585c:	d002      	beq.n	5864 <_fflush+0x20>
    585e:	f04f 30ff 	mov.w	r0, #4294967295	; 0xffffffff
    5862:	bd38      	pop	{r3, r4, r5, pc}
    5864:	f410 3080 	ands.w	r0, r0, #65536	; 0x10000
    5868:	d0fb      	beq.n	5862 <_fflush+0x1e>
    586a:	4299      	cmp	r1, r3
    586c:	bf38      	it	cc
    586e:	4619      	movcc	r1, r3
    5870:	428d      	cmp	r5, r1
    5872:	d108      	bne.n	5886 <_fflush+0x42>
    5874:	68e3      	ldr	r3, [r4, #12]
    5876:	62e5      	str	r5, [r4, #44]	; 0x2c
    5878:	2000      	movs	r0, #0
    587a:	f423 3380 	bic.w	r3, r3, #65536	; 0x10000
    587e:	6025      	str	r5, [r4, #0]
    5880:	60a0      	str	r0, [r4, #8]
    5882:	60e3      	str	r3, [r4, #12]
    5884:	e7ed      	b.n	5862 <_fflush+0x1e>
    5886:	4622      	mov	r2, r4
    5888:	1b49      	subs	r1, r1, r5
    588a:	4628      	mov	r0, r5
    588c:	f7fe fb0c 	bl	3ea8 <_Cwritebuf>
    5890:	2800      	cmp	r0, #0
    5892:	d0ef      	beq.n	5874 <_fflush+0x30>
    5894:	e7e3      	b.n	585e <_fflush+0x1a>

00005896 <free>:
    5896:	b1a8      	cbz	r0, 58c4 <free+0x2e>
    5898:	f04f 5380 	mov.w	r3, #268435456	; 0x10000000
    589c:	f840 3c0c 	str.w	r3, [r0, #-12]
    58a0:	f850 2c04 	ldr.w	r2, [r0, #-4]
    58a4:	b172      	cbz	r2, 58c4 <free+0x2e>
    58a6:	6813      	ldr	r3, [r2, #0]
    58a8:	f1b3 5f80 	cmp.w	r3, #268435456	; 0x10000000
    58ac:	d10a      	bne.n	58c4 <free+0x2e>
    58ae:	f850 3c08 	ldr.w	r3, [r0, #-8]
    58b2:	6851      	ldr	r1, [r2, #4]
    58b4:	3303      	adds	r3, #3
    58b6:	440b      	add	r3, r1
    58b8:	f840 3c08 	str.w	r3, [r0, #-8]
    58bc:	6893      	ldr	r3, [r2, #8]
    58be:	f840 3c04 	str.w	r3, [r0, #-4]
    58c2:	e7ed      	b.n	58a0 <free+0xa>
    58c4:	4770      	bx	lr

000058c6 <fputs>:
    58c6:	b538      	push	{r3, r4, r5, lr}
    58c8:	4605      	mov	r5, r0
    58ca:	460c      	mov	r4, r1
    58cc:	f815 0b01 	ldrb.w	r0, [r5], #1
    58d0:	b170      	cbz	r0, 58f0 <fputs+0x2a>
    58d2:	68a3      	ldr	r3, [r4, #8]
    58d4:	3b01      	subs	r3, #1
    58d6:	2b00      	cmp	r3, #0
    58d8:	60a3      	str	r3, [r4, #8]
    58da:	db04      	blt.n	58e6 <fputs+0x20>
    58dc:	6823      	ldr	r3, [r4, #0]
    58de:	1c5a      	adds	r2, r3, #1
    58e0:	6022      	str	r2, [r4, #0]
    58e2:	7018      	strb	r0, [r3, #0]
    58e4:	e7f2      	b.n	58cc <fputs+0x6>
    58e6:	4621      	mov	r1, r4
    58e8:	f7ff ff0c 	bl	5704 <__flsbuf>
    58ec:	1c43      	adds	r3, r0, #1
    58ee:	d1ed      	bne.n	58cc <fputs+0x6>
    58f0:	bd38      	pop	{r3, r4, r5, pc}

000058f2 <strlen>:
    58f2:	b510      	push	{r4, lr}
    58f4:	1c42      	adds	r2, r0, #1
    58f6:	0783      	lsls	r3, r0, #30
    58f8:	d116      	bne.n	5928 <strlen+0x36>
    58fa:	4603      	mov	r3, r0
    58fc:	f850 1b04 	ldr.w	r1, [r0], #4
    5900:	f1a1 3401 	sub.w	r4, r1, #16843009	; 0x1010101
    5904:	ea24 0401 	bic.w	r4, r4, r1
    5908:	f014 3f80 	tst.w	r4, #2155905152	; 0x80808080
    590c:	d0f5      	beq.n	58fa <strlen+0x8>
    590e:	f011 0fff 	tst.w	r1, #255	; 0xff
    5912:	d011      	beq.n	5938 <strlen+0x46>
    5914:	f411 4f7f 	tst.w	r1, #65280	; 0xff00
    5918:	d00c      	beq.n	5934 <strlen+0x42>
    591a:	f411 0f7f 	tst.w	r1, #16711680	; 0xff0000
    591e:	bf14      	ite	ne
    5920:	4603      	movne	r3, r0
    5922:	3303      	addeq	r3, #3
    5924:	1a98      	subs	r0, r3, r2
    5926:	e004      	b.n	5932 <strlen+0x40>
    5928:	f810 3b01 	ldrb.w	r3, [r0], #1
    592c:	2b00      	cmp	r3, #0
    592e:	d1e2      	bne.n	58f6 <strlen+0x4>
    5930:	1a80      	subs	r0, r0, r2
    5932:	bd10      	pop	{r4, pc}
    5934:	3302      	adds	r3, #2
    5936:	e7f5      	b.n	5924 <strlen+0x32>
    5938:	3301      	adds	r3, #1
    593a:	e7f3      	b.n	5924 <strlen+0x32>

0000593c <_fdopen>:
    593c:	b570      	push	{r4, r5, r6, lr}
    593e:	460d      	mov	r5, r1
    5940:	4606      	mov	r6, r0
    5942:	4610      	mov	r0, r2
    5944:	4614      	mov	r4, r2
    5946:	f000 f82d 	bl	59a4 <fclose>
    594a:	782b      	ldrb	r3, [r5, #0]
    594c:	2b72      	cmp	r3, #114	; 0x72
    594e:	d01a      	beq.n	5986 <_fdopen+0x4a>
    5950:	2b77      	cmp	r3, #119	; 0x77
    5952:	d005      	beq.n	5960 <_fdopen+0x24>
    5954:	2b61      	cmp	r3, #97	; 0x61
    5956:	d123      	bne.n	59a0 <_fdopen+0x64>
    5958:	2308      	movs	r3, #8
    595a:	f248 0202 	movw	r2, #32770	; 0x8002
    595e:	e001      	b.n	5964 <_fdopen+0x28>
    5960:	2304      	movs	r3, #4
    5962:	2202      	movs	r2, #2
    5964:	f815 1f01 	ldrb.w	r1, [r5, #1]!
    5968:	292b      	cmp	r1, #43	; 0x2b
    596a:	d00f      	beq.n	598c <_fdopen+0x50>
    596c:	2962      	cmp	r1, #98	; 0x62
    596e:	d012      	beq.n	5996 <_fdopen+0x5a>
    5970:	071b      	lsls	r3, r3, #28
    5972:	60e2      	str	r2, [r4, #12]
    5974:	6166      	str	r6, [r4, #20]
    5976:	d504      	bpl.n	5982 <_fdopen+0x46>
    5978:	2202      	movs	r2, #2
    597a:	2100      	movs	r1, #0
    597c:	4620      	mov	r0, r4
    597e:	f7fe fb3d 	bl	3ffc <fseek>
    5982:	4620      	mov	r0, r4
    5984:	bd70      	pop	{r4, r5, r6, pc}
    5986:	2300      	movs	r3, #0
    5988:	2201      	movs	r2, #1
    598a:	e7eb      	b.n	5964 <_fdopen+0x28>
    598c:	f042 0203 	orr.w	r2, r2, #3
    5990:	f043 0302 	orr.w	r3, r3, #2
    5994:	e7e6      	b.n	5964 <_fdopen+0x28>
    5996:	f042 0204 	orr.w	r2, r2, #4
    599a:	f043 0301 	orr.w	r3, r3, #1
    599e:	e7e1      	b.n	5964 <_fdopen+0x28>
    59a0:	2400      	movs	r4, #0
    59a2:	e7ee      	b.n	5982 <_fdopen+0x46>

000059a4 <fclose>:
    59a4:	b5f0      	push	{r4, r5, r6, r7, lr}
    59a6:	68c4      	ldr	r4, [r0, #12]
    59a8:	07a1      	lsls	r1, r4, #30
    59aa:	b089      	sub	sp, #36	; 0x24
    59ac:	4605      	mov	r5, r0
    59ae:	d022      	beq.n	59f6 <fclose+0x52>
    59b0:	0722      	lsls	r2, r4, #28
    59b2:	d418      	bmi.n	59e6 <fclose+0x42>
    59b4:	e9d0 6704 	ldrd	r6, r7, [r0, #16]
    59b8:	f7fe fc3c 	bl	4234 <fflush>
    59bc:	4638      	mov	r0, r7
    59be:	f000 f87a 	bl	5ab6 <__sys_close>
    59c2:	0523      	lsls	r3, r4, #20
    59c4:	d502      	bpl.n	59cc <fclose+0x28>
    59c6:	4630      	mov	r0, r6
    59c8:	f7ff ff65 	bl	5896 <free>
    59cc:	0da4      	lsrs	r4, r4, #22
    59ce:	05a4      	lsls	r4, r4, #22
    59d0:	f114 4fa5 	cmn.w	r4, #1384120320	; 0x52800000
    59d4:	d107      	bne.n	59e6 <fclose+0x42>
    59d6:	2220      	movs	r2, #32
    59d8:	6a29      	ldr	r1, [r5, #32]
    59da:	4668      	mov	r0, sp
    59dc:	f000 f87a 	bl	5ad4 <__sys_tmpnam>
    59e0:	4668      	mov	r0, sp
    59e2:	f000 f80b 	bl	59fc <remove>
    59e6:	223c      	movs	r2, #60	; 0x3c
    59e8:	2100      	movs	r1, #0
    59ea:	4628      	mov	r0, r5
    59ec:	f7ff fe68 	bl	56c0 <memset>
    59f0:	2000      	movs	r0, #0
    59f2:	b009      	add	sp, #36	; 0x24
    59f4:	bdf0      	pop	{r4, r5, r6, r7, pc}
    59f6:	f04f 30ff 	mov.w	r0, #4294967295	; 0xffffffff
    59fa:	e7fa      	b.n	59f2 <fclose+0x4e>

000059fc <remove>:
    59fc:	b510      	push	{r4, lr}
    59fe:	4604      	mov	r4, r0
    5a00:	f7ff ff77 	bl	58f2 <strlen>
    5a04:	4601      	mov	r1, r0
    5a06:	4620      	mov	r0, r4
    5a08:	e8bd 4010 	ldmia.w	sp!, {r4, lr}
    5a0c:	f000 b85c 	b.w	5ac8 <__sys_remove>

00005a10 <_do_fflush>:
    5a10:	68c3      	ldr	r3, [r0, #12]
    5a12:	b570      	push	{r4, r5, r6, lr}
    5a14:	f013 0603 	ands.w	r6, r3, #3
    5a18:	4604      	mov	r4, r0
    5a1a:	d011      	beq.n	5a40 <_do_fflush+0x30>
    5a1c:	069b      	lsls	r3, r3, #26
    5a1e:	d511      	bpl.n	5a44 <_do_fflush+0x34>
    5a20:	6a85      	ldr	r5, [r0, #40]	; 0x28
    5a22:	f7ff fe4f 	bl	56c4 <_deferredlazyseek>
    5a26:	68e3      	ldr	r3, [r4, #12]
    5a28:	f423 5340 	bic.w	r3, r3, #12288	; 0x3000
    5a2c:	60e3      	str	r3, [r4, #12]
    5a2e:	4620      	mov	r0, r4
    5a30:	f7ff ff08 	bl	5844 <_fflush>
    5a34:	2200      	movs	r2, #0
    5a36:	4606      	mov	r6, r0
    5a38:	4629      	mov	r1, r5
    5a3a:	4620      	mov	r0, r4
    5a3c:	f7fe fade 	bl	3ffc <fseek>
    5a40:	4630      	mov	r0, r6
    5a42:	bd70      	pop	{r4, r5, r6, pc}
    5a44:	6983      	ldr	r3, [r0, #24]
    5a46:	6805      	ldr	r5, [r0, #0]
    5a48:	441d      	add	r5, r3
    5a4a:	6903      	ldr	r3, [r0, #16]
    5a4c:	1aed      	subs	r5, r5, r3
    5a4e:	e7ea      	b.n	5a26 <_do_fflush+0x16>

00005a50 <__aeabi_memcpy>:
    5a50:	ea40 0301 	orr.w	r3, r0, r1
    5a54:	07db      	lsls	r3, r3, #31
    5a56:	4603      	mov	r3, r0
    5a58:	d40c      	bmi.n	5a74 <copy1>

00005a5a <__aeabi_memcpy4>:
    5a5a:	4603      	mov	r3, r0
    5a5c:	3a04      	subs	r2, #4

00005a5e <copy4>:
    5a5e:	bf22      	ittt	cs
    5a60:	f851 cb04 	ldrcs.w	ip, [r1], #4
    5a64:	f843 cb04 	strcs.w	ip, [r3], #4
    5a68:	f1b2 0204 	subscs.w	r2, r2, #4
    5a6c:	d2f7      	bcs.n	5a5e <copy4>
    5a6e:	3204      	adds	r2, #4
    5a70:	bf08      	it	eq
    5a72:	4770      	bxeq	lr

00005a74 <copy1>:
    5a74:	3a01      	subs	r2, #1
    5a76:	bf24      	itt	cs
    5a78:	f811 cb01 	ldrbcs.w	ip, [r1], #1
    5a7c:	f803 cb01 	strbcs.w	ip, [r3], #1
    5a80:	d8f8      	bhi.n	5a74 <copy1>
    5a82:	4770      	bx	lr

00005a84 <__aeabi_lowlevel_memset>:
    5a84:	4603      	mov	r3, r0
    5a86:	f013 0f03 	tst.w	r3, #3
    5a8a:	d10e      	bne.n	5aaa <memset1a>
    5a8c:	f001 01ff 	and.w	r1, r1, #255	; 0xff
    5a90:	ea41 2101 	orr.w	r1, r1, r1, lsl #8
    5a94:	ea41 4101 	orr.w	r1, r1, r1, lsl #16

00005a98 <__bhs_memset4>:
    5a98:	3a04      	subs	r2, #4

00005a9a <memset4>:
    5a9a:	bf24      	itt	cs
    5a9c:	f843 1b04 	strcs.w	r1, [r3], #4
    5aa0:	f1b2 0204 	subscs.w	r2, r2, #4
    5aa4:	d2f9      	bcs.n	5a9a <memset4>

00005aa6 <memset1>:
    5aa6:	f102 0204 	add.w	r2, r2, #4

00005aaa <memset1a>:
    5aaa:	3a01      	subs	r2, #1
    5aac:	bf24      	itt	cs
    5aae:	f803 1b01 	strbcs.w	r1, [r3], #1
    5ab2:	e7fa      	bcs.n	5aaa <memset1a>
    5ab4:	4770      	bx	lr

00005ab6 <__sys_close>:
    5ab6:	f04f 30ff 	mov.w	r0, #4294967295	; 0xffffffff
    5aba:	4770      	bx	lr

00005abc <__sys_flen>:
    5abc:	f04f 30ff 	mov.w	r0, #4294967295	; 0xffffffff
    5ac0:	4770      	bx	lr

00005ac2 <__sys_istty>:
    5ac2:	f04f 30ff 	mov.w	r0, #4294967295	; 0xffffffff
    5ac6:	4770      	bx	lr

00005ac8 <__sys_remove>:
    5ac8:	f04f 30ff 	mov.w	r0, #4294967295	; 0xffffffff
    5acc:	4770      	bx	lr

00005ace <__sys_seek>:
    5ace:	f04f 30ff 	mov.w	r0, #4294967295	; 0xffffffff
    5ad2:	4770      	bx	lr

00005ad4 <__sys_tmpnam>:
    5ad4:	f04f 30ff 	mov.w	r0, #4294967295	; 0xffffffff
    5ad8:	4770      	bx	lr

00005ada <__sys_write>:
    5ada:	4610      	mov	r0, r2
    5adc:	4770      	bx	lr
    5ade:	ffff 2e2e 			; <UNDEFINED> instruction: 0xffff2e2e
    5ae2:	752f      	.short	0x752f
    5ae4:	696c6974 	.word	0x696c6974
    5ae8:	73656974 	.word	0x73656974
    5aec:	6c73662f 	.word	0x6c73662f
    5af0:	6265645f 	.word	0x6265645f
    5af4:	635f6775 	.word	0x635f6775
    5af8:	6f736e6f 	.word	0x6f736e6f
    5afc:	632e656c 	.word	0x632e656c
    5b00:	3530313a 	.word	0x3530313a
    5b04:	64203a20 	.word	0x64203a20
    5b08:	63697665 	.word	0x63697665
    5b0c:	3d212065 	.word	0x3d212065
    5b10:	42454420 	.word	0x42454420
    5b14:	435f4755 	.word	0x435f4755
    5b18:	4f534e4f 	.word	0x4f534e4f
    5b1c:	445f454c 	.word	0x445f454c
    5b20:	43495645 	.word	0x43495645
    5b24:	59545f45 	.word	0x59545f45
    5b28:	4e5f4550 	.word	0x4e5f4550
    5b2c:	00454e4f 	.word	0x00454e4f
    5b30:	752f2e2e 	.word	0x752f2e2e
    5b34:	696c6974 	.word	0x696c6974
    5b38:	73656974 	.word	0x73656974
    5b3c:	6c73662f 	.word	0x6c73662f
    5b40:	2e6f695f 	.word	0x2e6f695f
    5b44:	35323a63 	.word	0x35323a63
    5b48:	203a2035 	.word	0x203a2035
    5b4c:	4c4c554e 	.word	0x4c4c554e
    5b50:	203d2120 	.word	0x203d2120
    5b54:	ff006f69 	.word	0xff006f69
    5b58:	752f2e2e 	.word	0x752f2e2e
    5b5c:	696c6974 	.word	0x696c6974
    5b60:	73656974 	.word	0x73656974
    5b64:	6c73662f 	.word	0x6c73662f
    5b68:	676f6c5f 	.word	0x676f6c5f
    5b6c:	333a632e 	.word	0x333a632e
    5b70:	3a203931 	.word	0x3a203931
    5b74:	66756220 	.word	0x66756220
    5b78:	203d2120 	.word	0x203d2120
    5b7c:	4c4c554e 	.word	0x4c4c554e
    5b80:	00000000 	.word	0x00000000
    5b84:	752f2e2e 	.word	0x752f2e2e
    5b88:	696c6974 	.word	0x696c6974
    5b8c:	73656974 	.word	0x73656974
    5b90:	6c73662f 	.word	0x6c73662f
    5b94:	676f6c5f 	.word	0x676f6c5f
    5b98:	333a632e 	.word	0x333a632e
    5b9c:	3a203635 	.word	0x3a203635
    5ba0:	66756220 	.word	0x66756220
    5ba4:	203d2120 	.word	0x203d2120
    5ba8:	4c4c554e 	.word	0x4c4c554e
    5bac:	00000000 	.word	0x00000000
    5bb0:	752f2e2e 	.word	0x752f2e2e
    5bb4:	696c6974 	.word	0x696c6974
    5bb8:	73656974 	.word	0x73656974
    5bbc:	6c73662f 	.word	0x6c73662f
    5bc0:	676f6c5f 	.word	0x676f6c5f
    5bc4:	343a632e 	.word	0x343a632e
    5bc8:	3a203630 	.word	0x3a203630
    5bcc:	20686320 	.word	0x20686320
    5bd0:	4e203d21 	.word	0x4e203d21
    5bd4:	004c4c55 	.word	0x004c4c55
    5bd8:	6c6c6548 	.word	0x6c6c6548
    5bdc:	61745f6f 	.word	0x61745f6f
    5be0:	00006b73 	.word	0x00006b73
    5be4:	6b736154 	.word	0x6b736154
    5be8:	65726320 	.word	0x65726320
    5bec:	6f697461 	.word	0x6f697461
    5bf0:	6166206e 	.word	0x6166206e
    5bf4:	64656c69 	.word	0x64656c69
    5bf8:	0a0d2e21 	.word	0x0a0d2e21
    5bfc:	00000000 	.word	0x00000000
    5c00:	00007325 	.word	0x00007325
    5c04:	73746567 	.word	0x73746567
    5c08:	0d732520 	.word	0x0d732520
    5c0c:	0000000a 	.word	0x0000000a
    5c10:	54494e49 	.word	0x54494e49
    5c14:	2e4b4f20 	.word	0x2e4b4f20
    5c18:	ff000a0d 	.word	0xff000a0d
    5c1c:	642f2e2e 	.word	0x642f2e2e
    5c20:	65766972 	.word	0x65766972
    5c24:	662f7372 	.word	0x662f7372
    5c28:	635f6c73 	.word	0x635f6c73
    5c2c:	6b636f6c 	.word	0x6b636f6c
    5c30:	323a632e 	.word	0x323a632e
    5c34:	3a203834 	.word	0x3a203834
    5c38:	785f6720 	.word	0x785f6720
    5c3c:	306c6174 	.word	0x306c6174
    5c40:	71657246 	.word	0x71657246
    5c44:	00000000 	.word	0x00000000
    5c48:	642f2e2e 	.word	0x642f2e2e
    5c4c:	65766972 	.word	0x65766972
    5c50:	662f7372 	.word	0x662f7372
    5c54:	635f6c73 	.word	0x635f6c73
    5c58:	6b636f6c 	.word	0x6b636f6c
    5c5c:	323a632e 	.word	0x323a632e
    5c60:	3a203335 	.word	0x3a203335
    5c64:	785f6720 	.word	0x785f6720
    5c68:	336c6174 	.word	0x336c6174
    5c6c:	65724632 	.word	0x65724632
    5c70:	00000071 	.word	0x00000071
    5c74:	642f2e2e 	.word	0x642f2e2e
    5c78:	65766972 	.word	0x65766972
    5c7c:	662f7372 	.word	0x662f7372
    5c80:	635f6c73 	.word	0x635f6c73
    5c84:	6b636f6c 	.word	0x6b636f6c
    5c88:	333a632e 	.word	0x333a632e
    5c8c:	3a203038 	.word	0x3a203038
    5c90:	785f6720 	.word	0x785f6720
    5c94:	306c6174 	.word	0x306c6174
    5c98:	71657246 	.word	0x71657246
    5c9c:	00000000 	.word	0x00000000
    5ca0:	642f2e2e 	.word	0x642f2e2e
    5ca4:	65766972 	.word	0x65766972
    5ca8:	662f7372 	.word	0x662f7372
    5cac:	635f6c73 	.word	0x635f6c73
    5cb0:	6b636f6c 	.word	0x6b636f6c
    5cb4:	333a632e 	.word	0x333a632e
    5cb8:	3a203439 	.word	0x3a203439
    5cbc:	785f6720 	.word	0x785f6720
    5cc0:	306c6174 	.word	0x306c6174
    5cc4:	71657246 	.word	0x71657246
    5cc8:	00000000 	.word	0x00000000
    5ccc:	642f2e2e 	.word	0x642f2e2e
    5cd0:	65766972 	.word	0x65766972
    5cd4:	662f7372 	.word	0x662f7372
    5cd8:	635f6c73 	.word	0x635f6c73
    5cdc:	6b636f6c 	.word	0x6b636f6c
    5ce0:	343a632e 	.word	0x343a632e
    5ce4:	3a203431 	.word	0x3a203431
    5ce8:	785f6720 	.word	0x785f6720
    5cec:	336c6174 	.word	0x336c6174
    5cf0:	65724632 	.word	0x65724632
    5cf4:	00000071 	.word	0x00000071
    5cf8:	642f2e2e 	.word	0x642f2e2e
    5cfc:	65766972 	.word	0x65766972
    5d00:	662f7372 	.word	0x662f7372
    5d04:	635f6c73 	.word	0x635f6c73
    5d08:	6b636f6c 	.word	0x6b636f6c
    5d0c:	353a632e 	.word	0x353a632e
    5d10:	3a203035 	.word	0x3a203035
    5d14:	4c436b20 	.word	0x4c436b20
    5d18:	5f4b434f 	.word	0x5f4b434f
    5d1c:	53627355 	.word	0x53627355
    5d20:	73556372 	.word	0x73556372
    5d24:	64665062 	.word	0x64665062
    5d28:	203d2120 	.word	0x203d2120
    5d2c:	00637273 	.word	0x00637273
    5d30:	642f2e2e 	.word	0x642f2e2e
    5d34:	65766972 	.word	0x65766972
    5d38:	662f7372 	.word	0x662f7372
    5d3c:	635f6c73 	.word	0x635f6c73
    5d40:	6b636f6c 	.word	0x6b636f6c
    5d44:	363a632e 	.word	0x363a632e
    5d48:	3a203632 	.word	0x3a203632
    5d4c:	47434d20 	.word	0x47434d20
    5d50:	31433e2d 	.word	0x31433e2d
    5d54:	4d202620 	.word	0x4d202620
    5d58:	435f4743 	.word	0x435f4743
    5d5c:	52495f31 	.word	0x52495f31
    5d60:	454b4c43 	.word	0x454b4c43
    5d64:	414d5f4e 	.word	0x414d5f4e
    5d68:	00004b53 	.word	0x00004b53
    5d6c:	642f2e2e 	.word	0x642f2e2e
    5d70:	65766972 	.word	0x65766972
    5d74:	662f7372 	.word	0x662f7372
    5d78:	635f6c73 	.word	0x635f6c73
    5d7c:	6b636f6c 	.word	0x6b636f6c
    5d80:	363a632e 	.word	0x363a632e
    5d84:	3a203732 	.word	0x3a203732
    5d88:	4d282120 	.word	0x4d282120
    5d8c:	3e2d4743 	.word	0x3e2d4743
    5d90:	26203243 	.word	0x26203243
    5d94:	47434d20 	.word	0x47434d20
    5d98:	5f32435f 	.word	0x5f32435f
    5d9c:	53435249 	.word	0x53435249
    5da0:	53414d5f 	.word	0x53414d5f
    5da4:	0000294b 	.word	0x0000294b
    5da8:	642f2e2e 	.word	0x642f2e2e
    5dac:	65766972 	.word	0x65766972
    5db0:	662f7372 	.word	0x662f7372
    5db4:	635f6c73 	.word	0x635f6c73
    5db8:	6b636f6c 	.word	0x6b636f6c
    5dbc:	363a632e 	.word	0x363a632e
    5dc0:	3a203832 	.word	0x3a203832
    5dc4:	43534f20 	.word	0x43534f20
    5dc8:	433e2d30 	.word	0x433e2d30
    5dcc:	20262052 	.word	0x20262052
    5dd0:	5f43534f 	.word	0x5f43534f
    5dd4:	455f5243 	.word	0x455f5243
    5dd8:	4b4c4352 	.word	0x4b4c4352
    5ddc:	4d5f4e45 	.word	0x4d5f4e45
    5de0:	004b5341 	.word	0x004b5341
    5de4:	642f2e2e 	.word	0x642f2e2e
    5de8:	65766972 	.word	0x65766972
    5dec:	662f7372 	.word	0x662f7372
    5df0:	635f6c73 	.word	0x635f6c73
    5df4:	6b636f6c 	.word	0x6b636f6c
    5df8:	363a632e 	.word	0x363a632e
    5dfc:	3a203438 	.word	0x3a203438
    5e00:	72662820 	.word	0x72662820
    5e04:	3c206361 	.word	0x3c206361
    5e08:	3533203d 	.word	0x3533203d
    5e0c:	26202955 	.word	0x26202955
    5e10:	66282026 	.word	0x66282026
    5e14:	20636172 	.word	0x20636172
    5e18:	31203d3e 	.word	0x31203d3e
    5e1c:	00295538 	.word	0x00295538
    5e20:	642f2e2e 	.word	0x642f2e2e
    5e24:	65766972 	.word	0x65766972
    5e28:	662f7372 	.word	0x662f7372
    5e2c:	635f6c73 	.word	0x635f6c73
    5e30:	6b636f6c 	.word	0x6b636f6c
    5e34:	383a632e 	.word	0x383a632e
    5e38:	3a203532 	.word	0x3a203532
    5e3c:	67636d20 	.word	0x67636d20
    5e40:	306c6c70 	.word	0x306c6c70
    5e44:	006b6c63 	.word	0x006b6c63
    5e48:	642f2e2e 	.word	0x642f2e2e
    5e4c:	65766972 	.word	0x65766972
    5e50:	662f7372 	.word	0x662f7372
    5e54:	635f6c73 	.word	0x635f6c73
    5e58:	6b636f6c 	.word	0x6b636f6c
    5e5c:	313a632e 	.word	0x313a632e
    5e60:	20303330 	.word	0x20303330
    5e64:	6f63203a 	.word	0x6f63203a
    5e68:	6769666e 	.word	0x6769666e
    5e6c:	00000000 	.word	0x00000000
    5e70:	642f2e2e 	.word	0x642f2e2e
    5e74:	65766972 	.word	0x65766972
    5e78:	662f7372 	.word	0x662f7372
    5e7c:	635f6c73 	.word	0x635f6c73
    5e80:	6b636f6c 	.word	0x6b636f6c
    5e84:	313a632e 	.word	0x313a632e
    5e88:	20393137 	.word	0x20393137
    5e8c:	6f63203a 	.word	0x6f63203a
    5e90:	6769666e 	.word	0x6769666e
    5e94:	00000000 	.word	0x00000000
    5e98:	642f2e2e 	.word	0x642f2e2e
    5e9c:	65766972 	.word	0x65766972
    5ea0:	662f7372 	.word	0x662f7372
    5ea4:	635f6c73 	.word	0x635f6c73
    5ea8:	6b636f6c 	.word	0x6b636f6c
    5eac:	313a632e 	.word	0x313a632e
    5eb0:	20393938 	.word	0x20393938
    5eb4:	6f63203a 	.word	0x6f63203a
    5eb8:	6769666e 	.word	0x6769666e
    5ebc:	ffffff00 	.word	0xffffff00

00005ec0 <fllFactorTable.8155>:
    5ec0:	02dc0280 05b80500 08950780 0b710a00     ..............q.
    5ed0:	642f2e2e 65766972 662f7372 6c5f6c73     ../drivers/fsl_l
    5ee0:	72617570 3a632e74 20323431 6e69203a     puart.c:142 : in
    5ef0:	6e617473 3c206563 52524120 535f5941     stance < ARRAY_S
    5f00:	28455a49 706c5f73 74726175 65736142     IZE(s_lpuartBase
    5f10:	00002973 642f2e2e 65766972 662f7372     s)..../drivers/f
    5f20:	6c5f6c73 72617570 3a632e74 20393431     sl_lpuart.c:149 
    5f30:	6168203a 656c646e 00000000 642f2e2e     : handle....../d
    5f40:	65766972 662f7372 6c5f6c73 72617570     rivers/fsl_lpuar
    5f50:	3a632e74 20373631 6168203a 656c646e     t.c:167 : handle
    5f60:	00000000 642f2e2e 65766972 662f7372     ....../drivers/f
    5f70:	6c5f6c73 72617570 3a632e74 20343831     sl_lpuart.c:184 
    5f80:	6164203a 00006174 642f2e2e 65766972     : data..../drive
    5f90:	662f7372 6c5f6c73 72617570 3a632e74     rs/fsl_lpuart.c:
    5fa0:	20383931 6164203a 00006174 642f2e2e     198 : data..../d
    5fb0:	65766972 662f7372 6c5f6c73 72617570     rivers/fsl_lpuar
    5fc0:	3a632e74 20383232 6f63203a 6769666e     t.c:228 : config
    5fd0:	00000000 642f2e2e 65766972 662f7372     ....../drivers/f
    5fe0:	6c5f6c73 72617570 3a632e74 20393232     sl_lpuart.c:229 
    5ff0:	6f63203a 6769666e 61623e2d 61526475     : config->baudRa
    6000:	425f6574 00007370 642f2e2e 65766972     te_Bps..../drive
    6010:	662f7372 6c5f6c73 72617570 3a632e74     rs/fsl_lpuart.c:
    6020:	20323834 6f63203a 6769666e 00000000     482 : config....
    6030:	642f2e2e 65766972 662f7372 6c5f6c73     ../drivers/fsl_l
    6040:	72617570 3a632e74 20393035 6162203a     puart.c:509 : ba
    6050:	61526475 425f6574 00007370 642f2e2e     udRate_Bps..../d
    6060:	65766972 662f7372 6c5f6c73 72617570     rivers/fsl_lpuar
    6070:	3a632e74 20313836 6164203a 00006174     t.c:681 : data..
    6080:	642f2e2e 65766972 662f7372 6c5f6c73     ../drivers/fsl_l
    6090:	72617570 3a632e74 20363936 6164203a     puart.c:696 : da
    60a0:	00006174 642f2e2e 65766972 662f7372     ta..../drivers/f
    60b0:	6c5f6c73 72617570 3a632e74 20313637     sl_lpuart.c:761 
    60c0:	6168203a 656c646e 00000000 642f2e2e     : handle....../d
    60d0:	65766972 662f7372 6c5f6c73 72617570     rivers/fsl_lpuar
    60e0:	3a632e74 20383038 6168203a 656c646e     t.c:808 : handle
    60f0:	00000000 642f2e2e 65766972 662f7372     ....../drivers/f
    6100:	6c5f6c73 72617570 3a632e74 20393038     sl_lpuart.c:809 
    6110:	6972203a 7542676e 72656666 00000000     : ringBuffer....
    6120:	642f2e2e 65766972 662f7372 6c5f6c73     ../drivers/fsl_l
    6130:	72617570 3a632e74 20333238 6168203a     puart.c:823 : ha
    6140:	656c646e 00000000 642f2e2e 65766972     ndle....../drive
    6150:	662f7372 6c5f6c73 72617570 3a632e74     rs/fsl_lpuart.c:
    6160:	20383338 6168203a 656c646e 00000000     838 : handle....
    6170:	642f2e2e 65766972 662f7372 6c5f6c73     ../drivers/fsl_l
    6180:	72617570 3a632e74 20393338 6678203a     puart.c:839 : xf
    6190:	00007265 642f2e2e 65766972 662f7372     er..../drivers/f
    61a0:	6c5f6c73 72617570 3a632e74 20303438     sl_lpuart.c:840 
    61b0:	6678203a 3e2d7265 61746164 00000000     : xfer->data....
    61c0:	642f2e2e 65766972 662f7372 6c5f6c73     ../drivers/fsl_l
    61d0:	72617570 3a632e74 20313438 6678203a     puart.c:841 : xf
    61e0:	3e2d7265 61746164 657a6953 00000000     er->dataSize....
    61f0:	642f2e2e 65766972 662f7372 6c5f6c73     ../drivers/fsl_l
    6200:	72617570 3a632e74 20383638 6168203a     puart.c:868 : ha
    6210:	656c646e 00000000 642f2e2e 65766972     ndle....../drive
    6220:	662f7372 6c5f6c73 72617570 3a632e74     rs/fsl_lpuart.c:
    6230:	20383738 6168203a 656c646e 00000000     878 : handle....
    6240:	642f2e2e 65766972 662f7372 6c5f6c73     ../drivers/fsl_l
    6250:	72617570 3a632e74 20393738 6f63203a     puart.c:879 : co
    6260:	00746e75 642f2e2e 65766972 662f7372     unt.../drivers/f
    6270:	6c5f6c73 72617570 3a632e74 20363938     sl_lpuart.c:896 
    6280:	6168203a 656c646e 00000000 642f2e2e     : handle....../d
    6290:	65766972 662f7372 6c5f6c73 72617570     rivers/fsl_lpuar
    62a0:	3a632e74 20373938 6678203a 00007265     t.c:897 : xfer..
    62b0:	642f2e2e 65766972 662f7372 6c5f6c73     ../drivers/fsl_l
    62c0:	72617570 3a632e74 20383938 6678203a     puart.c:898 : xf
    62d0:	3e2d7265 61746164 00000000 642f2e2e     er->data....../d
    62e0:	65766972 662f7372 6c5f6c73 72617570     rivers/fsl_lpuar
    62f0:	3a632e74 20393938 6678203a 3e2d7265     t.c:899 : xfer->
    6300:	61746164 657a6953 00000000 642f2e2e     dataSize....../d
    6310:	65766972 662f7372 6c5f6c73 72617570     rivers/fsl_lpuar
    6320:	3a632e74 39303031 68203a20 6c646e61     t.c:1009 : handl
    6330:	00000065 642f2e2e 65766972 662f7372     e...../drivers/f
    6340:	6c5f6c73 72617570 3a632e74 35323031     sl_lpuart.c:1025
    6350:	68203a20 6c646e61 00000065 642f2e2e      : handle...../d
    6360:	65766972 662f7372 6c5f6c73 72617570     rivers/fsl_lpuar
    6370:	3a632e74 36323031 63203a20 746e756f     t.c:1026 : count
    6380:	00000000 642f2e2e 65766972 662f7372     ....../drivers/f
    6390:	6c5f6c73 72617570 3a632e74 30343031     sl_lpuart.c:1040
    63a0:	68203a20 6c646e61 ffff0065               : handle...

000063ac <s_uartBases>:
    63ac:	4006a000 4006b000 4006c000 4006d000     ...@...@...@...@
    63bc:	400ea000                                ...@

000063c0 <s_uartClock>:
    63c0:	1034000a 1034000b 1034000c 1034000d     ..4...4...4...4.
    63d0:	1028000a 642f2e2e 65766972 662f7372     ..(.../drivers/f
    63e0:	755f6c73 2e747261 36313a63 203a2031     sl_uart.c:161 : 
    63f0:	74736e69 65636e61 75203c20 41747261     instance < uartA
    6400:	79617272 6e756f43 00000074 642f2e2e     rrayCount...../d
    6410:	65766972 662f7372 755f6c73 2e747261     rivers/fsl_uart.
    6420:	36313a63 203a2038 646e6168 0000656c     c:168 : handle..
    6430:	642f2e2e 65766972 662f7372 755f6c73     ../drivers/fsl_u
    6440:	2e747261 38313a63 203a2036 646e6168     art.c:186 : hand
    6450:	0000656c 642f2e2e 65766972 662f7372     le..../drivers/f
    6460:	755f6c73 2e747261 30323a63 203a2034     sl_uart.c:204 : 
    6470:	666e6f63 00006769 642f2e2e 65766972     config..../drive
    6480:	662f7372 755f6c73 2e747261 30323a63     rs/fsl_uart.c:20
    6490:	203a2035 666e6f63 3e2d6769 64756162     5 : config->baud
    64a0:	65746152 7370425f 00000000 642f2e2e     Rate_Bps....../d
    64b0:	65766972 662f7372 755f6c73 2e747261     rivers/fsl_uart.
    64c0:	30323a63 203a2037 5f4c5346 54414546     c:207 : FSL_FEAT
    64d0:	5f455255 54524155 4649465f 49535f4f     URE_UART_FIFO_SI
    64e0:	286e455a 65736162 3d3e2029 6e6f6320     ZEn(base) >= con
    64f0:	2d676966 4678743e 576f6669 72657461     fig->txFifoWater
    6500:	6b72616d 00000000 642f2e2e 65766972     mark....../drive
    6510:	662f7372 755f6c73 2e747261 30323a63     rs/fsl_uart.c:20
    6520:	203a2038 5f4c5346 54414546 5f455255     8 : FSL_FEATURE_
    6530:	54524155 4649465f 49535f4f 286e455a     UART_FIFO_SIZEn(
    6540:	65736162 3d3e2029 6e6f6320 2d676966     base) >= config-
    6550:	4678723e 576f6669 72657461 6b72616d     >rxFifoWatermark
    6560:	00000000 642f2e2e 65766972 662f7372     ....../drivers/f
    6570:	755f6c73 2e747261 36333a63 203a2033     sl_uart.c:363 : 
    6580:	666e6f63 00006769 642f2e2e 65766972     config..../drive
    6590:	662f7372 755f6c73 2e747261 38333a63     rs/fsl_uart.c:38
    65a0:	203a2035 64756162 65746152 7370425f     5 : baudRate_Bps
    65b0:	00000000 642f2e2e 65766972 662f7372     ....../drivers/f
    65c0:	755f6c73 2e747261 37353a63 203a2037     sl_uart.c:577 : 
    65d0:	61746164 00000000 642f2e2e 65766972     data....../drive
    65e0:	662f7372 755f6c73 2e747261 39353a63     rs/fsl_uart.c:59
    65f0:	203a2031 61746164 00000000 642f2e2e     1 : data....../d
    6600:	65766972 662f7372 755f6c73 2e747261     rivers/fsl_uart.
    6610:	33363a63 203a2033 61746164 00000000     c:633 : data....
    6620:	642f2e2e 65766972 662f7372 755f6c73     ../drivers/fsl_u
    6630:	2e747261 35363a63 203a2030 646e6168     art.c:650 : hand
    6640:	0000656c 642f2e2e 65766972 662f7372     le..../drivers/f
    6650:	755f6c73 2e747261 37363a63 203a2038     sl_uart.c:678 : 
    6660:	646e6168 0000656c 642f2e2e 65766972     handle..../drive
    6670:	662f7372 755f6c73 2e747261 37363a63     rs/fsl_uart.c:67
    6680:	203a2039 676e6972 66667542 00007265     9 : ringBuffer..
    6690:	642f2e2e 65766972 662f7372 755f6c73     ../drivers/fsl_u
    66a0:	2e747261 39363a63 203a2039 646e6168     art.c:699 : hand
    66b0:	0000656c 642f2e2e 65766972 662f7372     le..../drivers/f
    66c0:	755f6c73 2e747261 32373a63 203a2030     sl_uart.c:720 : 
    66d0:	646e6168 0000656c 642f2e2e 65766972     handle..../drive
    66e0:	662f7372 755f6c73 2e747261 32373a63     rs/fsl_uart.c:72
    66f0:	203a2031 72656678 00000000 642f2e2e     1 : xfer....../d
    6700:	65766972 662f7372 755f6c73 2e747261     rivers/fsl_uart.
    6710:	32373a63 203a2032 72656678 61643e2d     c:722 : xfer->da
    6720:	69536174 0000657a 642f2e2e 65766972     taSize..../drive
    6730:	662f7372 755f6c73 2e747261 32373a63     rs/fsl_uart.c:72
    6740:	203a2033 72656678 61643e2d 00006174     3 : xfer->data..
    6750:	642f2e2e 65766972 662f7372 755f6c73     ../drivers/fsl_u
    6760:	2e747261 35373a63 203a2030 646e6168     art.c:750 : hand
    6770:	0000656c 642f2e2e 65766972 662f7372     le..../drivers/f
    6780:	755f6c73 2e747261 36373a63 203a2030     sl_uart.c:760 : 
    6790:	646e6168 0000656c 642f2e2e 65766972     handle..../drive
    67a0:	662f7372 755f6c73 2e747261 36373a63     rs/fsl_uart.c:76
    67b0:	203a2031 6e756f63 00000074 642f2e2e     1 : count...../d
    67c0:	65766972 662f7372 755f6c73 2e747261     rivers/fsl_uart.
    67d0:	37373a63 203a2038 646e6168 0000656c     c:778 : handle..
    67e0:	642f2e2e 65766972 662f7372 755f6c73     ../drivers/fsl_u
    67f0:	2e747261 37373a63 203a2039 72656678     art.c:779 : xfer
    6800:	00000000 642f2e2e 65766972 662f7372     ....../drivers/f
    6810:	755f6c73 2e747261 38373a63 203a2030     sl_uart.c:780 : 
    6820:	72656678 61643e2d 00006174 642f2e2e     xfer->data..../d
    6830:	65766972 662f7372 755f6c73 2e747261     rivers/fsl_uart.
    6840:	38373a63 203a2031 72656678 61643e2d     c:781 : xfer->da
    6850:	69536174 0000657a 642f2e2e 65766972     taSize..../drive
    6860:	662f7372 755f6c73 2e747261 39383a63     rs/fsl_uart.c:89
    6870:	203a2037 646e6168 0000656c 642f2e2e     7 : handle..../d
    6880:	65766972 662f7372 755f6c73 2e747261     rivers/fsl_uart.
    6890:	31393a63 203a2038 646e6168 0000656c     c:918 : handle..
    68a0:	642f2e2e 65766972 662f7372 755f6c73     ../drivers/fsl_u
    68b0:	2e747261 31393a63 203a2039 6e756f63     art.c:919 : coun
    68c0:	00000074 642f2e2e 65766972 662f7372     t...../drivers/f
    68d0:	755f6c73 2e747261 33393a63 203a2038     sl_uart.c:938 : 
    68e0:	646e6168 ff00656c                       handle..

000068e8 <mcgConfig_BOARD_BootClockRUN>:
    68e8:	00000207 00000000 00040000              ............

000068f4 <simConfig_BOARD_BootClockRUN>:
    68f4:	02000001 01140000                       ........

000068fc <oscConfig_BOARD_BootClockRUN>:
    68fc:	00b71b00 00800400 454c4449 00000000     ........IDLE....

0000690c <FreeRTOSDebugConfig>:
    690c:	000a0101 04000401 4c343018 00051450     .........04LP...
    691c:	20726d54 00637653 51726d54 ffffff00     Tmr Svc.TmrQ....

0000692c <__num_Ciob_streams>:
    692c:	00000003 202a2a2a 65737361 66207472     ....*** assert f
    693c:	656c6961 203a2064 2a2a2a00 73435f20     ailed : .*** _Cs
    694c:	615f7379 636f6c6c 69616620 0a64656c     ys_alloc failed.
    695c:	77007200 ffffff00 ffffffff              .r.w........
