
frdmk66f_rtos_hello_bug.axf:     file format elf32-littlearm


Disassembly of section .text:

00000000 <__Vectors>:
       0:	00 00 03 20 0d 02 00 00 89 02 00 00 63 4c 00 00     ... ........cL..
      10:	8d 02 00 00 8f 02 00 00 91 02 00 00 00 00 00 00     ................
	...
      2c:	11 04 00 00 95 02 00 00 00 00 00 00 41 04 00 00     ............A...
      3c:	29 28 00 00 43 49 00 00 4b 49 00 00 53 49 00 00     )(..CI..KI..SI..
      4c:	5b 49 00 00 63 49 00 00 6b 49 00 00 73 49 00 00     [I..cI..kI..sI..
      5c:	7b 49 00 00 83 49 00 00 8b 49 00 00 93 49 00 00     {I...I...I...I..
      6c:	9b 49 00 00 a3 49 00 00 ab 49 00 00 b3 49 00 00     .I...I...I...I..
      7c:	bb 49 00 00 c3 49 00 00 cb 49 00 00 d3 49 00 00     .I...I...I...I..
      8c:	db 49 00 00 e3 49 00 00 eb 49 00 00 f3 49 00 00     .I...I...I...I..
      9c:	fb 49 00 00 03 4a 00 00 0b 4a 00 00 13 4a 00 00     .I...J...J...J..
      ac:	1b 4a 00 00 23 4a 00 00 2b 4a 00 00 33 4a 00 00     .J..#J..+J..3J..
      bc:	3b 4a 00 00 43 4a 00 00 4b 4a 00 00 53 4a 00 00     ;J..CJ..KJ..SJ..
      cc:	5b 4a 00 00 63 4a 00 00 6b 4a 00 00 73 4a 00 00     [J..cJ..kJ..sJ..
      dc:	7b 4a 00 00 83 4a 00 00 8b 4a 00 00 93 4a 00 00     {J...J...J...J..
      ec:	9b 4a 00 00 a3 4a 00 00 ab 4a 00 00 b3 4a 00 00     .J...J...J...J..
      fc:	bb 4a 00 00 c3 4a 00 00 cb 4a 00 00 d3 4a 00 00     .J...J...J...J..
     10c:	db 4a 00 00 e3 4a 00 00 eb 4a 00 00 f3 4a 00 00     .J...J...J...J..
     11c:	fb 4a 00 00 03 4b 00 00 0b 4b 00 00 13 4b 00 00     .J...K...K...K..
     12c:	1b 4b 00 00 23 4b 00 00 2b 4b 00 00 33 4b 00 00     .K..#K..+K..3K..
     13c:	3b 4b 00 00 43 4b 00 00 4b 4b 00 00 53 4b 00 00     ;K..CK..KK..SK..
     14c:	5b 4b 00 00 63 4b 00 00 6b 4b 00 00 73 4b 00 00     [K..cK..kK..sK..
     15c:	7b 4b 00 00 83 4b 00 00 8b 4b 00 00 93 4b 00 00     {K...K...K...K..
     16c:	9b 4b 00 00 a3 4b 00 00 ab 4b 00 00 b3 4b 00 00     .K...K...K...K..
     17c:	bb 4b 00 00 c3 4b 00 00 cb 4b 00 00 d3 4b 00 00     .K...K...K...K..
     18c:	db 4b 00 00 e3 4b 00 00 eb 4b 00 00 f3 4b 00 00     .K...K...K...K..
     19c:	fb 4b 00 00 03 4c 00 00 0b 4c 00 00 13 4c 00 00     .K...L...L...L..
     1ac:	1b 4c 00 00 23 4c 00 00 2b 4c 00 00 33 4c 00 00     .L..#L..+L..3L..
     1bc:	3b 4c 00 00 43 4c 00 00 4b 4c 00 00 53 4c 00 00     ;L..CL..KL..SL..
     1cc:	5b 4c 00 00                                         [L..

000001d0 <__data_section_table>:
     1d0:	00006968 	.word	0x00006968
     1d4:	20000000 	.word	0x20000000
     1d8:	00000010 	.word	0x00000010
     1dc:	00006968 	.word	0x00006968
     1e0:	1fff0000 	.word	0x1fff0000
     1e4:	00000000 	.word	0x00000000
     1e8:	00006968 	.word	0x00006968
     1ec:	14000000 	.word	0x14000000
     1f0:	00000000 	.word	0x00000000

000001f4 <__bss_section_table>:
     1f4:	20000010 	.word	0x20000010
     1f8:	00002a98 	.word	0x00002a98
     1fc:	1fff0000 	.word	0x1fff0000
     200:	00000000 	.word	0x00000000
     204:	14000000 	.word	0x14000000
     208:	00000000 	.word	0x00000000

0000020c <ResetISR>:
     20c:	b510      	push	{r4, lr}
     20e:	b672      	cpsid	i
     210:	f003 fe06 	bl	3e20 <SystemInit>
     214:	4b0d      	ldr	r3, [pc, #52]	; (24c <ResetISR+0x40>)
     216:	e007      	b.n	228 <ResetISR+0x1c>
     218:	f103 040c 	add.w	r4, r3, #12
     21c:	689a      	ldr	r2, [r3, #8]
     21e:	6859      	ldr	r1, [r3, #4]
     220:	6818      	ldr	r0, [r3, #0]
     222:	f000 f819 	bl	258 <data_init>
     226:	4623      	mov	r3, r4
     228:	4a09      	ldr	r2, [pc, #36]	; (250 <ResetISR+0x44>)
     22a:	4293      	cmp	r3, r2
     22c:	d3f4      	bcc.n	218 <ResetISR+0xc>
     22e:	e006      	b.n	23e <ResetISR+0x32>
     230:	461c      	mov	r4, r3
     232:	6859      	ldr	r1, [r3, #4]
     234:	f854 0b08 	ldr.w	r0, [r4], #8
     238:	f000 f81d 	bl	276 <bss_init>
     23c:	4623      	mov	r3, r4
     23e:	4a05      	ldr	r2, [pc, #20]	; (254 <ResetISR+0x48>)
     240:	4293      	cmp	r3, r2
     242:	d3f5      	bcc.n	230 <ResetISR+0x24>
     244:	b662      	cpsie	i
     246:	f005 fa31 	bl	56ac <__main>
     24a:	e7fe      	b.n	24a <ResetISR+0x3e>
     24c:	000001d0 	.word	0x000001d0
     250:	000001f4 	.word	0x000001f4
     254:	0000020c 	.word	0x0000020c

00000258 <data_init>:
     258:	2300      	movs	r3, #0
     25a:	4293      	cmp	r3, r2
     25c:	d20a      	bcs.n	274 <data_init+0x1c>
     25e:	b410      	push	{r4}
     260:	6804      	ldr	r4, [r0, #0]
     262:	600c      	str	r4, [r1, #0]
     264:	3304      	adds	r3, #4
     266:	3004      	adds	r0, #4
     268:	3104      	adds	r1, #4
     26a:	4293      	cmp	r3, r2
     26c:	d3f8      	bcc.n	260 <data_init+0x8>
     26e:	f85d 4b04 	ldr.w	r4, [sp], #4
     272:	4770      	bx	lr
     274:	4770      	bx	lr

00000276 <bss_init>:
     276:	2300      	movs	r3, #0
     278:	e003      	b.n	282 <bss_init+0xc>
     27a:	2200      	movs	r2, #0
     27c:	6002      	str	r2, [r0, #0]
     27e:	3304      	adds	r3, #4
     280:	3004      	adds	r0, #4
     282:	428b      	cmp	r3, r1
     284:	d3f9      	bcc.n	27a <bss_init+0x4>
     286:	4770      	bx	lr

00000288 <NMI_Handler>:
     288:	e7fe      	b.n	288 <NMI_Handler>
     28a:	e7fe      	b.n	28a <NMI_Handler+0x2>

0000028c <MemManage_Handler>:
     28c:	e7fe      	b.n	28c <MemManage_Handler>

0000028e <BusFault_Handler>:
     28e:	e7fe      	b.n	28e <BusFault_Handler>

00000290 <UsageFault_Handler>:
     290:	e7fe      	b.n	290 <UsageFault_Handler>
     292:	e7fe      	b.n	292 <UsageFault_Handler+0x2>

00000294 <DebugMon_Handler>:
     294:	e7fe      	b.n	294 <DebugMon_Handler>
     296:	e7fe      	b.n	296 <DebugMon_Handler+0x2>
     298:	e7fe      	b.n	298 <DebugMon_Handler+0x4>

0000029a <ADC0_DriverIRQHandler>:
     29a:	e7fe      	b.n	29a <ADC0_DriverIRQHandler>
     29c:	ffff ffff 			; <UNDEFINED> instruction: 0xffffffff
     2a0:	ffff ffff 			; <UNDEFINED> instruction: 0xffffffff
     2a4:	ffff ffff 			; <UNDEFINED> instruction: 0xffffffff
     2a8:	ffff ffff 			; <UNDEFINED> instruction: 0xffffffff
     2ac:	ffff ffff 			; <UNDEFINED> instruction: 0xffffffff
     2b0:	ffff ffff 			; <UNDEFINED> instruction: 0xffffffff
     2b4:	ffff ffff 			; <UNDEFINED> instruction: 0xffffffff
     2b8:	ffff ffff 			; <UNDEFINED> instruction: 0xffffffff
     2bc:	ffff ffff 			; <UNDEFINED> instruction: 0xffffffff
     2c0:	ffff ffff 			; <UNDEFINED> instruction: 0xffffffff
     2c4:	ffff ffff 			; <UNDEFINED> instruction: 0xffffffff
     2c8:	ffff ffff 			; <UNDEFINED> instruction: 0xffffffff
     2cc:	ffff ffff 			; <UNDEFINED> instruction: 0xffffffff
     2d0:	ffff ffff 			; <UNDEFINED> instruction: 0xffffffff
     2d4:	ffff ffff 			; <UNDEFINED> instruction: 0xffffffff
     2d8:	ffff ffff 			; <UNDEFINED> instruction: 0xffffffff
     2dc:	ffff ffff 			; <UNDEFINED> instruction: 0xffffffff
     2e0:	ffff ffff 			; <UNDEFINED> instruction: 0xffffffff
     2e4:	ffff ffff 			; <UNDEFINED> instruction: 0xffffffff
     2e8:	ffff ffff 			; <UNDEFINED> instruction: 0xffffffff
     2ec:	ffff ffff 			; <UNDEFINED> instruction: 0xffffffff
     2f0:	ffff ffff 			; <UNDEFINED> instruction: 0xffffffff
     2f4:	ffff ffff 			; <UNDEFINED> instruction: 0xffffffff
     2f8:	ffff ffff 			; <UNDEFINED> instruction: 0xffffffff
     2fc:	ffff ffff 			; <UNDEFINED> instruction: 0xffffffff
     300:	ffff ffff 			; <UNDEFINED> instruction: 0xffffffff
     304:	ffff ffff 			; <UNDEFINED> instruction: 0xffffffff
     308:	ffff ffff 			; <UNDEFINED> instruction: 0xffffffff
     30c:	ffff ffff 			; <UNDEFINED> instruction: 0xffffffff
     310:	ffff ffff 			; <UNDEFINED> instruction: 0xffffffff
     314:	ffff ffff 			; <UNDEFINED> instruction: 0xffffffff
     318:	ffff ffff 			; <UNDEFINED> instruction: 0xffffffff
     31c:	ffff ffff 			; <UNDEFINED> instruction: 0xffffffff
     320:	ffff ffff 			; <UNDEFINED> instruction: 0xffffffff
     324:	ffff ffff 			; <UNDEFINED> instruction: 0xffffffff
     328:	ffff ffff 			; <UNDEFINED> instruction: 0xffffffff
     32c:	ffff ffff 			; <UNDEFINED> instruction: 0xffffffff
     330:	ffff ffff 			; <UNDEFINED> instruction: 0xffffffff
     334:	ffff ffff 			; <UNDEFINED> instruction: 0xffffffff
     338:	ffff ffff 			; <UNDEFINED> instruction: 0xffffffff
     33c:	ffff ffff 			; <UNDEFINED> instruction: 0xffffffff
     340:	ffff ffff 			; <UNDEFINED> instruction: 0xffffffff
     344:	ffff ffff 			; <UNDEFINED> instruction: 0xffffffff
     348:	ffff ffff 			; <UNDEFINED> instruction: 0xffffffff
     34c:	ffff ffff 			; <UNDEFINED> instruction: 0xffffffff
     350:	ffff ffff 			; <UNDEFINED> instruction: 0xffffffff
     354:	ffff ffff 			; <UNDEFINED> instruction: 0xffffffff
     358:	ffff ffff 			; <UNDEFINED> instruction: 0xffffffff
     35c:	ffff ffff 			; <UNDEFINED> instruction: 0xffffffff
     360:	ffff ffff 			; <UNDEFINED> instruction: 0xffffffff
     364:	ffff ffff 			; <UNDEFINED> instruction: 0xffffffff
     368:	ffff ffff 			; <UNDEFINED> instruction: 0xffffffff
     36c:	ffff ffff 			; <UNDEFINED> instruction: 0xffffffff
     370:	ffff ffff 			; <UNDEFINED> instruction: 0xffffffff
     374:	ffff ffff 			; <UNDEFINED> instruction: 0xffffffff
     378:	ffff ffff 			; <UNDEFINED> instruction: 0xffffffff
     37c:	ffff ffff 			; <UNDEFINED> instruction: 0xffffffff
     380:	ffff ffff 			; <UNDEFINED> instruction: 0xffffffff
     384:	ffff ffff 			; <UNDEFINED> instruction: 0xffffffff
     388:	ffff ffff 			; <UNDEFINED> instruction: 0xffffffff
     38c:	ffff ffff 			; <UNDEFINED> instruction: 0xffffffff
     390:	ffff ffff 			; <UNDEFINED> instruction: 0xffffffff
     394:	ffff ffff 			; <UNDEFINED> instruction: 0xffffffff
     398:	ffff ffff 			; <UNDEFINED> instruction: 0xffffffff
     39c:	ffff ffff 			; <UNDEFINED> instruction: 0xffffffff
     3a0:	ffff ffff 			; <UNDEFINED> instruction: 0xffffffff
     3a4:	ffff ffff 			; <UNDEFINED> instruction: 0xffffffff
     3a8:	ffff ffff 			; <UNDEFINED> instruction: 0xffffffff
     3ac:	ffff ffff 			; <UNDEFINED> instruction: 0xffffffff
     3b0:	ffff ffff 			; <UNDEFINED> instruction: 0xffffffff
     3b4:	ffff ffff 			; <UNDEFINED> instruction: 0xffffffff
     3b8:	ffff ffff 			; <UNDEFINED> instruction: 0xffffffff
     3bc:	ffff ffff 			; <UNDEFINED> instruction: 0xffffffff
     3c0:	ffff ffff 			; <UNDEFINED> instruction: 0xffffffff
     3c4:	ffff ffff 			; <UNDEFINED> instruction: 0xffffffff
     3c8:	ffff ffff 			; <UNDEFINED> instruction: 0xffffffff
     3cc:	ffff ffff 			; <UNDEFINED> instruction: 0xffffffff
     3d0:	ffff ffff 			; <UNDEFINED> instruction: 0xffffffff
     3d4:	ffff ffff 			; <UNDEFINED> instruction: 0xffffffff
     3d8:	ffff ffff 			; <UNDEFINED> instruction: 0xffffffff
     3dc:	ffff ffff 			; <UNDEFINED> instruction: 0xffffffff
     3e0:	ffff ffff 			; <UNDEFINED> instruction: 0xffffffff
     3e4:	ffff ffff 			; <UNDEFINED> instruction: 0xffffffff
     3e8:	ffff ffff 			; <UNDEFINED> instruction: 0xffffffff
     3ec:	ffff ffff 			; <UNDEFINED> instruction: 0xffffffff
     3f0:	ffff ffff 			; <UNDEFINED> instruction: 0xffffffff
     3f4:	ffff ffff 			; <UNDEFINED> instruction: 0xffffffff
     3f8:	ffff ffff 			; <UNDEFINED> instruction: 0xffffffff
     3fc:	ffff ffff 			; <UNDEFINED> instruction: 0xffffffff

00000400 <Flash_Config>:
     400:	ffff ffff ffff ffff ffff ffff fffe ffff     ................

00000410 <SVC_Handler>:
     410:	4b07      	ldr	r3, [pc, #28]	; (430 <pxCurrentTCBConst2>)
     412:	6819      	ldr	r1, [r3, #0]
     414:	6808      	ldr	r0, [r1, #0]
     416:	e8b0 4ff0 	ldmia.w	r0!, {r4, r5, r6, r7, r8, r9, sl, fp, lr}
     41a:	f380 8809 	msr	PSP, r0
     41e:	f3bf 8f6f 	isb	sy
     422:	f04f 0000 	mov.w	r0, #0
     426:	f380 8811 	msr	BASEPRI, r0
     42a:	4770      	bx	lr
     42c:	f3af 8000 	nop.w

00000430 <pxCurrentTCBConst2>:
     430:	200028a0 	.word	0x200028a0
     434:	bf00      	nop
     436:	bf00      	nop
     438:	ffff ffff 			; <UNDEFINED> instruction: 0xffffffff
     43c:	ffff ffff 			; <UNDEFINED> instruction: 0xffffffff

00000440 <PendSV_Handler>:
     440:	f3ef 8009 	mrs	r0, PSP
     444:	f3bf 8f6f 	isb	sy
     448:	4b15      	ldr	r3, [pc, #84]	; (4a0 <pxCurrentTCBConst>)
     44a:	681a      	ldr	r2, [r3, #0]
     44c:	f01e 0f10 	tst.w	lr, #16
     450:	bf08      	it	eq
     452:	ed20 8a10 	vstmdbeq	r0!, {s16-s31}
     456:	e920 4ff0 	stmdb	r0!, {r4, r5, r6, r7, r8, r9, sl, fp, lr}
     45a:	6010      	str	r0, [r2, #0]
     45c:	e92d 0009 	stmdb	sp!, {r0, r3}
     460:	f04f 0020 	mov.w	r0, #32
     464:	f380 8811 	msr	BASEPRI, r0
     468:	f3bf 8f4f 	dsb	sy
     46c:	f3bf 8f6f 	isb	sy
     470:	f002 fec8 	bl	3204 <vTaskSwitchContext>
     474:	f04f 0000 	mov.w	r0, #0
     478:	f380 8811 	msr	BASEPRI, r0
     47c:	bc09      	pop	{r0, r3}
     47e:	6819      	ldr	r1, [r3, #0]
     480:	6808      	ldr	r0, [r1, #0]
     482:	e8b0 4ff0 	ldmia.w	r0!, {r4, r5, r6, r7, r8, r9, sl, fp, lr}
     486:	f01e 0f10 	tst.w	lr, #16
     48a:	bf08      	it	eq
     48c:	ecb0 8a10 	vldmiaeq	r0!, {s16-s31}
     490:	f380 8809 	msr	PSP, r0
     494:	f3bf 8f6f 	isb	sy
     498:	4770      	bx	lr
     49a:	bf00      	nop
     49c:	f3af 8000 	nop.w

000004a0 <pxCurrentTCBConst>:
     4a0:	200028a0 	.word	0x200028a0
     4a4:	bf00      	nop
     4a6:	bf00      	nop

000004a8 <DbgConsole_Init>:
     4a8:	b580      	push	{r7, lr}
     4aa:	b084      	sub	sp, #16
     4ac:	af00      	add	r7, sp, #0
     4ae:	60f8      	str	r0, [r7, #12]
     4b0:	60b9      	str	r1, [r7, #8]
     4b2:	603b      	str	r3, [r7, #0]
     4b4:	4613      	mov	r3, r2
     4b6:	71fb      	strb	r3, [r7, #7]
     4b8:	79fb      	ldrb	r3, [r7, #7]
     4ba:	2b00      	cmp	r3, #0
     4bc:	d102      	bne.n	4c4 <DbgConsole_Init+0x1c>
     4be:	4807      	ldr	r0, [pc, #28]	; (4dc <DbgConsole_Init+0x34>)
     4c0:	f003 fccc 	bl	3e5c <__assertion_failed>
     4c4:	79f9      	ldrb	r1, [r7, #7]
     4c6:	683b      	ldr	r3, [r7, #0]
     4c8:	68ba      	ldr	r2, [r7, #8]
     4ca:	68f8      	ldr	r0, [r7, #12]
     4cc:	f003 ffad 	bl	442a <LOG_Init>
     4d0:	4603      	mov	r3, r0
     4d2:	4618      	mov	r0, r3
     4d4:	3710      	adds	r7, #16
     4d6:	46bd      	mov	sp, r7
     4d8:	bd80      	pop	{r7, pc}
     4da:	bf00      	nop
     4dc:	00005ae0 	.word	0x00005ae0

000004e0 <DbgConsole_Printf>:
     4e0:	b40f      	push	{r0, r1, r2, r3}
     4e2:	b580      	push	{r7, lr}
     4e4:	b0a4      	sub	sp, #144	; 0x90
     4e6:	af00      	add	r7, sp, #0
     4e8:	2300      	movs	r3, #0
     4ea:	f8c7 308c 	str.w	r3, [r7, #140]	; 0x8c
     4ee:	2300      	movs	r3, #0
     4f0:	f8c7 3088 	str.w	r3, [r7, #136]	; 0x88
     4f4:	1d3b      	adds	r3, r7, #4
     4f6:	2280      	movs	r2, #128	; 0x80
     4f8:	2100      	movs	r1, #0
     4fa:	4618      	mov	r0, r3
     4fc:	f005 f8e0 	bl	56c0 <memset>
     500:	f107 039c 	add.w	r3, r7, #156	; 0x9c
     504:	f8c7 3084 	str.w	r3, [r7, #132]	; 0x84
     508:	1d3a      	adds	r2, r7, #4
     50a:	4b0d      	ldr	r3, [pc, #52]	; (540 <DbgConsole_Printf+0x60>)
     50c:	f8d7 1084 	ldr.w	r1, [r7, #132]	; 0x84
     510:	f8d7 0098 	ldr.w	r0, [r7, #152]	; 0x98
     514:	f004 f88f 	bl	4636 <StrFormatPrintf>
     518:	f8c7 008c 	str.w	r0, [r7, #140]	; 0x8c
     51c:	f8d7 208c 	ldr.w	r2, [r7, #140]	; 0x8c
     520:	1d3b      	adds	r3, r7, #4
     522:	4611      	mov	r1, r2
     524:	4618      	mov	r0, r3
     526:	f000 f8af 	bl	688 <LOG_Push>
     52a:	f8c7 0088 	str.w	r0, [r7, #136]	; 0x88
     52e:	f8d7 3088 	ldr.w	r3, [r7, #136]	; 0x88
     532:	4618      	mov	r0, r3
     534:	3790      	adds	r7, #144	; 0x90
     536:	46bd      	mov	sp, r7
     538:	e8bd 4080 	ldmia.w	sp!, {r7, lr}
     53c:	b004      	add	sp, #16
     53e:	4770      	bx	lr
     540:	000042d7 	.word	0x000042d7

00000544 <IO_Init>:
     544:	b580      	push	{r7, lr}
     546:	b08c      	sub	sp, #48	; 0x30
     548:	af00      	add	r7, sp, #0
     54a:	60f8      	str	r0, [r7, #12]
     54c:	60b9      	str	r1, [r7, #8]
     54e:	607a      	str	r2, [r7, #4]
     550:	603b      	str	r3, [r7, #0]
     552:	68fb      	ldr	r3, [r7, #12]
     554:	2b00      	cmp	r3, #0
     556:	d102      	bne.n	55e <IO_Init+0x1a>
     558:	4827      	ldr	r0, [pc, #156]	; (5f8 <IO_Init+0xb4>)
     55a:	f003 fc7f 	bl	3e5c <__assertion_failed>
     55e:	68fb      	ldr	r3, [r7, #12]
     560:	791a      	ldrb	r2, [r3, #4]
     562:	4b26      	ldr	r3, [pc, #152]	; (5fc <IO_Init+0xb8>)
     564:	711a      	strb	r2, [r3, #4]
     566:	68fb      	ldr	r3, [r7, #12]
     568:	681b      	ldr	r3, [r3, #0]
     56a:	4a24      	ldr	r2, [pc, #144]	; (5fc <IO_Init+0xb8>)
     56c:	6013      	str	r3, [r2, #0]
     56e:	4b23      	ldr	r3, [pc, #140]	; (5fc <IO_Init+0xb8>)
     570:	791b      	ldrb	r3, [r3, #4]
     572:	2b02      	cmp	r3, #2
     574:	d020      	beq.n	5b8 <IO_Init+0x74>
     576:	2b06      	cmp	r3, #6
     578:	d002      	beq.n	580 <IO_Init+0x3c>
     57a:	2b01      	cmp	r3, #1
     57c:	d000      	beq.n	580 <IO_Init+0x3c>
     57e:	e037      	b.n	5f0 <IO_Init+0xac>
     580:	f107 0320 	add.w	r3, r7, #32
     584:	4618      	mov	r0, r3
     586:	f001 fc6b 	bl	1e60 <UART_GetDefaultConfig>
     58a:	68bb      	ldr	r3, [r7, #8]
     58c:	623b      	str	r3, [r7, #32]
     58e:	4b1b      	ldr	r3, [pc, #108]	; (5fc <IO_Init+0xb8>)
     590:	681b      	ldr	r3, [r3, #0]
     592:	f107 0120 	add.w	r1, r7, #32
     596:	687a      	ldr	r2, [r7, #4]
     598:	4618      	mov	r0, r3
     59a:	f001 faf5 	bl	1b88 <UART_Init>
     59e:	4b17      	ldr	r3, [pc, #92]	; (5fc <IO_Init+0xb8>)
     5a0:	681b      	ldr	r3, [r3, #0]
     5a2:	2101      	movs	r1, #1
     5a4:	4618      	mov	r0, r3
     5a6:	f003 fec8 	bl	433a <UART_EnableTx>
     5aa:	4b14      	ldr	r3, [pc, #80]	; (5fc <IO_Init+0xb8>)
     5ac:	681b      	ldr	r3, [r3, #0]
     5ae:	2101      	movs	r1, #1
     5b0:	4618      	mov	r0, r3
     5b2:	f003 fee2 	bl	437a <UART_EnableRx>
     5b6:	e01b      	b.n	5f0 <IO_Init+0xac>
     5b8:	f107 0310 	add.w	r3, r7, #16
     5bc:	4618      	mov	r0, r3
     5be:	f001 f9a9 	bl	1914 <LPUART_GetDefaultConfig>
     5c2:	68bb      	ldr	r3, [r7, #8]
     5c4:	613b      	str	r3, [r7, #16]
     5c6:	4b0d      	ldr	r3, [pc, #52]	; (5fc <IO_Init+0xb8>)
     5c8:	681b      	ldr	r3, [r3, #0]
     5ca:	f107 0110 	add.w	r1, r7, #16
     5ce:	687a      	ldr	r2, [r7, #4]
     5d0:	4618      	mov	r0, r3
     5d2:	f001 f857 	bl	1684 <LPUART_Init>
     5d6:	4b09      	ldr	r3, [pc, #36]	; (5fc <IO_Init+0xb8>)
     5d8:	681b      	ldr	r3, [r3, #0]
     5da:	2101      	movs	r1, #1
     5dc:	4618      	mov	r0, r3
     5de:	f003 feec 	bl	43ba <LPUART_EnableTx>
     5e2:	4b06      	ldr	r3, [pc, #24]	; (5fc <IO_Init+0xb8>)
     5e4:	681b      	ldr	r3, [r3, #0]
     5e6:	2101      	movs	r1, #1
     5e8:	4618      	mov	r0, r3
     5ea:	f003 ff02 	bl	43f2 <LPUART_EnableRx>
     5ee:	bf00      	nop
     5f0:	bf00      	nop
     5f2:	3730      	adds	r7, #48	; 0x30
     5f4:	46bd      	mov	sp, r7
     5f6:	bd80      	pop	{r7, pc}
     5f8:	00005b30 	.word	0x00005b30
     5fc:	20000010 	.word	0x20000010

00000600 <IO_Transfer>:
     600:	b580      	push	{r7, lr}
     602:	b086      	sub	sp, #24
     604:	af00      	add	r7, sp, #0
     606:	60f8      	str	r0, [r7, #12]
     608:	60b9      	str	r1, [r7, #8]
     60a:	4613      	mov	r3, r2
     60c:	71fb      	strb	r3, [r7, #7]
     60e:	2300      	movs	r3, #0
     610:	617b      	str	r3, [r7, #20]
     612:	4b1c      	ldr	r3, [pc, #112]	; (684 <IO_Transfer+0x84>)
     614:	791b      	ldrb	r3, [r3, #4]
     616:	2b02      	cmp	r3, #2
     618:	d017      	beq.n	64a <IO_Transfer+0x4a>
     61a:	2b06      	cmp	r3, #6
     61c:	d001      	beq.n	622 <IO_Transfer+0x22>
     61e:	2b01      	cmp	r3, #1
     620:	d127      	bne.n	672 <IO_Transfer+0x72>
     622:	79fb      	ldrb	r3, [r7, #7]
     624:	2b00      	cmp	r3, #0
     626:	d007      	beq.n	638 <IO_Transfer+0x38>
     628:	4b16      	ldr	r3, [pc, #88]	; (684 <IO_Transfer+0x84>)
     62a:	681b      	ldr	r3, [r3, #0]
     62c:	68ba      	ldr	r2, [r7, #8]
     62e:	68f9      	ldr	r1, [r7, #12]
     630:	4618      	mov	r0, r3
     632:	f004 fbd2 	bl	4dda <UART_WriteBlocking>
     636:	e01f      	b.n	678 <IO_Transfer+0x78>
     638:	4b12      	ldr	r3, [pc, #72]	; (684 <IO_Transfer+0x84>)
     63a:	681b      	ldr	r3, [r3, #0]
     63c:	68ba      	ldr	r2, [r7, #8]
     63e:	68f9      	ldr	r1, [r7, #12]
     640:	4618      	mov	r0, r3
     642:	f001 fc3d 	bl	1ec0 <UART_ReadBlocking>
     646:	6178      	str	r0, [r7, #20]
     648:	e016      	b.n	678 <IO_Transfer+0x78>
     64a:	79fb      	ldrb	r3, [r7, #7]
     64c:	2b00      	cmp	r3, #0
     64e:	d007      	beq.n	660 <IO_Transfer+0x60>
     650:	4b0c      	ldr	r3, [pc, #48]	; (684 <IO_Transfer+0x84>)
     652:	681b      	ldr	r3, [r3, #0]
     654:	68ba      	ldr	r2, [r7, #8]
     656:	68f9      	ldr	r1, [r7, #12]
     658:	4618      	mov	r0, r3
     65a:	f001 f9d3 	bl	1a04 <LPUART_WriteBlocking>
     65e:	e00b      	b.n	678 <IO_Transfer+0x78>
     660:	4b08      	ldr	r3, [pc, #32]	; (684 <IO_Transfer+0x84>)
     662:	681b      	ldr	r3, [r3, #0]
     664:	68ba      	ldr	r2, [r7, #8]
     666:	68f9      	ldr	r1, [r7, #12]
     668:	4618      	mov	r0, r3
     66a:	f001 f9f1 	bl	1a50 <LPUART_ReadBlocking>
     66e:	6178      	str	r0, [r7, #20]
     670:	e002      	b.n	678 <IO_Transfer+0x78>
     672:	2301      	movs	r3, #1
     674:	617b      	str	r3, [r7, #20]
     676:	bf00      	nop
     678:	697b      	ldr	r3, [r7, #20]
     67a:	4618      	mov	r0, r3
     67c:	3718      	adds	r7, #24
     67e:	46bd      	mov	sp, r7
     680:	bd80      	pop	{r7, pc}
     682:	bf00      	nop
     684:	20000010 	.word	0x20000010

00000688 <LOG_Push>:
     688:	b580      	push	{r7, lr}
     68a:	b082      	sub	sp, #8
     68c:	af00      	add	r7, sp, #0
     68e:	6078      	str	r0, [r7, #4]
     690:	6039      	str	r1, [r7, #0]
     692:	687b      	ldr	r3, [r7, #4]
     694:	2b00      	cmp	r3, #0
     696:	d102      	bne.n	69e <LOG_Push+0x16>
     698:	4805      	ldr	r0, [pc, #20]	; (6b0 <LOG_Push+0x28>)
     69a:	f003 fbdf 	bl	3e5c <__assertion_failed>
     69e:	6839      	ldr	r1, [r7, #0]
     6a0:	6878      	ldr	r0, [r7, #4]
     6a2:	f003 feda 	bl	445a <LOG_Pop>
     6a6:	4603      	mov	r3, r0
     6a8:	4618      	mov	r0, r3
     6aa:	3708      	adds	r7, #8
     6ac:	46bd      	mov	sp, r7
     6ae:	bd80      	pop	{r7, pc}
     6b0:	00005b58 	.word	0x00005b58

000006b4 <LOG_ReadLine>:
     6b4:	b580      	push	{r7, lr}
     6b6:	b084      	sub	sp, #16
     6b8:	af00      	add	r7, sp, #0
     6ba:	6078      	str	r0, [r7, #4]
     6bc:	6039      	str	r1, [r7, #0]
     6be:	687b      	ldr	r3, [r7, #4]
     6c0:	2b00      	cmp	r3, #0
     6c2:	d102      	bne.n	6ca <LOG_ReadLine+0x16>
     6c4:	4824      	ldr	r0, [pc, #144]	; (758 <LOG_ReadLine+0xa4>)
     6c6:	f003 fbc9 	bl	3e5c <__assertion_failed>
     6ca:	2300      	movs	r3, #0
     6cc:	60fb      	str	r3, [r7, #12]
     6ce:	2300      	movs	r3, #0
     6d0:	60fb      	str	r3, [r7, #12]
     6d2:	e025      	b.n	720 <LOG_ReadLine+0x6c>
     6d4:	68fb      	ldr	r3, [r7, #12]
     6d6:	687a      	ldr	r2, [r7, #4]
     6d8:	4413      	add	r3, r2
     6da:	4618      	mov	r0, r3
     6dc:	f003 fede 	bl	449c <LOG_ReadOneCharacter>
     6e0:	4603      	mov	r3, r0
     6e2:	2b00      	cmp	r3, #0
     6e4:	d002      	beq.n	6ec <LOG_ReadLine+0x38>
     6e6:	f04f 33ff 	mov.w	r3, #4294967295	; 0xffffffff
     6ea:	e030      	b.n	74e <LOG_ReadLine+0x9a>
     6ec:	68fb      	ldr	r3, [r7, #12]
     6ee:	687a      	ldr	r2, [r7, #4]
     6f0:	4413      	add	r3, r2
     6f2:	781b      	ldrb	r3, [r3, #0]
     6f4:	2b0d      	cmp	r3, #13
     6f6:	d005      	beq.n	704 <LOG_ReadLine+0x50>
     6f8:	68fb      	ldr	r3, [r7, #12]
     6fa:	687a      	ldr	r2, [r7, #4]
     6fc:	4413      	add	r3, r2
     6fe:	781b      	ldrb	r3, [r3, #0]
     700:	2b0a      	cmp	r3, #10
     702:	d10a      	bne.n	71a <LOG_ReadLine+0x66>
     704:	68fb      	ldr	r3, [r7, #12]
     706:	2b00      	cmp	r3, #0
     708:	d10f      	bne.n	72a <LOG_ReadLine+0x76>
     70a:	68fb      	ldr	r3, [r7, #12]
     70c:	687a      	ldr	r2, [r7, #4]
     70e:	4413      	add	r3, r2
     710:	2200      	movs	r2, #0
     712:	701a      	strb	r2, [r3, #0]
     714:	f04f 33ff 	mov.w	r3, #4294967295	; 0xffffffff
     718:	60fb      	str	r3, [r7, #12]
     71a:	68fb      	ldr	r3, [r7, #12]
     71c:	3301      	adds	r3, #1
     71e:	60fb      	str	r3, [r7, #12]
     720:	68fb      	ldr	r3, [r7, #12]
     722:	683a      	ldr	r2, [r7, #0]
     724:	429a      	cmp	r2, r3
     726:	d8d5      	bhi.n	6d4 <LOG_ReadLine+0x20>
     728:	e000      	b.n	72c <LOG_ReadLine+0x78>
     72a:	bf00      	nop
     72c:	68fb      	ldr	r3, [r7, #12]
     72e:	683a      	ldr	r2, [r7, #0]
     730:	429a      	cmp	r2, r3
     732:	d105      	bne.n	740 <LOG_ReadLine+0x8c>
     734:	68fb      	ldr	r3, [r7, #12]
     736:	687a      	ldr	r2, [r7, #4]
     738:	4413      	add	r3, r2
     73a:	2200      	movs	r2, #0
     73c:	701a      	strb	r2, [r3, #0]
     73e:	e005      	b.n	74c <LOG_ReadLine+0x98>
     740:	68fb      	ldr	r3, [r7, #12]
     742:	3301      	adds	r3, #1
     744:	687a      	ldr	r2, [r7, #4]
     746:	4413      	add	r3, r2
     748:	2200      	movs	r2, #0
     74a:	701a      	strb	r2, [r3, #0]
     74c:	68fb      	ldr	r3, [r7, #12]
     74e:	4618      	mov	r0, r3
     750:	3710      	adds	r7, #16
     752:	46bd      	mov	sp, r7
     754:	bd80      	pop	{r7, pc}
     756:	bf00      	nop
     758:	00005b84 	.word	0x00005b84

0000075c <StrFormatScanf>:
     75c:	b580      	push	{r7, lr}
     75e:	b08e      	sub	sp, #56	; 0x38
     760:	af00      	add	r7, sp, #0
     762:	60f8      	str	r0, [r7, #12]
     764:	60b9      	str	r1, [r7, #8]
     766:	607a      	str	r2, [r7, #4]
     768:	68bb      	ldr	r3, [r7, #8]
     76a:	617b      	str	r3, [r7, #20]
     76c:	2300      	movs	r3, #0
     76e:	62fb      	str	r3, [r7, #44]	; 0x2c
     770:	2300      	movs	r3, #0
     772:	627b      	str	r3, [r7, #36]	; 0x24
     774:	2300      	movs	r3, #0
     776:	623b      	str	r3, [r7, #32]
     778:	68fb      	ldr	r3, [r7, #12]
     77a:	613b      	str	r3, [r7, #16]
     77c:	693b      	ldr	r3, [r7, #16]
     77e:	781b      	ldrb	r3, [r3, #0]
     780:	2b00      	cmp	r3, #0
     782:	f040 82cf 	bne.w	d24 <StrFormatScanf+0x5c8>
     786:	f04f 33ff 	mov.w	r3, #4294967295	; 0xffffffff
     78a:	e2d7      	b.n	d3c <StrFormatScanf+0x5e0>
     78c:	f107 0314 	add.w	r3, r7, #20
     790:	4618      	mov	r0, r3
     792:	f003 fe96 	bl	44c2 <ScanIgnoreWhiteSpace>
     796:	4603      	mov	r3, r0
     798:	2b00      	cmp	r3, #0
     79a:	d009      	beq.n	7b0 <StrFormatScanf+0x54>
     79c:	f107 0310 	add.w	r3, r7, #16
     7a0:	4618      	mov	r0, r3
     7a2:	f003 fe8e 	bl	44c2 <ScanIgnoreWhiteSpace>
     7a6:	4602      	mov	r2, r0
     7a8:	6a3b      	ldr	r3, [r7, #32]
     7aa:	4413      	add	r3, r2
     7ac:	623b      	str	r3, [r7, #32]
     7ae:	e2b9      	b.n	d24 <StrFormatScanf+0x5c8>
     7b0:	697b      	ldr	r3, [r7, #20]
     7b2:	781b      	ldrb	r3, [r3, #0]
     7b4:	2b25      	cmp	r3, #37	; 0x25
     7b6:	d108      	bne.n	7ca <StrFormatScanf+0x6e>
     7b8:	697b      	ldr	r3, [r7, #20]
     7ba:	781b      	ldrb	r3, [r3, #0]
     7bc:	2b25      	cmp	r3, #37	; 0x25
     7be:	d118      	bne.n	7f2 <StrFormatScanf+0x96>
     7c0:	697b      	ldr	r3, [r7, #20]
     7c2:	3301      	adds	r3, #1
     7c4:	781b      	ldrb	r3, [r3, #0]
     7c6:	2b25      	cmp	r3, #37	; 0x25
     7c8:	d113      	bne.n	7f2 <StrFormatScanf+0x96>
     7ca:	697b      	ldr	r3, [r7, #20]
     7cc:	3301      	adds	r3, #1
     7ce:	617b      	str	r3, [r7, #20]
     7d0:	693b      	ldr	r3, [r7, #16]
     7d2:	781a      	ldrb	r2, [r3, #0]
     7d4:	697b      	ldr	r3, [r7, #20]
     7d6:	781b      	ldrb	r3, [r3, #0]
     7d8:	429a      	cmp	r2, r3
     7da:	f040 82ad 	bne.w	d38 <StrFormatScanf+0x5dc>
     7de:	6a3b      	ldr	r3, [r7, #32]
     7e0:	3301      	adds	r3, #1
     7e2:	623b      	str	r3, [r7, #32]
     7e4:	693b      	ldr	r3, [r7, #16]
     7e6:	3301      	adds	r3, #1
     7e8:	613b      	str	r3, [r7, #16]
     7ea:	697b      	ldr	r3, [r7, #20]
     7ec:	3301      	adds	r3, #1
     7ee:	617b      	str	r3, [r7, #20]
     7f0:	e298      	b.n	d24 <StrFormatScanf+0x5c8>
     7f2:	697b      	ldr	r3, [r7, #20]
     7f4:	3301      	adds	r3, #1
     7f6:	617b      	str	r3, [r7, #20]
     7f8:	2300      	movs	r3, #0
     7fa:	62fb      	str	r3, [r7, #44]	; 0x2c
     7fc:	2300      	movs	r3, #0
     7fe:	62bb      	str	r3, [r7, #40]	; 0x28
     800:	2300      	movs	r3, #0
     802:	f887 3037 	strb.w	r3, [r7, #55]	; 0x37
     806:	e109      	b.n	a1c <StrFormatScanf+0x2c0>
     808:	697b      	ldr	r3, [r7, #20]
     80a:	781b      	ldrb	r3, [r3, #0]
     80c:	3b30      	subs	r3, #48	; 0x30
     80e:	2b48      	cmp	r3, #72	; 0x48
     810:	f200 8102 	bhi.w	a18 <StrFormatScanf+0x2bc>
     814:	a201      	add	r2, pc, #4	; (adr r2, 81c <StrFormatScanf+0xc0>)
     816:	f852 f023 	ldr.w	pc, [r2, r3, lsl #2]
     81a:	bf00      	nop
     81c:	00000941 	.word	0x00000941
     820:	00000941 	.word	0x00000941
     824:	00000941 	.word	0x00000941
     828:	00000941 	.word	0x00000941
     82c:	00000941 	.word	0x00000941
     830:	00000941 	.word	0x00000941
     834:	00000941 	.word	0x00000941
     838:	00000941 	.word	0x00000941
     83c:	00000941 	.word	0x00000941
     840:	00000941 	.word	0x00000941
     844:	00000a19 	.word	0x00000a19
     848:	00000a19 	.word	0x00000a19
     84c:	00000a19 	.word	0x00000a19
     850:	00000a19 	.word	0x00000a19
     854:	00000a19 	.word	0x00000a19
     858:	00000a19 	.word	0x00000a19
     85c:	00000a19 	.word	0x00000a19
     860:	00000a19 	.word	0x00000a19
     864:	00000a19 	.word	0x00000a19
     868:	00000a19 	.word	0x00000a19
     86c:	00000a19 	.word	0x00000a19
     870:	00000a19 	.word	0x00000a19
     874:	00000a19 	.word	0x00000a19
     878:	00000a19 	.word	0x00000a19
     87c:	00000a19 	.word	0x00000a19
     880:	00000a19 	.word	0x00000a19
     884:	00000a19 	.word	0x00000a19
     888:	00000a19 	.word	0x00000a19
     88c:	00000a19 	.word	0x00000a19
     890:	00000a19 	.word	0x00000a19
     894:	00000a19 	.word	0x00000a19
     898:	00000a19 	.word	0x00000a19
     89c:	00000a19 	.word	0x00000a19
     8a0:	00000a19 	.word	0x00000a19
     8a4:	00000a19 	.word	0x00000a19
     8a8:	00000a19 	.word	0x00000a19
     8ac:	00000a19 	.word	0x00000a19
     8b0:	00000a19 	.word	0x00000a19
     8b4:	00000a19 	.word	0x00000a19
     8b8:	00000a19 	.word	0x00000a19
     8bc:	000009c3 	.word	0x000009c3
     8c0:	00000a19 	.word	0x00000a19
     8c4:	00000a19 	.word	0x00000a19
     8c8:	00000a19 	.word	0x00000a19
     8cc:	00000a19 	.word	0x00000a19
     8d0:	00000a19 	.word	0x00000a19
     8d4:	00000a19 	.word	0x00000a19
     8d8:	00000a19 	.word	0x00000a19
     8dc:	00000a19 	.word	0x00000a19
     8e0:	00000a19 	.word	0x00000a19
     8e4:	00000a19 	.word	0x00000a19
     8e8:	000009ef 	.word	0x000009ef
     8ec:	00000979 	.word	0x00000979
     8f0:	00000a19 	.word	0x00000a19
     8f4:	00000a19 	.word	0x00000a19
     8f8:	00000a19 	.word	0x00000a19
     8fc:	00000a19 	.word	0x00000a19
     900:	000009d9 	.word	0x000009d9
     904:	00000a19 	.word	0x00000a19
     908:	00000a19 	.word	0x00000a19
     90c:	00000a19 	.word	0x00000a19
     910:	00000a19 	.word	0x00000a19
     914:	00000a19 	.word	0x00000a19
     918:	000009ad 	.word	0x000009ad
     91c:	00000a19 	.word	0x00000a19
     920:	00000a19 	.word	0x00000a19
     924:	00000a19 	.word	0x00000a19
     928:	00000a09 	.word	0x00000a09
     92c:	00000a19 	.word	0x00000a19
     930:	00000997 	.word	0x00000997
     934:	00000a19 	.word	0x00000a19
     938:	00000a19 	.word	0x00000a19
     93c:	000009c3 	.word	0x000009c3
     940:	6abb      	ldr	r3, [r7, #40]	; 0x28
     942:	2b00      	cmp	r3, #0
     944:	d001      	beq.n	94a <StrFormatScanf+0x1ee>
     946:	6a7b      	ldr	r3, [r7, #36]	; 0x24
     948:	e1f8      	b.n	d3c <StrFormatScanf+0x5e0>
     94a:	6aba      	ldr	r2, [r7, #40]	; 0x28
     94c:	4613      	mov	r3, r2
     94e:	009b      	lsls	r3, r3, #2
     950:	4413      	add	r3, r2
     952:	005b      	lsls	r3, r3, #1
     954:	461a      	mov	r2, r3
     956:	697b      	ldr	r3, [r7, #20]
     958:	781b      	ldrb	r3, [r3, #0]
     95a:	4413      	add	r3, r2
     95c:	3b30      	subs	r3, #48	; 0x30
     95e:	62bb      	str	r3, [r7, #40]	; 0x28
     960:	697b      	ldr	r3, [r7, #20]
     962:	3301      	adds	r3, #1
     964:	617b      	str	r3, [r7, #20]
     966:	697b      	ldr	r3, [r7, #20]
     968:	781b      	ldrb	r3, [r3, #0]
     96a:	2b2f      	cmp	r3, #47	; 0x2f
     96c:	d956      	bls.n	a1c <StrFormatScanf+0x2c0>
     96e:	697b      	ldr	r3, [r7, #20]
     970:	781b      	ldrb	r3, [r3, #0]
     972:	2b39      	cmp	r3, #57	; 0x39
     974:	d9e9      	bls.n	94a <StrFormatScanf+0x1ee>
     976:	e051      	b.n	a1c <StrFormatScanf+0x2c0>
     978:	230a      	movs	r3, #10
     97a:	f887 3037 	strb.w	r3, [r7, #55]	; 0x37
     97e:	6afb      	ldr	r3, [r7, #44]	; 0x2c
     980:	f443 5300 	orr.w	r3, r3, #8192	; 0x2000
     984:	62fb      	str	r3, [r7, #44]	; 0x2c
     986:	6afb      	ldr	r3, [r7, #44]	; 0x2c
     988:	f043 0320 	orr.w	r3, r3, #32
     98c:	62fb      	str	r3, [r7, #44]	; 0x2c
     98e:	697b      	ldr	r3, [r7, #20]
     990:	3301      	adds	r3, #1
     992:	617b      	str	r3, [r7, #20]
     994:	e042      	b.n	a1c <StrFormatScanf+0x2c0>
     996:	230a      	movs	r3, #10
     998:	f887 3037 	strb.w	r3, [r7, #55]	; 0x37
     99c:	6afb      	ldr	r3, [r7, #44]	; 0x2c
     99e:	f043 0320 	orr.w	r3, r3, #32
     9a2:	62fb      	str	r3, [r7, #44]	; 0x2c
     9a4:	697b      	ldr	r3, [r7, #20]
     9a6:	3301      	adds	r3, #1
     9a8:	617b      	str	r3, [r7, #20]
     9aa:	e037      	b.n	a1c <StrFormatScanf+0x2c0>
     9ac:	2308      	movs	r3, #8
     9ae:	f887 3037 	strb.w	r3, [r7, #55]	; 0x37
     9b2:	6afb      	ldr	r3, [r7, #44]	; 0x2c
     9b4:	f043 0320 	orr.w	r3, r3, #32
     9b8:	62fb      	str	r3, [r7, #44]	; 0x2c
     9ba:	697b      	ldr	r3, [r7, #20]
     9bc:	3301      	adds	r3, #1
     9be:	617b      	str	r3, [r7, #20]
     9c0:	e02c      	b.n	a1c <StrFormatScanf+0x2c0>
     9c2:	2310      	movs	r3, #16
     9c4:	f887 3037 	strb.w	r3, [r7, #55]	; 0x37
     9c8:	6afb      	ldr	r3, [r7, #44]	; 0x2c
     9ca:	f043 0320 	orr.w	r3, r3, #32
     9ce:	62fb      	str	r3, [r7, #44]	; 0x2c
     9d0:	697b      	ldr	r3, [r7, #20]
     9d2:	3301      	adds	r3, #1
     9d4:	617b      	str	r3, [r7, #20]
     9d6:	e021      	b.n	a1c <StrFormatScanf+0x2c0>
     9d8:	2300      	movs	r3, #0
     9da:	f887 3037 	strb.w	r3, [r7, #55]	; 0x37
     9de:	6afb      	ldr	r3, [r7, #44]	; 0x2c
     9e0:	f043 0320 	orr.w	r3, r3, #32
     9e4:	62fb      	str	r3, [r7, #44]	; 0x2c
     9e6:	697b      	ldr	r3, [r7, #20]
     9e8:	3301      	adds	r3, #1
     9ea:	617b      	str	r3, [r7, #20]
     9ec:	e016      	b.n	a1c <StrFormatScanf+0x2c0>
     9ee:	6afb      	ldr	r3, [r7, #44]	; 0x2c
     9f0:	f043 0304 	orr.w	r3, r3, #4
     9f4:	62fb      	str	r3, [r7, #44]	; 0x2c
     9f6:	6abb      	ldr	r3, [r7, #40]	; 0x28
     9f8:	2b00      	cmp	r3, #0
     9fa:	d101      	bne.n	a00 <StrFormatScanf+0x2a4>
     9fc:	2301      	movs	r3, #1
     9fe:	62bb      	str	r3, [r7, #40]	; 0x28
     a00:	697b      	ldr	r3, [r7, #20]
     a02:	3301      	adds	r3, #1
     a04:	617b      	str	r3, [r7, #20]
     a06:	e009      	b.n	a1c <StrFormatScanf+0x2c0>
     a08:	6afb      	ldr	r3, [r7, #44]	; 0x2c
     a0a:	f043 0308 	orr.w	r3, r3, #8
     a0e:	62fb      	str	r3, [r7, #44]	; 0x2c
     a10:	697b      	ldr	r3, [r7, #20]
     a12:	3301      	adds	r3, #1
     a14:	617b      	str	r3, [r7, #20]
     a16:	e001      	b.n	a1c <StrFormatScanf+0x2c0>
     a18:	6a7b      	ldr	r3, [r7, #36]	; 0x24
     a1a:	e18f      	b.n	d3c <StrFormatScanf+0x5e0>
     a1c:	697b      	ldr	r3, [r7, #20]
     a1e:	781b      	ldrb	r3, [r3, #0]
     a20:	2b00      	cmp	r3, #0
     a22:	d005      	beq.n	a30 <StrFormatScanf+0x2d4>
     a24:	6afb      	ldr	r3, [r7, #44]	; 0x2c
     a26:	f003 037c 	and.w	r3, r3, #124	; 0x7c
     a2a:	2b00      	cmp	r3, #0
     a2c:	f43f aeec 	beq.w	808 <StrFormatScanf+0xac>
     a30:	6afb      	ldr	r3, [r7, #44]	; 0x2c
     a32:	f003 037c 	and.w	r3, r3, #124	; 0x7c
     a36:	2b00      	cmp	r3, #0
     a38:	d101      	bne.n	a3e <StrFormatScanf+0x2e2>
     a3a:	6a7b      	ldr	r3, [r7, #36]	; 0x24
     a3c:	e17e      	b.n	d3c <StrFormatScanf+0x5e0>
     a3e:	6abb      	ldr	r3, [r7, #40]	; 0x28
     a40:	2b00      	cmp	r3, #0
     a42:	d101      	bne.n	a48 <StrFormatScanf+0x2ec>
     a44:	2363      	movs	r3, #99	; 0x63
     a46:	62bb      	str	r3, [r7, #40]	; 0x28
     a48:	6afb      	ldr	r3, [r7, #44]	; 0x2c
     a4a:	f003 037c 	and.w	r3, r3, #124	; 0x7c
     a4e:	2b08      	cmp	r3, #8
     a50:	d039      	beq.n	ac6 <StrFormatScanf+0x36a>
     a52:	2b20      	cmp	r3, #32
     a54:	f000 808f 	beq.w	b76 <StrFormatScanf+0x41a>
     a58:	2b04      	cmp	r3, #4
     a5a:	f040 8161 	bne.w	d20 <StrFormatScanf+0x5c4>
     a5e:	693b      	ldr	r3, [r7, #16]
     a60:	61bb      	str	r3, [r7, #24]
     a62:	687b      	ldr	r3, [r7, #4]
     a64:	1d1a      	adds	r2, r3, #4
     a66:	607a      	str	r2, [r7, #4]
     a68:	681b      	ldr	r3, [r3, #0]
     a6a:	633b      	str	r3, [r7, #48]	; 0x30
     a6c:	e013      	b.n	a96 <StrFormatScanf+0x33a>
     a6e:	6afb      	ldr	r3, [r7, #44]	; 0x2c
     a70:	f003 0302 	and.w	r3, r3, #2
     a74:	2b00      	cmp	r3, #0
     a76:	d108      	bne.n	a8a <StrFormatScanf+0x32e>
     a78:	693a      	ldr	r2, [r7, #16]
     a7a:	1c53      	adds	r3, r2, #1
     a7c:	613b      	str	r3, [r7, #16]
     a7e:	6b3b      	ldr	r3, [r7, #48]	; 0x30
     a80:	1c59      	adds	r1, r3, #1
     a82:	6339      	str	r1, [r7, #48]	; 0x30
     a84:	7812      	ldrb	r2, [r2, #0]
     a86:	701a      	strb	r2, [r3, #0]
     a88:	e002      	b.n	a90 <StrFormatScanf+0x334>
     a8a:	693b      	ldr	r3, [r7, #16]
     a8c:	3301      	adds	r3, #1
     a8e:	613b      	str	r3, [r7, #16]
     a90:	6a3b      	ldr	r3, [r7, #32]
     a92:	3301      	adds	r3, #1
     a94:	623b      	str	r3, [r7, #32]
     a96:	6abb      	ldr	r3, [r7, #40]	; 0x28
     a98:	1e5a      	subs	r2, r3, #1
     a9a:	62ba      	str	r2, [r7, #40]	; 0x28
     a9c:	2b00      	cmp	r3, #0
     a9e:	d003      	beq.n	aa8 <StrFormatScanf+0x34c>
     aa0:	693b      	ldr	r3, [r7, #16]
     aa2:	781b      	ldrb	r3, [r3, #0]
     aa4:	2b00      	cmp	r3, #0
     aa6:	d1e2      	bne.n	a6e <StrFormatScanf+0x312>
     aa8:	6afb      	ldr	r3, [r7, #44]	; 0x2c
     aaa:	f003 0302 	and.w	r3, r3, #2
     aae:	2b00      	cmp	r3, #0
     ab0:	f040 8138 	bne.w	d24 <StrFormatScanf+0x5c8>
     ab4:	693b      	ldr	r3, [r7, #16]
     ab6:	69ba      	ldr	r2, [r7, #24]
     ab8:	429a      	cmp	r2, r3
     aba:	f000 8133 	beq.w	d24 <StrFormatScanf+0x5c8>
     abe:	6a7b      	ldr	r3, [r7, #36]	; 0x24
     ac0:	3301      	adds	r3, #1
     ac2:	627b      	str	r3, [r7, #36]	; 0x24
     ac4:	e12e      	b.n	d24 <StrFormatScanf+0x5c8>
     ac6:	f107 0310 	add.w	r3, r7, #16
     aca:	4618      	mov	r0, r3
     acc:	f003 fcf9 	bl	44c2 <ScanIgnoreWhiteSpace>
     ad0:	4602      	mov	r2, r0
     ad2:	6a3b      	ldr	r3, [r7, #32]
     ad4:	4413      	add	r3, r2
     ad6:	623b      	str	r3, [r7, #32]
     ad8:	693b      	ldr	r3, [r7, #16]
     ada:	61bb      	str	r3, [r7, #24]
     adc:	687b      	ldr	r3, [r7, #4]
     ade:	1d1a      	adds	r2, r3, #4
     ae0:	607a      	str	r2, [r7, #4]
     ae2:	681b      	ldr	r3, [r3, #0]
     ae4:	633b      	str	r3, [r7, #48]	; 0x30
     ae6:	e013      	b.n	b10 <StrFormatScanf+0x3b4>
     ae8:	6afb      	ldr	r3, [r7, #44]	; 0x2c
     aea:	f003 0302 	and.w	r3, r3, #2
     aee:	2b00      	cmp	r3, #0
     af0:	d003      	beq.n	afa <StrFormatScanf+0x39e>
     af2:	693b      	ldr	r3, [r7, #16]
     af4:	3301      	adds	r3, #1
     af6:	613b      	str	r3, [r7, #16]
     af8:	e007      	b.n	b0a <StrFormatScanf+0x3ae>
     afa:	693a      	ldr	r2, [r7, #16]
     afc:	1c53      	adds	r3, r2, #1
     afe:	613b      	str	r3, [r7, #16]
     b00:	6b3b      	ldr	r3, [r7, #48]	; 0x30
     b02:	1c59      	adds	r1, r3, #1
     b04:	6339      	str	r1, [r7, #48]	; 0x30
     b06:	7812      	ldrb	r2, [r2, #0]
     b08:	701a      	strb	r2, [r3, #0]
     b0a:	6a3b      	ldr	r3, [r7, #32]
     b0c:	3301      	adds	r3, #1
     b0e:	623b      	str	r3, [r7, #32]
     b10:	6abb      	ldr	r3, [r7, #40]	; 0x28
     b12:	1e5a      	subs	r2, r3, #1
     b14:	62ba      	str	r2, [r7, #40]	; 0x28
     b16:	2b00      	cmp	r3, #0
     b18:	d01b      	beq.n	b52 <StrFormatScanf+0x3f6>
     b1a:	693b      	ldr	r3, [r7, #16]
     b1c:	781b      	ldrb	r3, [r3, #0]
     b1e:	2b00      	cmp	r3, #0
     b20:	d017      	beq.n	b52 <StrFormatScanf+0x3f6>
     b22:	693b      	ldr	r3, [r7, #16]
     b24:	781b      	ldrb	r3, [r3, #0]
     b26:	2b20      	cmp	r3, #32
     b28:	d013      	beq.n	b52 <StrFormatScanf+0x3f6>
     b2a:	693b      	ldr	r3, [r7, #16]
     b2c:	781b      	ldrb	r3, [r3, #0]
     b2e:	2b09      	cmp	r3, #9
     b30:	d00f      	beq.n	b52 <StrFormatScanf+0x3f6>
     b32:	693b      	ldr	r3, [r7, #16]
     b34:	781b      	ldrb	r3, [r3, #0]
     b36:	2b0a      	cmp	r3, #10
     b38:	d00b      	beq.n	b52 <StrFormatScanf+0x3f6>
     b3a:	693b      	ldr	r3, [r7, #16]
     b3c:	781b      	ldrb	r3, [r3, #0]
     b3e:	2b0d      	cmp	r3, #13
     b40:	d007      	beq.n	b52 <StrFormatScanf+0x3f6>
     b42:	693b      	ldr	r3, [r7, #16]
     b44:	781b      	ldrb	r3, [r3, #0]
     b46:	2b0b      	cmp	r3, #11
     b48:	d003      	beq.n	b52 <StrFormatScanf+0x3f6>
     b4a:	693b      	ldr	r3, [r7, #16]
     b4c:	781b      	ldrb	r3, [r3, #0]
     b4e:	2b0c      	cmp	r3, #12
     b50:	d1ca      	bne.n	ae8 <StrFormatScanf+0x38c>
     b52:	6afb      	ldr	r3, [r7, #44]	; 0x2c
     b54:	f003 0302 	and.w	r3, r3, #2
     b58:	2b00      	cmp	r3, #0
     b5a:	f040 80e3 	bne.w	d24 <StrFormatScanf+0x5c8>
     b5e:	693b      	ldr	r3, [r7, #16]
     b60:	69ba      	ldr	r2, [r7, #24]
     b62:	429a      	cmp	r2, r3
     b64:	f000 80de 	beq.w	d24 <StrFormatScanf+0x5c8>
     b68:	6b3b      	ldr	r3, [r7, #48]	; 0x30
     b6a:	2200      	movs	r2, #0
     b6c:	701a      	strb	r2, [r3, #0]
     b6e:	6a7b      	ldr	r3, [r7, #36]	; 0x24
     b70:	3301      	adds	r3, #1
     b72:	627b      	str	r3, [r7, #36]	; 0x24
     b74:	e0d6      	b.n	d24 <StrFormatScanf+0x5c8>
     b76:	f107 0310 	add.w	r3, r7, #16
     b7a:	4618      	mov	r0, r3
     b7c:	f003 fca1 	bl	44c2 <ScanIgnoreWhiteSpace>
     b80:	4602      	mov	r2, r0
     b82:	6a3b      	ldr	r3, [r7, #32]
     b84:	4413      	add	r3, r2
     b86:	623b      	str	r3, [r7, #32]
     b88:	693b      	ldr	r3, [r7, #16]
     b8a:	61bb      	str	r3, [r7, #24]
     b8c:	2300      	movs	r3, #0
     b8e:	61fb      	str	r3, [r7, #28]
     b90:	f897 3037 	ldrb.w	r3, [r7, #55]	; 0x37
     b94:	2b00      	cmp	r3, #0
     b96:	d003      	beq.n	ba0 <StrFormatScanf+0x444>
     b98:	f897 3037 	ldrb.w	r3, [r7, #55]	; 0x37
     b9c:	2b10      	cmp	r3, #16
     b9e:	d11c      	bne.n	bda <StrFormatScanf+0x47e>
     ba0:	69bb      	ldr	r3, [r7, #24]
     ba2:	781b      	ldrb	r3, [r3, #0]
     ba4:	2b30      	cmp	r3, #48	; 0x30
     ba6:	d118      	bne.n	bda <StrFormatScanf+0x47e>
     ba8:	69bb      	ldr	r3, [r7, #24]
     baa:	3301      	adds	r3, #1
     bac:	781b      	ldrb	r3, [r3, #0]
     bae:	2b78      	cmp	r3, #120	; 0x78
     bb0:	d004      	beq.n	bbc <StrFormatScanf+0x460>
     bb2:	69bb      	ldr	r3, [r7, #24]
     bb4:	3301      	adds	r3, #1
     bb6:	781b      	ldrb	r3, [r3, #0]
     bb8:	2b58      	cmp	r3, #88	; 0x58
     bba:	d10e      	bne.n	bda <StrFormatScanf+0x47e>
     bbc:	2310      	movs	r3, #16
     bbe:	f887 3037 	strb.w	r3, [r7, #55]	; 0x37
     bc2:	6abb      	ldr	r3, [r7, #40]	; 0x28
     bc4:	2b00      	cmp	r3, #0
     bc6:	d008      	beq.n	bda <StrFormatScanf+0x47e>
     bc8:	693b      	ldr	r3, [r7, #16]
     bca:	3302      	adds	r3, #2
     bcc:	613b      	str	r3, [r7, #16]
     bce:	6a3b      	ldr	r3, [r7, #32]
     bd0:	3302      	adds	r3, #2
     bd2:	623b      	str	r3, [r7, #32]
     bd4:	6abb      	ldr	r3, [r7, #40]	; 0x28
     bd6:	3b02      	subs	r3, #2
     bd8:	62bb      	str	r3, [r7, #40]	; 0x28
     bda:	f897 3037 	ldrb.w	r3, [r7, #55]	; 0x37
     bde:	2b00      	cmp	r3, #0
     be0:	d10a      	bne.n	bf8 <StrFormatScanf+0x49c>
     be2:	69bb      	ldr	r3, [r7, #24]
     be4:	781b      	ldrb	r3, [r3, #0]
     be6:	2b30      	cmp	r3, #48	; 0x30
     be8:	d103      	bne.n	bf2 <StrFormatScanf+0x496>
     bea:	2308      	movs	r3, #8
     bec:	f887 3037 	strb.w	r3, [r7, #55]	; 0x37
     bf0:	e002      	b.n	bf8 <StrFormatScanf+0x49c>
     bf2:	230a      	movs	r3, #10
     bf4:	f887 3037 	strb.w	r3, [r7, #55]	; 0x37
     bf8:	2301      	movs	r3, #1
     bfa:	f887 3036 	strb.w	r3, [r7, #54]	; 0x36
     bfe:	693b      	ldr	r3, [r7, #16]
     c00:	781b      	ldrb	r3, [r3, #0]
     c02:	2b2b      	cmp	r3, #43	; 0x2b
     c04:	d00f      	beq.n	c26 <StrFormatScanf+0x4ca>
     c06:	2b2d      	cmp	r3, #45	; 0x2d
     c08:	d000      	beq.n	c0c <StrFormatScanf+0x4b0>
     c0a:	e019      	b.n	c40 <StrFormatScanf+0x4e4>
     c0c:	23ff      	movs	r3, #255	; 0xff
     c0e:	f887 3036 	strb.w	r3, [r7, #54]	; 0x36
     c12:	6a3b      	ldr	r3, [r7, #32]
     c14:	3301      	adds	r3, #1
     c16:	623b      	str	r3, [r7, #32]
     c18:	693b      	ldr	r3, [r7, #16]
     c1a:	3301      	adds	r3, #1
     c1c:	613b      	str	r3, [r7, #16]
     c1e:	6abb      	ldr	r3, [r7, #40]	; 0x28
     c20:	3b01      	subs	r3, #1
     c22:	62bb      	str	r3, [r7, #40]	; 0x28
     c24:	e00c      	b.n	c40 <StrFormatScanf+0x4e4>
     c26:	2301      	movs	r3, #1
     c28:	f887 3036 	strb.w	r3, [r7, #54]	; 0x36
     c2c:	6a3b      	ldr	r3, [r7, #32]
     c2e:	3301      	adds	r3, #1
     c30:	623b      	str	r3, [r7, #32]
     c32:	693b      	ldr	r3, [r7, #16]
     c34:	3301      	adds	r3, #1
     c36:	613b      	str	r3, [r7, #16]
     c38:	6abb      	ldr	r3, [r7, #40]	; 0x28
     c3a:	3b01      	subs	r3, #1
     c3c:	62bb      	str	r3, [r7, #40]	; 0x28
     c3e:	bf00      	nop
     c40:	e042      	b.n	cc8 <StrFormatScanf+0x56c>
     c42:	693b      	ldr	r3, [r7, #16]
     c44:	781b      	ldrb	r3, [r3, #0]
     c46:	2b39      	cmp	r3, #57	; 0x39
     c48:	d809      	bhi.n	c5e <StrFormatScanf+0x502>
     c4a:	693b      	ldr	r3, [r7, #16]
     c4c:	781b      	ldrb	r3, [r3, #0]
     c4e:	2b2f      	cmp	r3, #47	; 0x2f
     c50:	d905      	bls.n	c5e <StrFormatScanf+0x502>
     c52:	693b      	ldr	r3, [r7, #16]
     c54:	781b      	ldrb	r3, [r3, #0]
     c56:	3b30      	subs	r3, #48	; 0x30
     c58:	f887 3035 	strb.w	r3, [r7, #53]	; 0x35
     c5c:	e01f      	b.n	c9e <StrFormatScanf+0x542>
     c5e:	693b      	ldr	r3, [r7, #16]
     c60:	781b      	ldrb	r3, [r3, #0]
     c62:	2b66      	cmp	r3, #102	; 0x66
     c64:	d809      	bhi.n	c7a <StrFormatScanf+0x51e>
     c66:	693b      	ldr	r3, [r7, #16]
     c68:	781b      	ldrb	r3, [r3, #0]
     c6a:	2b60      	cmp	r3, #96	; 0x60
     c6c:	d905      	bls.n	c7a <StrFormatScanf+0x51e>
     c6e:	693b      	ldr	r3, [r7, #16]
     c70:	781b      	ldrb	r3, [r3, #0]
     c72:	3b57      	subs	r3, #87	; 0x57
     c74:	f887 3035 	strb.w	r3, [r7, #53]	; 0x35
     c78:	e011      	b.n	c9e <StrFormatScanf+0x542>
     c7a:	693b      	ldr	r3, [r7, #16]
     c7c:	781b      	ldrb	r3, [r3, #0]
     c7e:	2b46      	cmp	r3, #70	; 0x46
     c80:	d809      	bhi.n	c96 <StrFormatScanf+0x53a>
     c82:	693b      	ldr	r3, [r7, #16]
     c84:	781b      	ldrb	r3, [r3, #0]
     c86:	2b40      	cmp	r3, #64	; 0x40
     c88:	d905      	bls.n	c96 <StrFormatScanf+0x53a>
     c8a:	693b      	ldr	r3, [r7, #16]
     c8c:	781b      	ldrb	r3, [r3, #0]
     c8e:	3b37      	subs	r3, #55	; 0x37
     c90:	f887 3035 	strb.w	r3, [r7, #53]	; 0x35
     c94:	e003      	b.n	c9e <StrFormatScanf+0x542>
     c96:	f897 3037 	ldrb.w	r3, [r7, #55]	; 0x37
     c9a:	f887 3035 	strb.w	r3, [r7, #53]	; 0x35
     c9e:	f897 2035 	ldrb.w	r2, [r7, #53]	; 0x35
     ca2:	f897 3037 	ldrb.w	r3, [r7, #55]	; 0x37
     ca6:	429a      	cmp	r2, r3
     ca8:	d218      	bcs.n	cdc <StrFormatScanf+0x580>
     caa:	f897 3037 	ldrb.w	r3, [r7, #55]	; 0x37
     cae:	69fa      	ldr	r2, [r7, #28]
     cb0:	fb02 f203 	mul.w	r2, r2, r3
     cb4:	f897 3035 	ldrb.w	r3, [r7, #53]	; 0x35
     cb8:	4413      	add	r3, r2
     cba:	61fb      	str	r3, [r7, #28]
     cbc:	693b      	ldr	r3, [r7, #16]
     cbe:	3301      	adds	r3, #1
     cc0:	613b      	str	r3, [r7, #16]
     cc2:	6a3b      	ldr	r3, [r7, #32]
     cc4:	3301      	adds	r3, #1
     cc6:	623b      	str	r3, [r7, #32]
     cc8:	693b      	ldr	r3, [r7, #16]
     cca:	781b      	ldrb	r3, [r3, #0]
     ccc:	2b00      	cmp	r3, #0
     cce:	d006      	beq.n	cde <StrFormatScanf+0x582>
     cd0:	6abb      	ldr	r3, [r7, #40]	; 0x28
     cd2:	1e5a      	subs	r2, r3, #1
     cd4:	62ba      	str	r2, [r7, #40]	; 0x28
     cd6:	2b00      	cmp	r3, #0
     cd8:	d1b3      	bne.n	c42 <StrFormatScanf+0x4e6>
     cda:	e000      	b.n	cde <StrFormatScanf+0x582>
     cdc:	bf00      	nop
     cde:	f997 2036 	ldrsb.w	r2, [r7, #54]	; 0x36
     ce2:	69fb      	ldr	r3, [r7, #28]
     ce4:	fb02 f303 	mul.w	r3, r2, r3
     ce8:	61fb      	str	r3, [r7, #28]
     cea:	6afb      	ldr	r3, [r7, #44]	; 0x2c
     cec:	f003 0302 	and.w	r3, r3, #2
     cf0:	2b00      	cmp	r3, #0
     cf2:	d117      	bne.n	d24 <StrFormatScanf+0x5c8>
     cf4:	6afb      	ldr	r3, [r7, #44]	; 0x2c
     cf6:	f403 5300 	and.w	r3, r3, #8192	; 0x2000
     cfa:	2b00      	cmp	r3, #0
     cfc:	d006      	beq.n	d0c <StrFormatScanf+0x5b0>
     cfe:	687b      	ldr	r3, [r7, #4]
     d00:	1d1a      	adds	r2, r3, #4
     d02:	607a      	str	r2, [r7, #4]
     d04:	681b      	ldr	r3, [r3, #0]
     d06:	69fa      	ldr	r2, [r7, #28]
     d08:	601a      	str	r2, [r3, #0]
     d0a:	e005      	b.n	d18 <StrFormatScanf+0x5bc>
     d0c:	687b      	ldr	r3, [r7, #4]
     d0e:	1d1a      	adds	r2, r3, #4
     d10:	607a      	str	r2, [r7, #4]
     d12:	681b      	ldr	r3, [r3, #0]
     d14:	69fa      	ldr	r2, [r7, #28]
     d16:	601a      	str	r2, [r3, #0]
     d18:	6a7b      	ldr	r3, [r7, #36]	; 0x24
     d1a:	3301      	adds	r3, #1
     d1c:	627b      	str	r3, [r7, #36]	; 0x24
     d1e:	e001      	b.n	d24 <StrFormatScanf+0x5c8>
     d20:	6a7b      	ldr	r3, [r7, #36]	; 0x24
     d22:	e00b      	b.n	d3c <StrFormatScanf+0x5e0>
     d24:	697b      	ldr	r3, [r7, #20]
     d26:	781b      	ldrb	r3, [r3, #0]
     d28:	2b00      	cmp	r3, #0
     d2a:	d006      	beq.n	d3a <StrFormatScanf+0x5de>
     d2c:	693b      	ldr	r3, [r7, #16]
     d2e:	781b      	ldrb	r3, [r3, #0]
     d30:	2b00      	cmp	r3, #0
     d32:	f47f ad2b 	bne.w	78c <StrFormatScanf+0x30>
     d36:	e000      	b.n	d3a <StrFormatScanf+0x5de>
     d38:	bf00      	nop
     d3a:	6a7b      	ldr	r3, [r7, #36]	; 0x24
     d3c:	4618      	mov	r0, r3
     d3e:	3738      	adds	r7, #56	; 0x38
     d40:	46bd      	mov	sp, r7
     d42:	bd80      	pop	{r7, pc}

00000d44 <main>:
     d44:	b580      	push	{r7, lr}
     d46:	b082      	sub	sp, #8
     d48:	af02      	add	r7, sp, #8
     d4a:	f001 f9e9 	bl	2120 <BOARD_InitPins>
     d4e:	f001 f9b7 	bl	20c0 <BOARD_BootClockRUN>
     d52:	f001 f961 	bl	2018 <BOARD_InitDebugConsole>
     d56:	2300      	movs	r3, #0
     d58:	9301      	str	r3, [sp, #4]
     d5a:	2304      	movs	r3, #4
     d5c:	9300      	str	r3, [sp, #0]
     d5e:	2300      	movs	r3, #0
     d60:	2264      	movs	r2, #100	; 0x64
     d62:	4907      	ldr	r1, [pc, #28]	; (d80 <main+0x3c>)
     d64:	4807      	ldr	r0, [pc, #28]	; (d84 <main+0x40>)
     d66:	f004 fb9e 	bl	54a6 <xTaskCreate>
     d6a:	4603      	mov	r3, r0
     d6c:	2b01      	cmp	r3, #1
     d6e:	d003      	beq.n	d78 <main+0x34>
     d70:	4805      	ldr	r0, [pc, #20]	; (d88 <main+0x44>)
     d72:	f7ff fbb5 	bl	4e0 <DbgConsole_Printf>
     d76:	e7fe      	b.n	d76 <main+0x32>
     d78:	f002 f892 	bl	2ea0 <vTaskStartScheduler>
     d7c:	e7fe      	b.n	d7c <main+0x38>
     d7e:	bf00      	nop
     d80:	00005bd8 	.word	0x00005bd8
     d84:	00000de1 	.word	0x00000de1
     d88:	00005be4 	.word	0x00005be4

00000d8c <bugggy>:
     d8c:	b580      	push	{r7, lr}
     d8e:	b092      	sub	sp, #72	; 0x48
     d90:	af00      	add	r7, sp, #0
     d92:	2300      	movs	r3, #0
     d94:	647b      	str	r3, [r7, #68]	; 0x44
     d96:	1d3b      	adds	r3, r7, #4
     d98:	2240      	movs	r2, #64	; 0x40
     d9a:	2100      	movs	r1, #0
     d9c:	4618      	mov	r0, r3
     d9e:	f004 fc8f 	bl	56c0 <memset>
     da2:	1d3b      	adds	r3, r7, #4
     da4:	4619      	mov	r1, r3
     da6:	480c      	ldr	r0, [pc, #48]	; (dd8 <bugggy+0x4c>)
     da8:	f003 fa72 	bl	4290 <DbgConsole_Scanf>
     dac:	1d3b      	adds	r3, r7, #4
     dae:	4618      	mov	r0, r3
     db0:	f004 fd9f 	bl	58f2 <strlen>
     db4:	4602      	mov	r2, r0
     db6:	1d39      	adds	r1, r7, #4
     db8:	f107 0344 	add.w	r3, r7, #68	; 0x44
     dbc:	4618      	mov	r0, r3
     dbe:	f004 fc7d 	bl	56bc <memcpy>
     dc2:	f107 0344 	add.w	r3, r7, #68	; 0x44
     dc6:	4619      	mov	r1, r3
     dc8:	4804      	ldr	r0, [pc, #16]	; (ddc <bugggy+0x50>)
     dca:	f7ff fb89 	bl	4e0 <DbgConsole_Printf>
     dce:	2300      	movs	r3, #0
     dd0:	4618      	mov	r0, r3
     dd2:	3748      	adds	r7, #72	; 0x48
     dd4:	46bd      	mov	sp, r7
     dd6:	bd80      	pop	{r7, pc}
     dd8:	00005c00 	.word	0x00005c00
     ddc:	00005c04 	.word	0x00005c04

00000de0 <hello_task>:
     de0:	b580      	push	{r7, lr}
     de2:	b082      	sub	sp, #8
     de4:	af00      	add	r7, sp, #0
     de6:	6078      	str	r0, [r7, #4]
     de8:	4802      	ldr	r0, [pc, #8]	; (df4 <hello_task+0x14>)
     dea:	f7ff fb79 	bl	4e0 <DbgConsole_Printf>
     dee:	f7ff ffcd 	bl	d8c <bugggy>
     df2:	e7f9      	b.n	de8 <hello_task+0x8>
     df4:	00005c10 	.word	0x00005c10

00000df8 <CLOCK_SetEr32kClock>:
     df8:	b480      	push	{r7}
     dfa:	b083      	sub	sp, #12
     dfc:	af00      	add	r7, sp, #0
     dfe:	6078      	str	r0, [r7, #4]
     e00:	4b08      	ldr	r3, [pc, #32]	; (e24 <CLOCK_SetEr32kClock+0x2c>)
     e02:	681b      	ldr	r3, [r3, #0]
     e04:	f423 2240 	bic.w	r2, r3, #786432	; 0xc0000
     e08:	687b      	ldr	r3, [r7, #4]
     e0a:	049b      	lsls	r3, r3, #18
     e0c:	f403 2340 	and.w	r3, r3, #786432	; 0xc0000
     e10:	4904      	ldr	r1, [pc, #16]	; (e24 <CLOCK_SetEr32kClock+0x2c>)
     e12:	4313      	orrs	r3, r2
     e14:	600b      	str	r3, [r1, #0]
     e16:	bf00      	nop
     e18:	370c      	adds	r7, #12
     e1a:	46bd      	mov	sp, r7
     e1c:	f85d 7b04 	ldr.w	r7, [sp], #4
     e20:	4770      	bx	lr
     e22:	bf00      	nop
     e24:	40047000 	.word	0x40047000

00000e28 <CLOCK_SetPllFllSelClock>:
     e28:	b480      	push	{r7}
     e2a:	b085      	sub	sp, #20
     e2c:	af00      	add	r7, sp, #0
     e2e:	60f8      	str	r0, [r7, #12]
     e30:	60b9      	str	r1, [r7, #8]
     e32:	607a      	str	r2, [r7, #4]
     e34:	4b11      	ldr	r3, [pc, #68]	; (e7c <CLOCK_SetPllFllSelClock+0x54>)
     e36:	f503 5380 	add.w	r3, r3, #4096	; 0x1000
     e3a:	3304      	adds	r3, #4
     e3c:	681b      	ldr	r3, [r3, #0]
     e3e:	f423 3240 	bic.w	r2, r3, #196608	; 0x30000
     e42:	68fb      	ldr	r3, [r7, #12]
     e44:	041b      	lsls	r3, r3, #16
     e46:	f403 3340 	and.w	r3, r3, #196608	; 0x30000
     e4a:	490c      	ldr	r1, [pc, #48]	; (e7c <CLOCK_SetPllFllSelClock+0x54>)
     e4c:	431a      	orrs	r2, r3
     e4e:	f501 5380 	add.w	r3, r1, #4096	; 0x1000
     e52:	3304      	adds	r3, #4
     e54:	601a      	str	r2, [r3, #0]
     e56:	68bb      	ldr	r3, [r7, #8]
     e58:	005b      	lsls	r3, r3, #1
     e5a:	f003 020e 	and.w	r2, r3, #14
     e5e:	687b      	ldr	r3, [r7, #4]
     e60:	f003 0301 	and.w	r3, r3, #1
     e64:	4905      	ldr	r1, [pc, #20]	; (e7c <CLOCK_SetPllFllSelClock+0x54>)
     e66:	431a      	orrs	r2, r3
     e68:	f501 5383 	add.w	r3, r1, #4192	; 0x1060
     e6c:	3304      	adds	r3, #4
     e6e:	601a      	str	r2, [r3, #0]
     e70:	bf00      	nop
     e72:	3714      	adds	r7, #20
     e74:	46bd      	mov	sp, r7
     e76:	f85d 7b04 	ldr.w	r7, [sp], #4
     e7a:	4770      	bx	lr
     e7c:	40047000 	.word	0x40047000

00000e80 <CLOCK_GetMcgExtClkFreq>:
     e80:	b580      	push	{r7, lr}
     e82:	b082      	sub	sp, #8
     e84:	af00      	add	r7, sp, #0
     e86:	4b16      	ldr	r3, [pc, #88]	; (ee0 <CLOCK_GetMcgExtClkFreq+0x60>)
     e88:	7b1b      	ldrb	r3, [r3, #12]
     e8a:	b2db      	uxtb	r3, r3
     e8c:	f003 0303 	and.w	r3, r3, #3
     e90:	2b01      	cmp	r3, #1
     e92:	d00f      	beq.n	eb4 <CLOCK_GetMcgExtClkFreq+0x34>
     e94:	2b01      	cmp	r3, #1
     e96:	d302      	bcc.n	e9e <CLOCK_GetMcgExtClkFreq+0x1e>
     e98:	2b02      	cmp	r3, #2
     e9a:	d016      	beq.n	eca <CLOCK_GetMcgExtClkFreq+0x4a>
     e9c:	e018      	b.n	ed0 <CLOCK_GetMcgExtClkFreq+0x50>
     e9e:	4b11      	ldr	r3, [pc, #68]	; (ee4 <CLOCK_GetMcgExtClkFreq+0x64>)
     ea0:	681b      	ldr	r3, [r3, #0]
     ea2:	2b00      	cmp	r3, #0
     ea4:	d102      	bne.n	eac <CLOCK_GetMcgExtClkFreq+0x2c>
     ea6:	4810      	ldr	r0, [pc, #64]	; (ee8 <CLOCK_GetMcgExtClkFreq+0x68>)
     ea8:	f002 ffd8 	bl	3e5c <__assertion_failed>
     eac:	4b0d      	ldr	r3, [pc, #52]	; (ee4 <CLOCK_GetMcgExtClkFreq+0x64>)
     eae:	681b      	ldr	r3, [r3, #0]
     eb0:	607b      	str	r3, [r7, #4]
     eb2:	e010      	b.n	ed6 <CLOCK_GetMcgExtClkFreq+0x56>
     eb4:	4b0d      	ldr	r3, [pc, #52]	; (eec <CLOCK_GetMcgExtClkFreq+0x6c>)
     eb6:	681b      	ldr	r3, [r3, #0]
     eb8:	2b00      	cmp	r3, #0
     eba:	d102      	bne.n	ec2 <CLOCK_GetMcgExtClkFreq+0x42>
     ebc:	480c      	ldr	r0, [pc, #48]	; (ef0 <CLOCK_GetMcgExtClkFreq+0x70>)
     ebe:	f002 ffcd 	bl	3e5c <__assertion_failed>
     ec2:	4b0a      	ldr	r3, [pc, #40]	; (eec <CLOCK_GetMcgExtClkFreq+0x6c>)
     ec4:	681b      	ldr	r3, [r3, #0]
     ec6:	607b      	str	r3, [r7, #4]
     ec8:	e005      	b.n	ed6 <CLOCK_GetMcgExtClkFreq+0x56>
     eca:	4b0a      	ldr	r3, [pc, #40]	; (ef4 <CLOCK_GetMcgExtClkFreq+0x74>)
     ecc:	607b      	str	r3, [r7, #4]
     ece:	e002      	b.n	ed6 <CLOCK_GetMcgExtClkFreq+0x56>
     ed0:	2300      	movs	r3, #0
     ed2:	607b      	str	r3, [r7, #4]
     ed4:	bf00      	nop
     ed6:	687b      	ldr	r3, [r7, #4]
     ed8:	4618      	mov	r0, r3
     eda:	3708      	adds	r7, #8
     edc:	46bd      	mov	sp, r7
     ede:	bd80      	pop	{r7, pc}
     ee0:	40064000 	.word	0x40064000
     ee4:	2000001c 	.word	0x2000001c
     ee8:	00005c1c 	.word	0x00005c1c
     eec:	20000020 	.word	0x20000020
     ef0:	00005c48 	.word	0x00005c48
     ef4:	02dc6c00 	.word	0x02dc6c00

00000ef8 <CLOCK_GetFllExtRefClkFreq>:
     ef8:	b580      	push	{r7, lr}
     efa:	b082      	sub	sp, #8
     efc:	af00      	add	r7, sp, #0
     efe:	f7ff ffbf 	bl	e80 <CLOCK_GetMcgExtClkFreq>
     f02:	6078      	str	r0, [r7, #4]
     f04:	687b      	ldr	r3, [r7, #4]
     f06:	2b00      	cmp	r3, #0
     f08:	d101      	bne.n	f0e <CLOCK_GetFllExtRefClkFreq+0x16>
     f0a:	687b      	ldr	r3, [r7, #4]
     f0c:	e051      	b.n	fb2 <CLOCK_GetFllExtRefClkFreq+0xba>
     f0e:	4b2b      	ldr	r3, [pc, #172]	; (fbc <CLOCK_GetFllExtRefClkFreq+0xc4>)
     f10:	781b      	ldrb	r3, [r3, #0]
     f12:	b2db      	uxtb	r3, r3
     f14:	08db      	lsrs	r3, r3, #3
     f16:	b2db      	uxtb	r3, r3
     f18:	f003 0307 	and.w	r3, r3, #7
     f1c:	70fb      	strb	r3, [r7, #3]
     f1e:	78fb      	ldrb	r3, [r7, #3]
     f20:	687a      	ldr	r2, [r7, #4]
     f22:	fa22 f303 	lsr.w	r3, r2, r3
     f26:	607b      	str	r3, [r7, #4]
     f28:	4b24      	ldr	r3, [pc, #144]	; (fbc <CLOCK_GetFllExtRefClkFreq+0xc4>)
     f2a:	785b      	ldrb	r3, [r3, #1]
     f2c:	b2db      	uxtb	r3, r3
     f2e:	091b      	lsrs	r3, r3, #4
     f30:	b2db      	uxtb	r3, r3
     f32:	f003 0303 	and.w	r3, r3, #3
     f36:	70bb      	strb	r3, [r7, #2]
     f38:	4b20      	ldr	r3, [pc, #128]	; (fbc <CLOCK_GetFllExtRefClkFreq+0xc4>)
     f3a:	7b1b      	ldrb	r3, [r3, #12]
     f3c:	b2db      	uxtb	r3, r3
     f3e:	f003 0303 	and.w	r3, r3, #3
     f42:	707b      	strb	r3, [r7, #1]
     f44:	78bb      	ldrb	r3, [r7, #2]
     f46:	2b00      	cmp	r3, #0
     f48:	d002      	beq.n	f50 <CLOCK_GetFllExtRefClkFreq+0x58>
     f4a:	787b      	ldrb	r3, [r7, #1]
     f4c:	2b00      	cmp	r3, #0
     f4e:	d002      	beq.n	f56 <CLOCK_GetFllExtRefClkFreq+0x5e>
     f50:	787b      	ldrb	r3, [r7, #1]
     f52:	2b02      	cmp	r3, #2
     f54:	d12b      	bne.n	fae <CLOCK_GetFllExtRefClkFreq+0xb6>
     f56:	78fb      	ldrb	r3, [r7, #3]
     f58:	2b07      	cmp	r3, #7
     f5a:	d825      	bhi.n	fa8 <CLOCK_GetFllExtRefClkFreq+0xb0>
     f5c:	a201      	add	r2, pc, #4	; (adr r2, f64 <CLOCK_GetFllExtRefClkFreq+0x6c>)
     f5e:	f852 f023 	ldr.w	pc, [r2, r3, lsl #2]
     f62:	bf00      	nop
     f64:	00000f85 	.word	0x00000f85
     f68:	00000f85 	.word	0x00000f85
     f6c:	00000f85 	.word	0x00000f85
     f70:	00000f85 	.word	0x00000f85
     f74:	00000f85 	.word	0x00000f85
     f78:	00000f85 	.word	0x00000f85
     f7c:	00000f8d 	.word	0x00000f8d
     f80:	00000f9b 	.word	0x00000f9b
     f84:	687b      	ldr	r3, [r7, #4]
     f86:	095b      	lsrs	r3, r3, #5
     f88:	607b      	str	r3, [r7, #4]
     f8a:	e011      	b.n	fb0 <CLOCK_GetFllExtRefClkFreq+0xb8>
     f8c:	687b      	ldr	r3, [r7, #4]
     f8e:	4a0c      	ldr	r2, [pc, #48]	; (fc0 <CLOCK_GetFllExtRefClkFreq+0xc8>)
     f90:	fba2 2303 	umull	r2, r3, r2, r3
     f94:	091b      	lsrs	r3, r3, #4
     f96:	607b      	str	r3, [r7, #4]
     f98:	e00a      	b.n	fb0 <CLOCK_GetFllExtRefClkFreq+0xb8>
     f9a:	687b      	ldr	r3, [r7, #4]
     f9c:	4a09      	ldr	r2, [pc, #36]	; (fc4 <CLOCK_GetFllExtRefClkFreq+0xcc>)
     f9e:	fba2 2303 	umull	r2, r3, r2, r3
     fa2:	08db      	lsrs	r3, r3, #3
     fa4:	607b      	str	r3, [r7, #4]
     fa6:	e003      	b.n	fb0 <CLOCK_GetFllExtRefClkFreq+0xb8>
     fa8:	2300      	movs	r3, #0
     faa:	607b      	str	r3, [r7, #4]
     fac:	e000      	b.n	fb0 <CLOCK_GetFllExtRefClkFreq+0xb8>
     fae:	bf00      	nop
     fb0:	687b      	ldr	r3, [r7, #4]
     fb2:	4618      	mov	r0, r3
     fb4:	3708      	adds	r7, #8
     fb6:	46bd      	mov	sp, r7
     fb8:	bd80      	pop	{r7, pc}
     fba:	bf00      	nop
     fbc:	40064000 	.word	0x40064000
     fc0:	cccccccd 	.word	0xcccccccd
     fc4:	aaaaaaab 	.word	0xaaaaaaab

00000fc8 <CLOCK_GetInternalRefClkSelectFreq>:
     fc8:	b480      	push	{r7}
     fca:	af00      	add	r7, sp, #0
     fcc:	4b0c      	ldr	r3, [pc, #48]	; (1000 <_HeapSize>)
     fce:	799b      	ldrb	r3, [r3, #6]
     fd0:	b2db      	uxtb	r3, r3
     fd2:	f003 0301 	and.w	r3, r3, #1
     fd6:	2b00      	cmp	r3, #0
     fd8:	d102      	bne.n	fe0 <CLOCK_GetInternalRefClkSelectFreq+0x18>
     fda:	4b0a      	ldr	r3, [pc, #40]	; (1004 <_HeapSize+0x4>)
     fdc:	681b      	ldr	r3, [r3, #0]
     fde:	e009      	b.n	ff4 <CLOCK_GetInternalRefClkSelectFreq+0x2c>
     fe0:	4b09      	ldr	r3, [pc, #36]	; (1008 <_HeapSize+0x8>)
     fe2:	681a      	ldr	r2, [r3, #0]
     fe4:	4b06      	ldr	r3, [pc, #24]	; (1000 <_HeapSize>)
     fe6:	7a1b      	ldrb	r3, [r3, #8]
     fe8:	b2db      	uxtb	r3, r3
     fea:	085b      	lsrs	r3, r3, #1
     fec:	f003 0307 	and.w	r3, r3, #7
     ff0:	fa22 f303 	lsr.w	r3, r2, r3
     ff4:	4618      	mov	r0, r3
     ff6:	46bd      	mov	sp, r7
     ff8:	f85d 7b04 	ldr.w	r7, [sp], #4
     ffc:	4770      	bx	lr
     ffe:	bf00      	nop
    1000:	40064000 	.word	0x40064000
    1004:	20000000 	.word	0x20000000
    1008:	20000004 	.word	0x20000004

0000100c <CLOCK_GetFllRefClkFreq>:
    100c:	b580      	push	{r7, lr}
    100e:	af00      	add	r7, sp, #0
    1010:	4b07      	ldr	r3, [pc, #28]	; (1030 <CLOCK_GetFllRefClkFreq+0x24>)
    1012:	799b      	ldrb	r3, [r3, #6]
    1014:	b2db      	uxtb	r3, r3
    1016:	f003 0310 	and.w	r3, r3, #16
    101a:	2b00      	cmp	r3, #0
    101c:	d103      	bne.n	1026 <CLOCK_GetFllRefClkFreq+0x1a>
    101e:	f7ff ff6b 	bl	ef8 <CLOCK_GetFllExtRefClkFreq>
    1022:	4603      	mov	r3, r0
    1024:	e001      	b.n	102a <CLOCK_GetFllRefClkFreq+0x1e>
    1026:	4b03      	ldr	r3, [pc, #12]	; (1034 <CLOCK_GetFllRefClkFreq+0x28>)
    1028:	681b      	ldr	r3, [r3, #0]
    102a:	4618      	mov	r0, r3
    102c:	bd80      	pop	{r7, pc}
    102e:	bf00      	nop
    1030:	40064000 	.word	0x40064000
    1034:	20000000 	.word	0x20000000

00001038 <CLOCK_GetOscRangeFromFreq>:
    1038:	b480      	push	{r7}
    103a:	b085      	sub	sp, #20
    103c:	af00      	add	r7, sp, #0
    103e:	6078      	str	r0, [r7, #4]
    1040:	687b      	ldr	r3, [r7, #4]
    1042:	f649 0297 	movw	r2, #39063	; 0x9897
    1046:	4293      	cmp	r3, r2
    1048:	d802      	bhi.n	1050 <CLOCK_GetOscRangeFromFreq+0x18>
    104a:	2300      	movs	r3, #0
    104c:	73fb      	strb	r3, [r7, #15]
    104e:	e008      	b.n	1062 <CLOCK_GetOscRangeFromFreq+0x2a>
    1050:	687b      	ldr	r3, [r7, #4]
    1052:	4a07      	ldr	r2, [pc, #28]	; (1070 <CLOCK_GetOscRangeFromFreq+0x38>)
    1054:	4293      	cmp	r3, r2
    1056:	d802      	bhi.n	105e <CLOCK_GetOscRangeFromFreq+0x26>
    1058:	2301      	movs	r3, #1
    105a:	73fb      	strb	r3, [r7, #15]
    105c:	e001      	b.n	1062 <CLOCK_GetOscRangeFromFreq+0x2a>
    105e:	2302      	movs	r3, #2
    1060:	73fb      	strb	r3, [r7, #15]
    1062:	7bfb      	ldrb	r3, [r7, #15]
    1064:	4618      	mov	r0, r3
    1066:	3714      	adds	r7, #20
    1068:	46bd      	mov	sp, r7
    106a:	f85d 7b04 	ldr.w	r7, [sp], #4
    106e:	4770      	bx	lr
    1070:	007a1200 	.word	0x007a1200

00001074 <CLOCK_GetCoreSysClkFreq>:
    1074:	b580      	push	{r7, lr}
    1076:	af00      	add	r7, sp, #0
    1078:	f000 f832 	bl	10e0 <CLOCK_GetOutClkFreq>
    107c:	4602      	mov	r2, r0
    107e:	4b06      	ldr	r3, [pc, #24]	; (1098 <CLOCK_GetCoreSysClkFreq+0x24>)
    1080:	f503 5382 	add.w	r3, r3, #4160	; 0x1040
    1084:	3304      	adds	r3, #4
    1086:	681b      	ldr	r3, [r3, #0]
    1088:	0f1b      	lsrs	r3, r3, #28
    108a:	f003 030f 	and.w	r3, r3, #15
    108e:	3301      	adds	r3, #1
    1090:	fbb2 f3f3 	udiv	r3, r2, r3
    1094:	4618      	mov	r0, r3
    1096:	bd80      	pop	{r7, pc}
    1098:	40047000 	.word	0x40047000

0000109c <CLOCK_SetSimConfig>:
    109c:	b580      	push	{r7, lr}
    109e:	b082      	sub	sp, #8
    10a0:	af00      	add	r7, sp, #0
    10a2:	6078      	str	r0, [r7, #4]
    10a4:	490d      	ldr	r1, [pc, #52]	; (10dc <CLOCK_SetSimConfig+0x40>)
    10a6:	687b      	ldr	r3, [r7, #4]
    10a8:	685a      	ldr	r2, [r3, #4]
    10aa:	f501 5382 	add.w	r3, r1, #4160	; 0x1040
    10ae:	3304      	adds	r3, #4
    10b0:	601a      	str	r2, [r3, #0]
    10b2:	687b      	ldr	r3, [r7, #4]
    10b4:	781b      	ldrb	r3, [r3, #0]
    10b6:	4618      	mov	r0, r3
    10b8:	687b      	ldr	r3, [r7, #4]
    10ba:	785b      	ldrb	r3, [r3, #1]
    10bc:	4619      	mov	r1, r3
    10be:	687b      	ldr	r3, [r7, #4]
    10c0:	789b      	ldrb	r3, [r3, #2]
    10c2:	461a      	mov	r2, r3
    10c4:	f7ff feb0 	bl	e28 <CLOCK_SetPllFllSelClock>
    10c8:	687b      	ldr	r3, [r7, #4]
    10ca:	78db      	ldrb	r3, [r3, #3]
    10cc:	4618      	mov	r0, r3
    10ce:	f7ff fe93 	bl	df8 <CLOCK_SetEr32kClock>
    10d2:	bf00      	nop
    10d4:	3708      	adds	r7, #8
    10d6:	46bd      	mov	sp, r7
    10d8:	bd80      	pop	{r7, pc}
    10da:	bf00      	nop
    10dc:	40047000 	.word	0x40047000

000010e0 <CLOCK_GetOutClkFreq>:
    10e0:	b580      	push	{r7, lr}
    10e2:	b084      	sub	sp, #16
    10e4:	af00      	add	r7, sp, #0
    10e6:	4b21      	ldr	r3, [pc, #132]	; (116c <CLOCK_GetOutClkFreq+0x8c>)
    10e8:	799b      	ldrb	r3, [r3, #6]
    10ea:	b2db      	uxtb	r3, r3
    10ec:	089b      	lsrs	r3, r3, #2
    10ee:	f003 0303 	and.w	r3, r3, #3
    10f2:	60bb      	str	r3, [r7, #8]
    10f4:	4b1d      	ldr	r3, [pc, #116]	; (116c <CLOCK_GetOutClkFreq+0x8c>)
    10f6:	7c9b      	ldrb	r3, [r3, #18]
    10f8:	b2db      	uxtb	r3, r3
    10fa:	091b      	lsrs	r3, r3, #4
    10fc:	f003 0301 	and.w	r3, r3, #1
    1100:	607b      	str	r3, [r7, #4]
    1102:	68bb      	ldr	r3, [r7, #8]
    1104:	2b03      	cmp	r3, #3
    1106:	d828      	bhi.n	115a <CLOCK_GetOutClkFreq+0x7a>
    1108:	a201      	add	r2, pc, #4	; (adr r2, 1110 <CLOCK_GetOutClkFreq+0x30>)
    110a:	f852 f023 	ldr.w	pc, [r2, r3, lsl #2]
    110e:	bf00      	nop
    1110:	00001143 	.word	0x00001143
    1114:	0000114b 	.word	0x0000114b
    1118:	00001153 	.word	0x00001153
    111c:	00001121 	.word	0x00001121
    1120:	687b      	ldr	r3, [r7, #4]
    1122:	2b00      	cmp	r3, #0
    1124:	d005      	beq.n	1132 <CLOCK_GetOutClkFreq+0x52>
    1126:	2b01      	cmp	r3, #1
    1128:	d107      	bne.n	113a <CLOCK_GetOutClkFreq+0x5a>
    112a:	f000 f895 	bl	1258 <CLOCK_GetExtPllFreq>
    112e:	60f8      	str	r0, [r7, #12]
    1130:	e006      	b.n	1140 <CLOCK_GetOutClkFreq+0x60>
    1132:	f000 f85b 	bl	11ec <CLOCK_GetPll0Freq>
    1136:	60f8      	str	r0, [r7, #12]
    1138:	e002      	b.n	1140 <CLOCK_GetOutClkFreq+0x60>
    113a:	2300      	movs	r3, #0
    113c:	60fb      	str	r3, [r7, #12]
    113e:	bf00      	nop
    1140:	e00e      	b.n	1160 <CLOCK_GetOutClkFreq+0x80>
    1142:	f000 f815 	bl	1170 <CLOCK_GetFllFreq>
    1146:	60f8      	str	r0, [r7, #12]
    1148:	e00a      	b.n	1160 <CLOCK_GetOutClkFreq+0x80>
    114a:	f7ff ff3d 	bl	fc8 <CLOCK_GetInternalRefClkSelectFreq>
    114e:	60f8      	str	r0, [r7, #12]
    1150:	e006      	b.n	1160 <CLOCK_GetOutClkFreq+0x80>
    1152:	f7ff fe95 	bl	e80 <CLOCK_GetMcgExtClkFreq>
    1156:	60f8      	str	r0, [r7, #12]
    1158:	e002      	b.n	1160 <CLOCK_GetOutClkFreq+0x80>
    115a:	2300      	movs	r3, #0
    115c:	60fb      	str	r3, [r7, #12]
    115e:	bf00      	nop
    1160:	68fb      	ldr	r3, [r7, #12]
    1162:	4618      	mov	r0, r3
    1164:	3710      	adds	r7, #16
    1166:	46bd      	mov	sp, r7
    1168:	bd80      	pop	{r7, pc}
    116a:	bf00      	nop
    116c:	40064000 	.word	0x40064000

00001170 <CLOCK_GetFllFreq>:
    1170:	b580      	push	{r7, lr}
    1172:	b082      	sub	sp, #8
    1174:	af00      	add	r7, sp, #0
    1176:	4b1b      	ldr	r3, [pc, #108]	; (11e4 <CLOCK_GetFllFreq+0x74>)
    1178:	785b      	ldrb	r3, [r3, #1]
    117a:	b2db      	uxtb	r3, r3
    117c:	f003 0302 	and.w	r3, r3, #2
    1180:	2b00      	cmp	r3, #0
    1182:	d106      	bne.n	1192 <CLOCK_GetFllFreq+0x22>
    1184:	4b17      	ldr	r3, [pc, #92]	; (11e4 <CLOCK_GetFllFreq+0x74>)
    1186:	799b      	ldrb	r3, [r3, #6]
    1188:	b2db      	uxtb	r3, r3
    118a:	f003 0320 	and.w	r3, r3, #32
    118e:	2b00      	cmp	r3, #0
    1190:	d001      	beq.n	1196 <CLOCK_GetFllFreq+0x26>
    1192:	2300      	movs	r3, #0
    1194:	e022      	b.n	11dc <CLOCK_GetFllFreq+0x6c>
    1196:	f7ff ff39 	bl	100c <CLOCK_GetFllRefClkFreq>
    119a:	6078      	str	r0, [r7, #4]
    119c:	687b      	ldr	r3, [r7, #4]
    119e:	2b00      	cmp	r3, #0
    11a0:	d101      	bne.n	11a6 <CLOCK_GetFllFreq+0x36>
    11a2:	687b      	ldr	r3, [r7, #4]
    11a4:	e01a      	b.n	11dc <CLOCK_GetFllFreq+0x6c>
    11a6:	4b0f      	ldr	r3, [pc, #60]	; (11e4 <CLOCK_GetFllFreq+0x74>)
    11a8:	78db      	ldrb	r3, [r3, #3]
    11aa:	b2db      	uxtb	r3, r3
    11ac:	095b      	lsrs	r3, r3, #5
    11ae:	b2db      	uxtb	r3, r3
    11b0:	f003 0303 	and.w	r3, r3, #3
    11b4:	70fb      	strb	r3, [r7, #3]
    11b6:	4b0b      	ldr	r3, [pc, #44]	; (11e4 <CLOCK_GetFllFreq+0x74>)
    11b8:	78db      	ldrb	r3, [r3, #3]
    11ba:	b2db      	uxtb	r3, r3
    11bc:	09db      	lsrs	r3, r3, #7
    11be:	b2db      	uxtb	r3, r3
    11c0:	f003 0301 	and.w	r3, r3, #1
    11c4:	70bb      	strb	r3, [r7, #2]
    11c6:	78fa      	ldrb	r2, [r7, #3]
    11c8:	78bb      	ldrb	r3, [r7, #2]
    11ca:	4907      	ldr	r1, [pc, #28]	; (11e8 <CLOCK_GetFllFreq+0x78>)
    11cc:	0052      	lsls	r2, r2, #1
    11ce:	4413      	add	r3, r2
    11d0:	f831 3013 	ldrh.w	r3, [r1, r3, lsl #1]
    11d4:	461a      	mov	r2, r3
    11d6:	687b      	ldr	r3, [r7, #4]
    11d8:	fb03 f302 	mul.w	r3, r3, r2
    11dc:	4618      	mov	r0, r3
    11de:	3708      	adds	r7, #8
    11e0:	46bd      	mov	sp, r7
    11e2:	bd80      	pop	{r7, pc}
    11e4:	40064000 	.word	0x40064000
    11e8:	00005ec0 	.word	0x00005ec0

000011ec <CLOCK_GetPll0Freq>:
    11ec:	b580      	push	{r7, lr}
    11ee:	b082      	sub	sp, #8
    11f0:	af00      	add	r7, sp, #0
    11f2:	4b17      	ldr	r3, [pc, #92]	; (1250 <CLOCK_GetPll0Freq+0x64>)
    11f4:	799b      	ldrb	r3, [r3, #6]
    11f6:	b2db      	uxtb	r3, r3
    11f8:	f003 0340 	and.w	r3, r3, #64	; 0x40
    11fc:	2b00      	cmp	r3, #0
    11fe:	d101      	bne.n	1204 <CLOCK_GetPll0Freq+0x18>
    1200:	2300      	movs	r3, #0
    1202:	e021      	b.n	1248 <CLOCK_GetPll0Freq+0x5c>
    1204:	f003 fd7d 	bl	4d02 <CLOCK_GetPll0RefFreq>
    1208:	6078      	str	r0, [r7, #4]
    120a:	687b      	ldr	r3, [r7, #4]
    120c:	2b00      	cmp	r3, #0
    120e:	d102      	bne.n	1216 <CLOCK_GetPll0Freq+0x2a>
    1210:	4810      	ldr	r0, [pc, #64]	; (1254 <CLOCK_GetPll0Freq+0x68>)
    1212:	f002 fe23 	bl	3e5c <__assertion_failed>
    1216:	4b0e      	ldr	r3, [pc, #56]	; (1250 <CLOCK_GetPll0Freq+0x64>)
    1218:	791b      	ldrb	r3, [r3, #4]
    121a:	b2db      	uxtb	r3, r3
    121c:	f003 0307 	and.w	r3, r3, #7
    1220:	3301      	adds	r3, #1
    1222:	687a      	ldr	r2, [r7, #4]
    1224:	fbb2 f3f3 	udiv	r3, r2, r3
    1228:	607b      	str	r3, [r7, #4]
    122a:	4b09      	ldr	r3, [pc, #36]	; (1250 <CLOCK_GetPll0Freq+0x64>)
    122c:	795b      	ldrb	r3, [r3, #5]
    122e:	b2db      	uxtb	r3, r3
    1230:	f003 031f 	and.w	r3, r3, #31
    1234:	f103 0210 	add.w	r2, r3, #16
    1238:	687b      	ldr	r3, [r7, #4]
    123a:	fb02 f303 	mul.w	r3, r2, r3
    123e:	607b      	str	r3, [r7, #4]
    1240:	687b      	ldr	r3, [r7, #4]
    1242:	085b      	lsrs	r3, r3, #1
    1244:	607b      	str	r3, [r7, #4]
    1246:	687b      	ldr	r3, [r7, #4]
    1248:	4618      	mov	r0, r3
    124a:	3708      	adds	r7, #8
    124c:	46bd      	mov	sp, r7
    124e:	bd80      	pop	{r7, pc}
    1250:	40064000 	.word	0x40064000
    1254:	00005e20 	.word	0x00005e20

00001258 <CLOCK_GetExtPllFreq>:
    1258:	b480      	push	{r7}
    125a:	af00      	add	r7, sp, #0
    125c:	4b03      	ldr	r3, [pc, #12]	; (126c <CLOCK_GetExtPllFreq+0x14>)
    125e:	681b      	ldr	r3, [r3, #0]
    1260:	4618      	mov	r0, r3
    1262:	46bd      	mov	sp, r7
    1264:	f85d 7b04 	ldr.w	r7, [sp], #4
    1268:	4770      	bx	lr
    126a:	bf00      	nop
    126c:	20000018 	.word	0x20000018

00001270 <CLOCK_SetExternalRefClkConfig>:
    1270:	b480      	push	{r7}
    1272:	b085      	sub	sp, #20
    1274:	af00      	add	r7, sp, #0
    1276:	4603      	mov	r3, r0
    1278:	71fb      	strb	r3, [r7, #7]
    127a:	4b17      	ldr	r3, [pc, #92]	; (12d8 <CLOCK_SetExternalRefClkConfig+0x68>)
    127c:	7b1b      	ldrb	r3, [r3, #12]
    127e:	b2db      	uxtb	r3, r3
    1280:	f003 0203 	and.w	r2, r3, #3
    1284:	79fb      	ldrb	r3, [r7, #7]
    1286:	429a      	cmp	r2, r3
    1288:	d002      	beq.n	1290 <CLOCK_SetExternalRefClkConfig+0x20>
    128a:	2301      	movs	r3, #1
    128c:	73fb      	strb	r3, [r7, #15]
    128e:	e001      	b.n	1294 <CLOCK_SetExternalRefClkConfig+0x24>
    1290:	2300      	movs	r3, #0
    1292:	73fb      	strb	r3, [r7, #15]
    1294:	4b10      	ldr	r3, [pc, #64]	; (12d8 <CLOCK_SetExternalRefClkConfig+0x68>)
    1296:	7b1b      	ldrb	r3, [r3, #12]
    1298:	b2db      	uxtb	r3, r3
    129a:	f023 0303 	bic.w	r3, r3, #3
    129e:	b2da      	uxtb	r2, r3
    12a0:	79fb      	ldrb	r3, [r7, #7]
    12a2:	f003 0303 	and.w	r3, r3, #3
    12a6:	b2db      	uxtb	r3, r3
    12a8:	490b      	ldr	r1, [pc, #44]	; (12d8 <CLOCK_SetExternalRefClkConfig+0x68>)
    12aa:	4313      	orrs	r3, r2
    12ac:	b2db      	uxtb	r3, r3
    12ae:	730b      	strb	r3, [r1, #12]
    12b0:	7bfb      	ldrb	r3, [r7, #15]
    12b2:	2b00      	cmp	r3, #0
    12b4:	d009      	beq.n	12ca <CLOCK_SetExternalRefClkConfig+0x5a>
    12b6:	f240 53dc 	movw	r3, #1500	; 0x5dc
    12ba:	60bb      	str	r3, [r7, #8]
    12bc:	e000      	b.n	12c0 <CLOCK_SetExternalRefClkConfig+0x50>
    12be:	bf00      	nop
    12c0:	68bb      	ldr	r3, [r7, #8]
    12c2:	1e5a      	subs	r2, r3, #1
    12c4:	60ba      	str	r2, [r7, #8]
    12c6:	2b00      	cmp	r3, #0
    12c8:	d1f9      	bne.n	12be <CLOCK_SetExternalRefClkConfig+0x4e>
    12ca:	2300      	movs	r3, #0
    12cc:	4618      	mov	r0, r3
    12ce:	3714      	adds	r7, #20
    12d0:	46bd      	mov	sp, r7
    12d2:	f85d 7b04 	ldr.w	r7, [sp], #4
    12d6:	4770      	bx	lr
    12d8:	40064000 	.word	0x40064000

000012dc <CLOCK_SetInternalRefClkConfig>:
    12dc:	b480      	push	{r7}
    12de:	b085      	sub	sp, #20
    12e0:	af00      	add	r7, sp, #0
    12e2:	4603      	mov	r3, r0
    12e4:	71fb      	strb	r3, [r7, #7]
    12e6:	460b      	mov	r3, r1
    12e8:	71bb      	strb	r3, [r7, #6]
    12ea:	4613      	mov	r3, r2
    12ec:	717b      	strb	r3, [r7, #5]
    12ee:	4b3b      	ldr	r3, [pc, #236]	; (13dc <CLOCK_SetInternalRefClkConfig+0x100>)
    12f0:	799b      	ldrb	r3, [r3, #6]
    12f2:	b2db      	uxtb	r3, r3
    12f4:	089b      	lsrs	r3, r3, #2
    12f6:	f003 0303 	and.w	r3, r3, #3
    12fa:	60fb      	str	r3, [r7, #12]
    12fc:	4b37      	ldr	r3, [pc, #220]	; (13dc <CLOCK_SetInternalRefClkConfig+0x100>)
    12fe:	799b      	ldrb	r3, [r3, #6]
    1300:	b2db      	uxtb	r3, r3
    1302:	f003 0301 	and.w	r3, r3, #1
    1306:	72fb      	strb	r3, [r7, #11]
    1308:	4b34      	ldr	r3, [pc, #208]	; (13dc <CLOCK_SetInternalRefClkConfig+0x100>)
    130a:	7a1b      	ldrb	r3, [r3, #8]
    130c:	b2db      	uxtb	r3, r3
    130e:	085b      	lsrs	r3, r3, #1
    1310:	b2db      	uxtb	r3, r3
    1312:	f003 0307 	and.w	r3, r3, #7
    1316:	72bb      	strb	r3, [r7, #10]
    1318:	797a      	ldrb	r2, [r7, #5]
    131a:	7abb      	ldrb	r3, [r7, #10]
    131c:	429a      	cmp	r2, r3
    131e:	d02c      	beq.n	137a <CLOCK_SetInternalRefClkConfig+0x9e>
    1320:	7afb      	ldrb	r3, [r7, #11]
    1322:	2b01      	cmp	r3, #1
    1324:	d119      	bne.n	135a <CLOCK_SetInternalRefClkConfig+0x7e>
    1326:	68fb      	ldr	r3, [r7, #12]
    1328:	2b01      	cmp	r3, #1
    132a:	d006      	beq.n	133a <CLOCK_SetInternalRefClkConfig+0x5e>
    132c:	4b2b      	ldr	r3, [pc, #172]	; (13dc <CLOCK_SetInternalRefClkConfig+0x100>)
    132e:	781b      	ldrb	r3, [r3, #0]
    1330:	b2db      	uxtb	r3, r3
    1332:	f003 0302 	and.w	r3, r3, #2
    1336:	2b00      	cmp	r3, #0
    1338:	d00f      	beq.n	135a <CLOCK_SetInternalRefClkConfig+0x7e>
    133a:	4b28      	ldr	r3, [pc, #160]	; (13dc <CLOCK_SetInternalRefClkConfig+0x100>)
    133c:	785b      	ldrb	r3, [r3, #1]
    133e:	b2db      	uxtb	r3, r3
    1340:	4a26      	ldr	r2, [pc, #152]	; (13dc <CLOCK_SetInternalRefClkConfig+0x100>)
    1342:	f023 0301 	bic.w	r3, r3, #1
    1346:	b2db      	uxtb	r3, r3
    1348:	7053      	strb	r3, [r2, #1]
    134a:	bf00      	nop
    134c:	4b23      	ldr	r3, [pc, #140]	; (13dc <CLOCK_SetInternalRefClkConfig+0x100>)
    134e:	799b      	ldrb	r3, [r3, #6]
    1350:	b2db      	uxtb	r3, r3
    1352:	f003 0301 	and.w	r3, r3, #1
    1356:	2b00      	cmp	r3, #0
    1358:	d1f8      	bne.n	134c <CLOCK_SetInternalRefClkConfig+0x70>
    135a:	4b20      	ldr	r3, [pc, #128]	; (13dc <CLOCK_SetInternalRefClkConfig+0x100>)
    135c:	7a1b      	ldrb	r3, [r3, #8]
    135e:	b2db      	uxtb	r3, r3
    1360:	f023 032f 	bic.w	r3, r3, #47	; 0x2f
    1364:	b2da      	uxtb	r2, r3
    1366:	797b      	ldrb	r3, [r7, #5]
    1368:	005b      	lsls	r3, r3, #1
    136a:	b2db      	uxtb	r3, r3
    136c:	f003 030e 	and.w	r3, r3, #14
    1370:	b2db      	uxtb	r3, r3
    1372:	491a      	ldr	r1, [pc, #104]	; (13dc <CLOCK_SetInternalRefClkConfig+0x100>)
    1374:	4313      	orrs	r3, r2
    1376:	b2db      	uxtb	r3, r3
    1378:	720b      	strb	r3, [r1, #8]
    137a:	4b18      	ldr	r3, [pc, #96]	; (13dc <CLOCK_SetInternalRefClkConfig+0x100>)
    137c:	785b      	ldrb	r3, [r3, #1]
    137e:	b2db      	uxtb	r3, r3
    1380:	f023 0301 	bic.w	r3, r3, #1
    1384:	b2da      	uxtb	r2, r3
    1386:	79bb      	ldrb	r3, [r7, #6]
    1388:	f003 0301 	and.w	r3, r3, #1
    138c:	b2db      	uxtb	r3, r3
    138e:	4913      	ldr	r1, [pc, #76]	; (13dc <CLOCK_SetInternalRefClkConfig+0x100>)
    1390:	4313      	orrs	r3, r2
    1392:	b2db      	uxtb	r3, r3
    1394:	704b      	strb	r3, [r1, #1]
    1396:	4b11      	ldr	r3, [pc, #68]	; (13dc <CLOCK_SetInternalRefClkConfig+0x100>)
    1398:	781b      	ldrb	r3, [r3, #0]
    139a:	b2db      	uxtb	r3, r3
    139c:	f023 0303 	bic.w	r3, r3, #3
    13a0:	b2da      	uxtb	r2, r3
    13a2:	490e      	ldr	r1, [pc, #56]	; (13dc <CLOCK_SetInternalRefClkConfig+0x100>)
    13a4:	79fb      	ldrb	r3, [r7, #7]
    13a6:	4313      	orrs	r3, r2
    13a8:	b2db      	uxtb	r3, r3
    13aa:	700b      	strb	r3, [r1, #0]
    13ac:	68fb      	ldr	r3, [r7, #12]
    13ae:	2b01      	cmp	r3, #1
    13b0:	d004      	beq.n	13bc <CLOCK_SetInternalRefClkConfig+0xe0>
    13b2:	79fb      	ldrb	r3, [r7, #7]
    13b4:	f003 0302 	and.w	r3, r3, #2
    13b8:	2b00      	cmp	r3, #0
    13ba:	d008      	beq.n	13ce <CLOCK_SetInternalRefClkConfig+0xf2>
    13bc:	bf00      	nop
    13be:	4b07      	ldr	r3, [pc, #28]	; (13dc <CLOCK_SetInternalRefClkConfig+0x100>)
    13c0:	799b      	ldrb	r3, [r3, #6]
    13c2:	b2db      	uxtb	r3, r3
    13c4:	f003 0201 	and.w	r2, r3, #1
    13c8:	79bb      	ldrb	r3, [r7, #6]
    13ca:	429a      	cmp	r2, r3
    13cc:	d1f7      	bne.n	13be <CLOCK_SetInternalRefClkConfig+0xe2>
    13ce:	2300      	movs	r3, #0
    13d0:	4618      	mov	r0, r3
    13d2:	3714      	adds	r7, #20
    13d4:	46bd      	mov	sp, r7
    13d6:	f85d 7b04 	ldr.w	r7, [sp], #4
    13da:	4770      	bx	lr
    13dc:	40064000 	.word	0x40064000

000013e0 <CLOCK_EnablePll0>:
    13e0:	b580      	push	{r7, lr}
    13e2:	b084      	sub	sp, #16
    13e4:	af00      	add	r7, sp, #0
    13e6:	6078      	str	r0, [r7, #4]
    13e8:	687b      	ldr	r3, [r7, #4]
    13ea:	2b00      	cmp	r3, #0
    13ec:	d102      	bne.n	13f4 <CLOCK_EnablePll0+0x14>
    13ee:	481b      	ldr	r0, [pc, #108]	; (145c <CLOCK_EnablePll0+0x7c>)
    13f0:	f002 fd34 	bl	3e5c <__assertion_failed>
    13f4:	2300      	movs	r3, #0
    13f6:	73fb      	strb	r3, [r7, #15]
    13f8:	687b      	ldr	r3, [r7, #4]
    13fa:	785b      	ldrb	r3, [r3, #1]
    13fc:	f003 0307 	and.w	r3, r3, #7
    1400:	b2da      	uxtb	r2, r3
    1402:	7bfb      	ldrb	r3, [r7, #15]
    1404:	4313      	orrs	r3, r2
    1406:	73fb      	strb	r3, [r7, #15]
    1408:	4a15      	ldr	r2, [pc, #84]	; (1460 <CLOCK_EnablePll0+0x80>)
    140a:	7bfb      	ldrb	r3, [r7, #15]
    140c:	7113      	strb	r3, [r2, #4]
    140e:	4b14      	ldr	r3, [pc, #80]	; (1460 <CLOCK_EnablePll0+0x80>)
    1410:	795b      	ldrb	r3, [r3, #5]
    1412:	b2db      	uxtb	r3, r3
    1414:	f023 031f 	bic.w	r3, r3, #31
    1418:	b2da      	uxtb	r2, r3
    141a:	687b      	ldr	r3, [r7, #4]
    141c:	789b      	ldrb	r3, [r3, #2]
    141e:	f003 031f 	and.w	r3, r3, #31
    1422:	b2db      	uxtb	r3, r3
    1424:	490e      	ldr	r1, [pc, #56]	; (1460 <CLOCK_EnablePll0+0x80>)
    1426:	4313      	orrs	r3, r2
    1428:	b2db      	uxtb	r3, r3
    142a:	714b      	strb	r3, [r1, #5]
    142c:	4b0c      	ldr	r3, [pc, #48]	; (1460 <CLOCK_EnablePll0+0x80>)
    142e:	791b      	ldrb	r3, [r3, #4]
    1430:	b2da      	uxtb	r2, r3
    1432:	687b      	ldr	r3, [r7, #4]
    1434:	781b      	ldrb	r3, [r3, #0]
    1436:	4313      	orrs	r3, r2
    1438:	b2db      	uxtb	r3, r3
    143a:	4a09      	ldr	r2, [pc, #36]	; (1460 <CLOCK_EnablePll0+0x80>)
    143c:	f043 0340 	orr.w	r3, r3, #64	; 0x40
    1440:	b2db      	uxtb	r3, r3
    1442:	7113      	strb	r3, [r2, #4]
    1444:	bf00      	nop
    1446:	4b06      	ldr	r3, [pc, #24]	; (1460 <CLOCK_EnablePll0+0x80>)
    1448:	799b      	ldrb	r3, [r3, #6]
    144a:	b2db      	uxtb	r3, r3
    144c:	f003 0340 	and.w	r3, r3, #64	; 0x40
    1450:	2b00      	cmp	r3, #0
    1452:	d0f8      	beq.n	1446 <CLOCK_EnablePll0+0x66>
    1454:	bf00      	nop
    1456:	3710      	adds	r7, #16
    1458:	46bd      	mov	sp, r7
    145a:	bd80      	pop	{r7, pc}
    145c:	00005e48 	.word	0x00005e48
    1460:	40064000 	.word	0x40064000

00001464 <CLOCK_InitOsc0>:
    1464:	b580      	push	{r7, lr}
    1466:	b084      	sub	sp, #16
    1468:	af00      	add	r7, sp, #0
    146a:	6078      	str	r0, [r7, #4]
    146c:	687b      	ldr	r3, [r7, #4]
    146e:	681b      	ldr	r3, [r3, #0]
    1470:	4618      	mov	r0, r3
    1472:	f7ff fde1 	bl	1038 <CLOCK_GetOscRangeFromFreq>
    1476:	4603      	mov	r3, r0
    1478:	73fb      	strb	r3, [r7, #15]
    147a:	687b      	ldr	r3, [r7, #4]
    147c:	791b      	ldrb	r3, [r3, #4]
    147e:	4619      	mov	r1, r3
    1480:	4819      	ldr	r0, [pc, #100]	; (14e8 <CLOCK_InitOsc0+0x84>)
    1482:	f003 fc24 	bl	4cce <OSC_SetCapLoad>
    1486:	687b      	ldr	r3, [r7, #4]
    1488:	3306      	adds	r3, #6
    148a:	4619      	mov	r1, r3
    148c:	4816      	ldr	r0, [pc, #88]	; (14e8 <CLOCK_InitOsc0+0x84>)
    148e:	f003 fbfe 	bl	4c8e <OSC_SetExtRefClkConfig>
    1492:	4b16      	ldr	r3, [pc, #88]	; (14ec <CLOCK_InitOsc0+0x88>)
    1494:	785b      	ldrb	r3, [r3, #1]
    1496:	b2db      	uxtb	r3, r3
    1498:	f023 033c 	bic.w	r3, r3, #60	; 0x3c
    149c:	b2da      	uxtb	r2, r3
    149e:	7bfb      	ldrb	r3, [r7, #15]
    14a0:	011b      	lsls	r3, r3, #4
    14a2:	b2db      	uxtb	r3, r3
    14a4:	f003 0330 	and.w	r3, r3, #48	; 0x30
    14a8:	b2db      	uxtb	r3, r3
    14aa:	4313      	orrs	r3, r2
    14ac:	b2da      	uxtb	r2, r3
    14ae:	687b      	ldr	r3, [r7, #4]
    14b0:	795b      	ldrb	r3, [r3, #5]
    14b2:	490e      	ldr	r1, [pc, #56]	; (14ec <CLOCK_InitOsc0+0x88>)
    14b4:	4313      	orrs	r3, r2
    14b6:	b2db      	uxtb	r3, r3
    14b8:	704b      	strb	r3, [r1, #1]
    14ba:	687b      	ldr	r3, [r7, #4]
    14bc:	795b      	ldrb	r3, [r3, #5]
    14be:	2b00      	cmp	r3, #0
    14c0:	d00d      	beq.n	14de <CLOCK_InitOsc0+0x7a>
    14c2:	4b09      	ldr	r3, [pc, #36]	; (14e8 <CLOCK_InitOsc0+0x84>)
    14c4:	781b      	ldrb	r3, [r3, #0]
    14c6:	b2db      	uxtb	r3, r3
    14c8:	b25b      	sxtb	r3, r3
    14ca:	2b00      	cmp	r3, #0
    14cc:	da07      	bge.n	14de <CLOCK_InitOsc0+0x7a>
    14ce:	bf00      	nop
    14d0:	4b06      	ldr	r3, [pc, #24]	; (14ec <CLOCK_InitOsc0+0x88>)
    14d2:	799b      	ldrb	r3, [r3, #6]
    14d4:	b2db      	uxtb	r3, r3
    14d6:	f003 0302 	and.w	r3, r3, #2
    14da:	2b00      	cmp	r3, #0
    14dc:	d0f8      	beq.n	14d0 <CLOCK_InitOsc0+0x6c>
    14de:	bf00      	nop
    14e0:	3710      	adds	r7, #16
    14e2:	46bd      	mov	sp, r7
    14e4:	bd80      	pop	{r7, pc}
    14e6:	bf00      	nop
    14e8:	40065000 	.word	0x40065000
    14ec:	40064000 	.word	0x40064000

000014f0 <CLOCK_SetPbeMode>:
    14f0:	b580      	push	{r7, lr}
    14f2:	b082      	sub	sp, #8
    14f4:	af00      	add	r7, sp, #0
    14f6:	4603      	mov	r3, r0
    14f8:	6039      	str	r1, [r7, #0]
    14fa:	71fb      	strb	r3, [r7, #7]
    14fc:	79fb      	ldrb	r3, [r7, #7]
    14fe:	2b01      	cmp	r3, #1
    1500:	d005      	beq.n	150e <CLOCK_SetPbeMode+0x1e>
    1502:	683b      	ldr	r3, [r7, #0]
    1504:	2b00      	cmp	r3, #0
    1506:	d102      	bne.n	150e <CLOCK_SetPbeMode+0x1e>
    1508:	4831      	ldr	r0, [pc, #196]	; (15d0 <CLOCK_SetPbeMode+0xe0>)
    150a:	f002 fca7 	bl	3e5c <__assertion_failed>
    150e:	4b31      	ldr	r3, [pc, #196]	; (15d4 <CLOCK_SetPbeMode+0xe4>)
    1510:	785b      	ldrb	r3, [r3, #1]
    1512:	b2db      	uxtb	r3, r3
    1514:	4a2f      	ldr	r2, [pc, #188]	; (15d4 <CLOCK_SetPbeMode+0xe4>)
    1516:	f023 0302 	bic.w	r3, r3, #2
    151a:	b2db      	uxtb	r3, r3
    151c:	7053      	strb	r3, [r2, #1]
    151e:	4b2d      	ldr	r3, [pc, #180]	; (15d4 <CLOCK_SetPbeMode+0xe4>)
    1520:	781b      	ldrb	r3, [r3, #0]
    1522:	b2db      	uxtb	r3, r3
    1524:	f003 033b 	and.w	r3, r3, #59	; 0x3b
    1528:	b2db      	uxtb	r3, r3
    152a:	4a2a      	ldr	r2, [pc, #168]	; (15d4 <CLOCK_SetPbeMode+0xe4>)
    152c:	f063 037f 	orn	r3, r3, #127	; 0x7f
    1530:	b2db      	uxtb	r3, r3
    1532:	7013      	strb	r3, [r2, #0]
    1534:	bf00      	nop
    1536:	4b27      	ldr	r3, [pc, #156]	; (15d4 <CLOCK_SetPbeMode+0xe4>)
    1538:	799b      	ldrb	r3, [r3, #6]
    153a:	b2db      	uxtb	r3, r3
    153c:	f003 031c 	and.w	r3, r3, #28
    1540:	2b08      	cmp	r3, #8
    1542:	d1f8      	bne.n	1536 <CLOCK_SetPbeMode+0x46>
    1544:	4b23      	ldr	r3, [pc, #140]	; (15d4 <CLOCK_SetPbeMode+0xe4>)
    1546:	795b      	ldrb	r3, [r3, #5]
    1548:	b2db      	uxtb	r3, r3
    154a:	4a22      	ldr	r2, [pc, #136]	; (15d4 <CLOCK_SetPbeMode+0xe4>)
    154c:	f023 0340 	bic.w	r3, r3, #64	; 0x40
    1550:	b2db      	uxtb	r3, r3
    1552:	7153      	strb	r3, [r2, #5]
    1554:	bf00      	nop
    1556:	4b1f      	ldr	r3, [pc, #124]	; (15d4 <CLOCK_SetPbeMode+0xe4>)
    1558:	799b      	ldrb	r3, [r3, #6]
    155a:	b2db      	uxtb	r3, r3
    155c:	f003 0320 	and.w	r3, r3, #32
    1560:	2b00      	cmp	r3, #0
    1562:	d1f8      	bne.n	1556 <CLOCK_SetPbeMode+0x66>
    1564:	79fb      	ldrb	r3, [r7, #7]
    1566:	2b00      	cmp	r3, #0
    1568:	d102      	bne.n	1570 <CLOCK_SetPbeMode+0x80>
    156a:	6838      	ldr	r0, [r7, #0]
    156c:	f7ff ff38 	bl	13e0 <CLOCK_EnablePll0>
    1570:	4b18      	ldr	r3, [pc, #96]	; (15d4 <CLOCK_SetPbeMode+0xe4>)
    1572:	795b      	ldrb	r3, [r3, #5]
    1574:	b2db      	uxtb	r3, r3
    1576:	4a17      	ldr	r2, [pc, #92]	; (15d4 <CLOCK_SetPbeMode+0xe4>)
    1578:	f043 0340 	orr.w	r3, r3, #64	; 0x40
    157c:	b2db      	uxtb	r3, r3
    157e:	7153      	strb	r3, [r2, #5]
    1580:	4b14      	ldr	r3, [pc, #80]	; (15d4 <CLOCK_SetPbeMode+0xe4>)
    1582:	7c1b      	ldrb	r3, [r3, #16]
    1584:	b2db      	uxtb	r3, r3
    1586:	f023 0310 	bic.w	r3, r3, #16
    158a:	b2da      	uxtb	r2, r3
    158c:	79fb      	ldrb	r3, [r7, #7]
    158e:	011b      	lsls	r3, r3, #4
    1590:	b2db      	uxtb	r3, r3
    1592:	f003 0310 	and.w	r3, r3, #16
    1596:	b2db      	uxtb	r3, r3
    1598:	490e      	ldr	r1, [pc, #56]	; (15d4 <CLOCK_SetPbeMode+0xe4>)
    159a:	4313      	orrs	r3, r2
    159c:	b2db      	uxtb	r3, r3
    159e:	740b      	strb	r3, [r1, #16]
    15a0:	bf00      	nop
    15a2:	79fa      	ldrb	r2, [r7, #7]
    15a4:	4b0b      	ldr	r3, [pc, #44]	; (15d4 <CLOCK_SetPbeMode+0xe4>)
    15a6:	7c9b      	ldrb	r3, [r3, #18]
    15a8:	b2db      	uxtb	r3, r3
    15aa:	091b      	lsrs	r3, r3, #4
    15ac:	f003 0301 	and.w	r3, r3, #1
    15b0:	429a      	cmp	r2, r3
    15b2:	d1f6      	bne.n	15a2 <CLOCK_SetPbeMode+0xb2>
    15b4:	bf00      	nop
    15b6:	4b07      	ldr	r3, [pc, #28]	; (15d4 <CLOCK_SetPbeMode+0xe4>)
    15b8:	799b      	ldrb	r3, [r3, #6]
    15ba:	b2db      	uxtb	r3, r3
    15bc:	f003 0320 	and.w	r3, r3, #32
    15c0:	2b00      	cmp	r3, #0
    15c2:	d0f8      	beq.n	15b6 <CLOCK_SetPbeMode+0xc6>
    15c4:	2300      	movs	r3, #0
    15c6:	4618      	mov	r0, r3
    15c8:	3708      	adds	r7, #8
    15ca:	46bd      	mov	sp, r7
    15cc:	bd80      	pop	{r7, pc}
    15ce:	bf00      	nop
    15d0:	00005e70 	.word	0x00005e70
    15d4:	40064000 	.word	0x40064000

000015d8 <CLOCK_BootToPeeMode>:
    15d8:	b580      	push	{r7, lr}
    15da:	b082      	sub	sp, #8
    15dc:	af00      	add	r7, sp, #0
    15de:	4603      	mov	r3, r0
    15e0:	603a      	str	r2, [r7, #0]
    15e2:	71fb      	strb	r3, [r7, #7]
    15e4:	460b      	mov	r3, r1
    15e6:	71bb      	strb	r3, [r7, #6]
    15e8:	79bb      	ldrb	r3, [r7, #6]
    15ea:	2b01      	cmp	r3, #1
    15ec:	d005      	beq.n	15fa <CLOCK_BootToPeeMode+0x22>
    15ee:	683b      	ldr	r3, [r7, #0]
    15f0:	2b00      	cmp	r3, #0
    15f2:	d102      	bne.n	15fa <CLOCK_BootToPeeMode+0x22>
    15f4:	4810      	ldr	r0, [pc, #64]	; (1638 <CLOCK_BootToPeeMode+0x60>)
    15f6:	f002 fc31 	bl	3e5c <__assertion_failed>
    15fa:	79fb      	ldrb	r3, [r7, #7]
    15fc:	4618      	mov	r0, r3
    15fe:	f7ff fe37 	bl	1270 <CLOCK_SetExternalRefClkConfig>
    1602:	79bb      	ldrb	r3, [r7, #6]
    1604:	6839      	ldr	r1, [r7, #0]
    1606:	4618      	mov	r0, r3
    1608:	f7ff ff72 	bl	14f0 <CLOCK_SetPbeMode>
    160c:	4b0b      	ldr	r3, [pc, #44]	; (163c <CLOCK_BootToPeeMode+0x64>)
    160e:	781b      	ldrb	r3, [r3, #0]
    1610:	b2db      	uxtb	r3, r3
    1612:	4a0a      	ldr	r2, [pc, #40]	; (163c <CLOCK_BootToPeeMode+0x64>)
    1614:	f003 033f 	and.w	r3, r3, #63	; 0x3f
    1618:	b2db      	uxtb	r3, r3
    161a:	7013      	strb	r3, [r2, #0]
    161c:	bf00      	nop
    161e:	4b07      	ldr	r3, [pc, #28]	; (163c <CLOCK_BootToPeeMode+0x64>)
    1620:	799b      	ldrb	r3, [r3, #6]
    1622:	b2db      	uxtb	r3, r3
    1624:	089b      	lsrs	r3, r3, #2
    1626:	f003 0303 	and.w	r3, r3, #3
    162a:	2b03      	cmp	r3, #3
    162c:	d1f7      	bne.n	161e <CLOCK_BootToPeeMode+0x46>
    162e:	2300      	movs	r3, #0
    1630:	4618      	mov	r0, r3
    1632:	3708      	adds	r7, #8
    1634:	46bd      	mov	sp, r7
    1636:	bd80      	pop	{r7, pc}
    1638:	00005e98 	.word	0x00005e98
    163c:	40064000 	.word	0x40064000

00001640 <LPUART_GetInstance>:
    1640:	b580      	push	{r7, lr}
    1642:	b084      	sub	sp, #16
    1644:	af00      	add	r7, sp, #0
    1646:	6078      	str	r0, [r7, #4]
    1648:	2300      	movs	r3, #0
    164a:	60fb      	str	r3, [r7, #12]
    164c:	e006      	b.n	165c <LPUART_GetInstance+0x1c>
    164e:	4a0b      	ldr	r2, [pc, #44]	; (167c <LPUART_GetInstance+0x3c>)
    1650:	687b      	ldr	r3, [r7, #4]
    1652:	4293      	cmp	r3, r2
    1654:	d006      	beq.n	1664 <LPUART_GetInstance+0x24>
    1656:	68fb      	ldr	r3, [r7, #12]
    1658:	3301      	adds	r3, #1
    165a:	60fb      	str	r3, [r7, #12]
    165c:	68fb      	ldr	r3, [r7, #12]
    165e:	2b00      	cmp	r3, #0
    1660:	d0f5      	beq.n	164e <LPUART_GetInstance+0xe>
    1662:	e000      	b.n	1666 <LPUART_GetInstance+0x26>
    1664:	bf00      	nop
    1666:	68fb      	ldr	r3, [r7, #12]
    1668:	2b00      	cmp	r3, #0
    166a:	d002      	beq.n	1672 <LPUART_GetInstance+0x32>
    166c:	4804      	ldr	r0, [pc, #16]	; (1680 <LPUART_GetInstance+0x40>)
    166e:	f002 fbf5 	bl	3e5c <__assertion_failed>
    1672:	68fb      	ldr	r3, [r7, #12]
    1674:	4618      	mov	r0, r3
    1676:	3710      	adds	r7, #16
    1678:	46bd      	mov	sp, r7
    167a:	bd80      	pop	{r7, pc}
    167c:	400c4000 	.word	0x400c4000
    1680:	00005ed0 	.word	0x00005ed0

00001684 <LPUART_Init>:
    1684:	b580      	push	{r7, lr}
    1686:	b08c      	sub	sp, #48	; 0x30
    1688:	af00      	add	r7, sp, #0
    168a:	60f8      	str	r0, [r7, #12]
    168c:	60b9      	str	r1, [r7, #8]
    168e:	607a      	str	r2, [r7, #4]
    1690:	68bb      	ldr	r3, [r7, #8]
    1692:	2b00      	cmp	r3, #0
    1694:	d102      	bne.n	169c <LPUART_Init+0x18>
    1696:	489a      	ldr	r0, [pc, #616]	; (1900 <LPUART_Init+0x27c>)
    1698:	f002 fbe0 	bl	3e5c <__assertion_failed>
    169c:	68bb      	ldr	r3, [r7, #8]
    169e:	681b      	ldr	r3, [r3, #0]
    16a0:	2b00      	cmp	r3, #0
    16a2:	d102      	bne.n	16aa <LPUART_Init+0x26>
    16a4:	4897      	ldr	r0, [pc, #604]	; (1904 <LPUART_Init+0x280>)
    16a6:	f002 fbd9 	bl	3e5c <__assertion_failed>
    16aa:	68bb      	ldr	r3, [r7, #8]
    16ac:	681b      	ldr	r3, [r3, #0]
    16ae:	61bb      	str	r3, [r7, #24]
    16b0:	2300      	movs	r3, #0
    16b2:	627b      	str	r3, [r7, #36]	; 0x24
    16b4:	2300      	movs	r3, #0
    16b6:	857b      	strh	r3, [r7, #42]	; 0x2a
    16b8:	2304      	movs	r3, #4
    16ba:	623b      	str	r3, [r7, #32]
    16bc:	e046      	b.n	174c <LPUART_Init+0xc8>
    16be:	68bb      	ldr	r3, [r7, #8]
    16c0:	681b      	ldr	r3, [r3, #0]
    16c2:	6a3a      	ldr	r2, [r7, #32]
    16c4:	fb02 f303 	mul.w	r3, r2, r3
    16c8:	687a      	ldr	r2, [r7, #4]
    16ca:	fbb2 f3f3 	udiv	r3, r2, r3
    16ce:	853b      	strh	r3, [r7, #40]	; 0x28
    16d0:	8d3b      	ldrh	r3, [r7, #40]	; 0x28
    16d2:	2b00      	cmp	r3, #0
    16d4:	d101      	bne.n	16da <LPUART_Init+0x56>
    16d6:	2301      	movs	r3, #1
    16d8:	853b      	strh	r3, [r7, #40]	; 0x28
    16da:	8d3b      	ldrh	r3, [r7, #40]	; 0x28
    16dc:	6a3a      	ldr	r2, [r7, #32]
    16de:	fb02 f303 	mul.w	r3, r2, r3
    16e2:	687a      	ldr	r2, [r7, #4]
    16e4:	fbb2 f3f3 	udiv	r3, r2, r3
    16e8:	613b      	str	r3, [r7, #16]
    16ea:	68bb      	ldr	r3, [r7, #8]
    16ec:	681b      	ldr	r3, [r3, #0]
    16ee:	693a      	ldr	r2, [r7, #16]
    16f0:	1ad3      	subs	r3, r2, r3
    16f2:	61fb      	str	r3, [r7, #28]
    16f4:	68bb      	ldr	r3, [r7, #8]
    16f6:	681a      	ldr	r2, [r3, #0]
    16f8:	8d3b      	ldrh	r3, [r7, #40]	; 0x28
    16fa:	3301      	adds	r3, #1
    16fc:	4619      	mov	r1, r3
    16fe:	6a3b      	ldr	r3, [r7, #32]
    1700:	fb03 f301 	mul.w	r3, r3, r1
    1704:	6879      	ldr	r1, [r7, #4]
    1706:	fbb1 f3f3 	udiv	r3, r1, r3
    170a:	1ad3      	subs	r3, r2, r3
    170c:	69fa      	ldr	r2, [r7, #28]
    170e:	429a      	cmp	r2, r3
    1710:	d90f      	bls.n	1732 <LPUART_Init+0xae>
    1712:	68bb      	ldr	r3, [r7, #8]
    1714:	681a      	ldr	r2, [r3, #0]
    1716:	8d3b      	ldrh	r3, [r7, #40]	; 0x28
    1718:	3301      	adds	r3, #1
    171a:	4619      	mov	r1, r3
    171c:	6a3b      	ldr	r3, [r7, #32]
    171e:	fb03 f301 	mul.w	r3, r3, r1
    1722:	6879      	ldr	r1, [r7, #4]
    1724:	fbb1 f3f3 	udiv	r3, r1, r3
    1728:	1ad3      	subs	r3, r2, r3
    172a:	61fb      	str	r3, [r7, #28]
    172c:	8d3b      	ldrh	r3, [r7, #40]	; 0x28
    172e:	3301      	adds	r3, #1
    1730:	853b      	strh	r3, [r7, #40]	; 0x28
    1732:	69fa      	ldr	r2, [r7, #28]
    1734:	69bb      	ldr	r3, [r7, #24]
    1736:	429a      	cmp	r2, r3
    1738:	d805      	bhi.n	1746 <LPUART_Init+0xc2>
    173a:	69fb      	ldr	r3, [r7, #28]
    173c:	61bb      	str	r3, [r7, #24]
    173e:	6a3b      	ldr	r3, [r7, #32]
    1740:	627b      	str	r3, [r7, #36]	; 0x24
    1742:	8d3b      	ldrh	r3, [r7, #40]	; 0x28
    1744:	857b      	strh	r3, [r7, #42]	; 0x2a
    1746:	6a3b      	ldr	r3, [r7, #32]
    1748:	3301      	adds	r3, #1
    174a:	623b      	str	r3, [r7, #32]
    174c:	6a3b      	ldr	r3, [r7, #32]
    174e:	2b20      	cmp	r3, #32
    1750:	d9b5      	bls.n	16be <LPUART_Init+0x3a>
    1752:	68bb      	ldr	r3, [r7, #8]
    1754:	681b      	ldr	r3, [r3, #0]
    1756:	4a6c      	ldr	r2, [pc, #432]	; (1908 <LPUART_Init+0x284>)
    1758:	fba2 2303 	umull	r2, r3, r2, r3
    175c:	095a      	lsrs	r2, r3, #5
    175e:	4613      	mov	r3, r2
    1760:	005b      	lsls	r3, r3, #1
    1762:	4413      	add	r3, r2
    1764:	69ba      	ldr	r2, [r7, #24]
    1766:	429a      	cmp	r2, r3
    1768:	d902      	bls.n	1770 <LPUART_Init+0xec>
    176a:	f240 5321 	movw	r3, #1313	; 0x521
    176e:	e0c3      	b.n	18f8 <LPUART_Init+0x274>
    1770:	68f8      	ldr	r0, [r7, #12]
    1772:	f7ff ff65 	bl	1640 <LPUART_GetInstance>
    1776:	6178      	str	r0, [r7, #20]
    1778:	4b64      	ldr	r3, [pc, #400]	; (190c <LPUART_Init+0x288>)
    177a:	4618      	mov	r0, r3
    177c:	f003 fac8 	bl	4d10 <CLOCK_EnableClock>
    1780:	68fb      	ldr	r3, [r7, #12]
    1782:	689b      	ldr	r3, [r3, #8]
    1784:	f423 2240 	bic.w	r2, r3, #786432	; 0xc0000
    1788:	68fb      	ldr	r3, [r7, #12]
    178a:	609a      	str	r2, [r3, #8]
    178c:	68fb      	ldr	r3, [r7, #12]
    178e:	681b      	ldr	r3, [r3, #0]
    1790:	62fb      	str	r3, [r7, #44]	; 0x2c
    1792:	6a7b      	ldr	r3, [r7, #36]	; 0x24
    1794:	2b03      	cmp	r3, #3
    1796:	d906      	bls.n	17a6 <LPUART_Init+0x122>
    1798:	6a7b      	ldr	r3, [r7, #36]	; 0x24
    179a:	2b07      	cmp	r3, #7
    179c:	d803      	bhi.n	17a6 <LPUART_Init+0x122>
    179e:	6afb      	ldr	r3, [r7, #44]	; 0x2c
    17a0:	f443 3300 	orr.w	r3, r3, #131072	; 0x20000
    17a4:	62fb      	str	r3, [r7, #44]	; 0x2c
    17a6:	6afb      	ldr	r3, [r7, #44]	; 0x2c
    17a8:	f023 53f8 	bic.w	r3, r3, #520093696	; 0x1f000000
    17ac:	62fb      	str	r3, [r7, #44]	; 0x2c
    17ae:	6a7b      	ldr	r3, [r7, #36]	; 0x24
    17b0:	3b01      	subs	r3, #1
    17b2:	061b      	lsls	r3, r3, #24
    17b4:	f003 53f8 	and.w	r3, r3, #520093696	; 0x1f000000
    17b8:	6afa      	ldr	r2, [r7, #44]	; 0x2c
    17ba:	4313      	orrs	r3, r2
    17bc:	62fb      	str	r3, [r7, #44]	; 0x2c
    17be:	6afb      	ldr	r3, [r7, #44]	; 0x2c
    17c0:	f423 53ff 	bic.w	r3, r3, #8160	; 0x1fe0
    17c4:	f023 031f 	bic.w	r3, r3, #31
    17c8:	62fb      	str	r3, [r7, #44]	; 0x2c
    17ca:	8d7b      	ldrh	r3, [r7, #42]	; 0x2a
    17cc:	f3c3 020c 	ubfx	r2, r3, #0, #13
    17d0:	6afb      	ldr	r3, [r7, #44]	; 0x2c
    17d2:	431a      	orrs	r2, r3
    17d4:	68fb      	ldr	r3, [r7, #12]
    17d6:	601a      	str	r2, [r3, #0]
    17d8:	68fb      	ldr	r3, [r7, #12]
    17da:	681b      	ldr	r3, [r3, #0]
    17dc:	f023 5200 	bic.w	r2, r3, #536870912	; 0x20000000
    17e0:	68fb      	ldr	r3, [r7, #12]
    17e2:	601a      	str	r2, [r3, #0]
    17e4:	68fb      	ldr	r3, [r7, #12]
    17e6:	689b      	ldr	r3, [r3, #8]
    17e8:	f423 63e2 	bic.w	r3, r3, #1808	; 0x710
    17ec:	f023 0307 	bic.w	r3, r3, #7
    17f0:	62fb      	str	r3, [r7, #44]	; 0x2c
    17f2:	68bb      	ldr	r3, [r7, #8]
    17f4:	791b      	ldrb	r3, [r3, #4]
    17f6:	461a      	mov	r2, r3
    17f8:	68bb      	ldr	r3, [r7, #8]
    17fa:	7b5b      	ldrb	r3, [r3, #13]
    17fc:	021b      	lsls	r3, r3, #8
    17fe:	f403 63e0 	and.w	r3, r3, #1792	; 0x700
    1802:	431a      	orrs	r2, r3
    1804:	68bb      	ldr	r3, [r7, #8]
    1806:	7b1b      	ldrb	r3, [r3, #12]
    1808:	009b      	lsls	r3, r3, #2
    180a:	f003 0304 	and.w	r3, r3, #4
    180e:	4313      	orrs	r3, r2
    1810:	6afa      	ldr	r2, [r7, #44]	; 0x2c
    1812:	4313      	orrs	r3, r2
    1814:	62fb      	str	r3, [r7, #44]	; 0x2c
    1816:	68bb      	ldr	r3, [r7, #8]
    1818:	791b      	ldrb	r3, [r3, #4]
    181a:	2b00      	cmp	r3, #0
    181c:	d003      	beq.n	1826 <LPUART_Init+0x1a2>
    181e:	6afb      	ldr	r3, [r7, #44]	; 0x2c
    1820:	f043 0310 	orr.w	r3, r3, #16
    1824:	62fb      	str	r3, [r7, #44]	; 0x2c
    1826:	68fb      	ldr	r3, [r7, #12]
    1828:	6afa      	ldr	r2, [r7, #44]	; 0x2c
    182a:	609a      	str	r2, [r3, #8]
    182c:	68fb      	ldr	r3, [r7, #12]
    182e:	681b      	ldr	r3, [r3, #0]
    1830:	f423 5300 	bic.w	r3, r3, #8192	; 0x2000
    1834:	62fb      	str	r3, [r7, #44]	; 0x2c
    1836:	68bb      	ldr	r3, [r7, #8]
    1838:	79db      	ldrb	r3, [r3, #7]
    183a:	035b      	lsls	r3, r3, #13
    183c:	f403 5200 	and.w	r2, r3, #8192	; 0x2000
    1840:	6afb      	ldr	r3, [r7, #44]	; 0x2c
    1842:	431a      	orrs	r2, r3
    1844:	68fb      	ldr	r3, [r7, #12]
    1846:	601a      	str	r2, [r3, #0]
    1848:	4b31      	ldr	r3, [pc, #196]	; (1910 <LPUART_Init+0x28c>)
    184a:	62fb      	str	r3, [r7, #44]	; 0x2c
    184c:	6afb      	ldr	r3, [r7, #44]	; 0x2c
    184e:	f043 4300 	orr.w	r3, r3, #2147483648	; 0x80000000
    1852:	62fb      	str	r3, [r7, #44]	; 0x2c
    1854:	6afb      	ldr	r3, [r7, #44]	; 0x2c
    1856:	f443 4340 	orr.w	r3, r3, #49152	; 0xc000
    185a:	62fb      	str	r3, [r7, #44]	; 0x2c
    185c:	68fb      	ldr	r3, [r7, #12]
    185e:	695a      	ldr	r2, [r3, #20]
    1860:	68bb      	ldr	r3, [r7, #8]
    1862:	7adb      	ldrb	r3, [r3, #11]
    1864:	011b      	lsls	r3, r3, #4
    1866:	f003 0110 	and.w	r1, r3, #16
    186a:	68bb      	ldr	r3, [r7, #8]
    186c:	7a9b      	ldrb	r3, [r3, #10]
    186e:	015b      	lsls	r3, r3, #5
    1870:	f003 0320 	and.w	r3, r3, #32
    1874:	430b      	orrs	r3, r1
    1876:	431a      	orrs	r2, r3
    1878:	68fb      	ldr	r3, [r7, #12]
    187a:	615a      	str	r2, [r3, #20]
    187c:	68bb      	ldr	r3, [r7, #8]
    187e:	7a1b      	ldrb	r3, [r3, #8]
    1880:	2b00      	cmp	r3, #0
    1882:	d005      	beq.n	1890 <LPUART_Init+0x20c>
    1884:	68fb      	ldr	r3, [r7, #12]
    1886:	695b      	ldr	r3, [r3, #20]
    1888:	f043 0208 	orr.w	r2, r3, #8
    188c:	68fb      	ldr	r3, [r7, #12]
    188e:	615a      	str	r2, [r3, #20]
    1890:	68bb      	ldr	r3, [r7, #8]
    1892:	7a5b      	ldrb	r3, [r3, #9]
    1894:	2b00      	cmp	r3, #0
    1896:	d005      	beq.n	18a4 <LPUART_Init+0x220>
    1898:	68fb      	ldr	r3, [r7, #12]
    189a:	695b      	ldr	r3, [r3, #20]
    189c:	f043 0201 	orr.w	r2, r3, #1
    18a0:	68fb      	ldr	r3, [r7, #12]
    18a2:	615a      	str	r2, [r3, #20]
    18a4:	68bb      	ldr	r3, [r7, #8]
    18a6:	799b      	ldrb	r3, [r3, #6]
    18a8:	2b00      	cmp	r3, #0
    18aa:	d004      	beq.n	18b6 <LPUART_Init+0x232>
    18ac:	6afb      	ldr	r3, [r7, #44]	; 0x2c
    18ae:	f043 5300 	orr.w	r3, r3, #536870912	; 0x20000000
    18b2:	62fb      	str	r3, [r7, #44]	; 0x2c
    18b4:	e003      	b.n	18be <LPUART_Init+0x23a>
    18b6:	6afb      	ldr	r3, [r7, #44]	; 0x2c
    18b8:	f023 5300 	bic.w	r3, r3, #536870912	; 0x20000000
    18bc:	62fb      	str	r3, [r7, #44]	; 0x2c
    18be:	68fb      	ldr	r3, [r7, #12]
    18c0:	685a      	ldr	r2, [r3, #4]
    18c2:	6afb      	ldr	r3, [r7, #44]	; 0x2c
    18c4:	431a      	orrs	r2, r3
    18c6:	68fb      	ldr	r3, [r7, #12]
    18c8:	605a      	str	r2, [r3, #4]
    18ca:	68fb      	ldr	r3, [r7, #12]
    18cc:	689b      	ldr	r3, [r3, #8]
    18ce:	62fb      	str	r3, [r7, #44]	; 0x2c
    18d0:	68bb      	ldr	r3, [r7, #8]
    18d2:	7b9b      	ldrb	r3, [r3, #14]
    18d4:	2b00      	cmp	r3, #0
    18d6:	d003      	beq.n	18e0 <LPUART_Init+0x25c>
    18d8:	6afb      	ldr	r3, [r7, #44]	; 0x2c
    18da:	f443 2300 	orr.w	r3, r3, #524288	; 0x80000
    18de:	62fb      	str	r3, [r7, #44]	; 0x2c
    18e0:	68bb      	ldr	r3, [r7, #8]
    18e2:	7bdb      	ldrb	r3, [r3, #15]
    18e4:	2b00      	cmp	r3, #0
    18e6:	d003      	beq.n	18f0 <LPUART_Init+0x26c>
    18e8:	6afb      	ldr	r3, [r7, #44]	; 0x2c
    18ea:	f443 2380 	orr.w	r3, r3, #262144	; 0x40000
    18ee:	62fb      	str	r3, [r7, #44]	; 0x2c
    18f0:	68fb      	ldr	r3, [r7, #12]
    18f2:	6afa      	ldr	r2, [r7, #44]	; 0x2c
    18f4:	609a      	str	r2, [r3, #8]
    18f6:	2300      	movs	r3, #0
    18f8:	4618      	mov	r0, r3
    18fa:	3730      	adds	r7, #48	; 0x30
    18fc:	46bd      	mov	sp, r7
    18fe:	bd80      	pop	{r7, pc}
    1900:	00005fac 	.word	0x00005fac
    1904:	00005fd4 	.word	0x00005fd4
    1908:	51eb851f 	.word	0x51eb851f
    190c:	102c0004 	.word	0x102c0004
    1910:	401f0000 	.word	0x401f0000

00001914 <LPUART_GetDefaultConfig>:
    1914:	b580      	push	{r7, lr}
    1916:	b082      	sub	sp, #8
    1918:	af00      	add	r7, sp, #0
    191a:	6078      	str	r0, [r7, #4]
    191c:	687b      	ldr	r3, [r7, #4]
    191e:	2b00      	cmp	r3, #0
    1920:	d102      	bne.n	1928 <LPUART_GetDefaultConfig+0x14>
    1922:	4817      	ldr	r0, [pc, #92]	; (1980 <LPUART_GetDefaultConfig+0x6c>)
    1924:	f002 fa9a 	bl	3e5c <__assertion_failed>
    1928:	687b      	ldr	r3, [r7, #4]
    192a:	f44f 32e1 	mov.w	r2, #115200	; 0x1c200
    192e:	601a      	str	r2, [r3, #0]
    1930:	687b      	ldr	r3, [r7, #4]
    1932:	2200      	movs	r2, #0
    1934:	711a      	strb	r2, [r3, #4]
    1936:	687b      	ldr	r3, [r7, #4]
    1938:	2200      	movs	r2, #0
    193a:	715a      	strb	r2, [r3, #5]
    193c:	687b      	ldr	r3, [r7, #4]
    193e:	2200      	movs	r2, #0
    1940:	719a      	strb	r2, [r3, #6]
    1942:	687b      	ldr	r3, [r7, #4]
    1944:	2200      	movs	r2, #0
    1946:	71da      	strb	r2, [r3, #7]
    1948:	687b      	ldr	r3, [r7, #4]
    194a:	2200      	movs	r2, #0
    194c:	721a      	strb	r2, [r3, #8]
    194e:	687b      	ldr	r3, [r7, #4]
    1950:	2200      	movs	r2, #0
    1952:	725a      	strb	r2, [r3, #9]
    1954:	687b      	ldr	r3, [r7, #4]
    1956:	2200      	movs	r2, #0
    1958:	72da      	strb	r2, [r3, #11]
    195a:	687b      	ldr	r3, [r7, #4]
    195c:	2200      	movs	r2, #0
    195e:	729a      	strb	r2, [r3, #10]
    1960:	687b      	ldr	r3, [r7, #4]
    1962:	2200      	movs	r2, #0
    1964:	731a      	strb	r2, [r3, #12]
    1966:	687b      	ldr	r3, [r7, #4]
    1968:	2200      	movs	r2, #0
    196a:	735a      	strb	r2, [r3, #13]
    196c:	687b      	ldr	r3, [r7, #4]
    196e:	2200      	movs	r2, #0
    1970:	739a      	strb	r2, [r3, #14]
    1972:	687b      	ldr	r3, [r7, #4]
    1974:	2200      	movs	r2, #0
    1976:	73da      	strb	r2, [r3, #15]
    1978:	bf00      	nop
    197a:	3708      	adds	r7, #8
    197c:	46bd      	mov	sp, r7
    197e:	bd80      	pop	{r7, pc}
    1980:	00006008 	.word	0x00006008

00001984 <LPUART_ClearStatusFlags>:
    1984:	b580      	push	{r7, lr}
    1986:	b084      	sub	sp, #16
    1988:	af00      	add	r7, sp, #0
    198a:	6078      	str	r0, [r7, #4]
    198c:	6039      	str	r1, [r7, #0]
    198e:	687b      	ldr	r3, [r7, #4]
    1990:	685b      	ldr	r3, [r3, #4]
    1992:	60bb      	str	r3, [r7, #8]
    1994:	68bb      	ldr	r3, [r7, #8]
    1996:	f023 4300 	bic.w	r3, r3, #2147483648	; 0x80000000
    199a:	60bb      	str	r3, [r7, #8]
    199c:	683b      	ldr	r3, [r7, #0]
    199e:	f003 4300 	and.w	r3, r3, #2147483648	; 0x80000000
    19a2:	68ba      	ldr	r2, [r7, #8]
    19a4:	4313      	orrs	r3, r2
    19a6:	60bb      	str	r3, [r7, #8]
    19a8:	68bb      	ldr	r3, [r7, #8]
    19aa:	f023 4380 	bic.w	r3, r3, #1073741824	; 0x40000000
    19ae:	f423 13f8 	bic.w	r3, r3, #2031616	; 0x1f0000
    19b2:	60bb      	str	r3, [r7, #8]
    19b4:	683a      	ldr	r2, [r7, #0]
    19b6:	4b12      	ldr	r3, [pc, #72]	; (1a00 <LPUART_ClearStatusFlags+0x7c>)
    19b8:	4013      	ands	r3, r2
    19ba:	68ba      	ldr	r2, [r7, #8]
    19bc:	4313      	orrs	r3, r2
    19be:	60bb      	str	r3, [r7, #8]
    19c0:	68bb      	ldr	r3, [r7, #8]
    19c2:	f423 4340 	bic.w	r3, r3, #49152	; 0xc000
    19c6:	60bb      	str	r3, [r7, #8]
    19c8:	683b      	ldr	r3, [r7, #0]
    19ca:	f403 4340 	and.w	r3, r3, #49152	; 0xc000
    19ce:	68ba      	ldr	r2, [r7, #8]
    19d0:	4313      	orrs	r3, r2
    19d2:	60bb      	str	r3, [r7, #8]
    19d4:	687b      	ldr	r3, [r7, #4]
    19d6:	68ba      	ldr	r2, [r7, #8]
    19d8:	605a      	str	r2, [r3, #4]
    19da:	6878      	ldr	r0, [r7, #4]
    19dc:	f003 f9b2 	bl	4d44 <LPUART_GetStatusFlags>
    19e0:	4602      	mov	r2, r0
    19e2:	683b      	ldr	r3, [r7, #0]
    19e4:	4013      	ands	r3, r2
    19e6:	2b00      	cmp	r3, #0
    19e8:	d003      	beq.n	19f2 <LPUART_ClearStatusFlags+0x6e>
    19ea:	f240 531a 	movw	r3, #1306	; 0x51a
    19ee:	60fb      	str	r3, [r7, #12]
    19f0:	e001      	b.n	19f6 <LPUART_ClearStatusFlags+0x72>
    19f2:	2300      	movs	r3, #0
    19f4:	60fb      	str	r3, [r7, #12]
    19f6:	68fb      	ldr	r3, [r7, #12]
    19f8:	4618      	mov	r0, r3
    19fa:	3710      	adds	r7, #16
    19fc:	46bd      	mov	sp, r7
    19fe:	bd80      	pop	{r7, pc}
    1a00:	401f0000 	.word	0x401f0000

00001a04 <LPUART_WriteBlocking>:
    1a04:	b580      	push	{r7, lr}
    1a06:	b084      	sub	sp, #16
    1a08:	af00      	add	r7, sp, #0
    1a0a:	60f8      	str	r0, [r7, #12]
    1a0c:	60b9      	str	r1, [r7, #8]
    1a0e:	607a      	str	r2, [r7, #4]
    1a10:	68bb      	ldr	r3, [r7, #8]
    1a12:	2b00      	cmp	r3, #0
    1a14:	d110      	bne.n	1a38 <LPUART_WriteBlocking+0x34>
    1a16:	480d      	ldr	r0, [pc, #52]	; (1a4c <LPUART_WriteBlocking+0x48>)
    1a18:	f002 fa20 	bl	3e5c <__assertion_failed>
    1a1c:	bf00      	nop
    1a1e:	68fb      	ldr	r3, [r7, #12]
    1a20:	685b      	ldr	r3, [r3, #4]
    1a22:	f403 0300 	and.w	r3, r3, #8388608	; 0x800000
    1a26:	2b00      	cmp	r3, #0
    1a28:	d0f9      	beq.n	1a1e <LPUART_WriteBlocking+0x1a>
    1a2a:	68bb      	ldr	r3, [r7, #8]
    1a2c:	1c5a      	adds	r2, r3, #1
    1a2e:	60ba      	str	r2, [r7, #8]
    1a30:	781b      	ldrb	r3, [r3, #0]
    1a32:	461a      	mov	r2, r3
    1a34:	68fb      	ldr	r3, [r7, #12]
    1a36:	60da      	str	r2, [r3, #12]
    1a38:	687b      	ldr	r3, [r7, #4]
    1a3a:	1e5a      	subs	r2, r3, #1
    1a3c:	607a      	str	r2, [r7, #4]
    1a3e:	2b00      	cmp	r3, #0
    1a40:	d1ec      	bne.n	1a1c <LPUART_WriteBlocking+0x18>
    1a42:	bf00      	nop
    1a44:	3710      	adds	r7, #16
    1a46:	46bd      	mov	sp, r7
    1a48:	bd80      	pop	{r7, pc}
    1a4a:	bf00      	nop
    1a4c:	0000605c 	.word	0x0000605c

00001a50 <LPUART_ReadBlocking>:
    1a50:	b580      	push	{r7, lr}
    1a52:	b086      	sub	sp, #24
    1a54:	af00      	add	r7, sp, #0
    1a56:	60f8      	str	r0, [r7, #12]
    1a58:	60b9      	str	r1, [r7, #8]
    1a5a:	607a      	str	r2, [r7, #4]
    1a5c:	68bb      	ldr	r3, [r7, #8]
    1a5e:	2b00      	cmp	r3, #0
    1a60:	d147      	bne.n	1af2 <LPUART_ReadBlocking+0xa2>
    1a62:	4829      	ldr	r0, [pc, #164]	; (1b08 <LPUART_ReadBlocking+0xb8>)
    1a64:	f002 f9fa 	bl	3e5c <__assertion_failed>
    1a68:	68f8      	ldr	r0, [r7, #12]
    1a6a:	f003 f96b 	bl	4d44 <LPUART_GetStatusFlags>
    1a6e:	6178      	str	r0, [r7, #20]
    1a70:	697b      	ldr	r3, [r7, #20]
    1a72:	f403 2300 	and.w	r3, r3, #524288	; 0x80000
    1a76:	2b00      	cmp	r3, #0
    1a78:	d007      	beq.n	1a8a <LPUART_ReadBlocking+0x3a>
    1a7a:	f44f 2100 	mov.w	r1, #524288	; 0x80000
    1a7e:	68f8      	ldr	r0, [r7, #12]
    1a80:	f7ff ff80 	bl	1984 <LPUART_ClearStatusFlags>
    1a84:	f240 531d 	movw	r3, #1309	; 0x51d
    1a88:	e039      	b.n	1afe <LPUART_ReadBlocking+0xae>
    1a8a:	697b      	ldr	r3, [r7, #20]
    1a8c:	f403 2380 	and.w	r3, r3, #262144	; 0x40000
    1a90:	2b00      	cmp	r3, #0
    1a92:	d007      	beq.n	1aa4 <LPUART_ReadBlocking+0x54>
    1a94:	f44f 2180 	mov.w	r1, #262144	; 0x40000
    1a98:	68f8      	ldr	r0, [r7, #12]
    1a9a:	f7ff ff73 	bl	1984 <LPUART_ClearStatusFlags>
    1a9e:	f240 531e 	movw	r3, #1310	; 0x51e
    1aa2:	e02c      	b.n	1afe <LPUART_ReadBlocking+0xae>
    1aa4:	697b      	ldr	r3, [r7, #20]
    1aa6:	f403 3300 	and.w	r3, r3, #131072	; 0x20000
    1aaa:	2b00      	cmp	r3, #0
    1aac:	d007      	beq.n	1abe <LPUART_ReadBlocking+0x6e>
    1aae:	f44f 3100 	mov.w	r1, #131072	; 0x20000
    1ab2:	68f8      	ldr	r0, [r7, #12]
    1ab4:	f7ff ff66 	bl	1984 <LPUART_ClearStatusFlags>
    1ab8:	f240 531f 	movw	r3, #1311	; 0x51f
    1abc:	e01f      	b.n	1afe <LPUART_ReadBlocking+0xae>
    1abe:	697b      	ldr	r3, [r7, #20]
    1ac0:	f403 3380 	and.w	r3, r3, #65536	; 0x10000
    1ac4:	2b00      	cmp	r3, #0
    1ac6:	d007      	beq.n	1ad8 <LPUART_ReadBlocking+0x88>
    1ac8:	f44f 3180 	mov.w	r1, #65536	; 0x10000
    1acc:	68f8      	ldr	r0, [r7, #12]
    1ace:	f7ff ff59 	bl	1984 <LPUART_ClearStatusFlags>
    1ad2:	f44f 63a4 	mov.w	r3, #1312	; 0x520
    1ad6:	e012      	b.n	1afe <LPUART_ReadBlocking+0xae>
    1ad8:	68fb      	ldr	r3, [r7, #12]
    1ada:	685b      	ldr	r3, [r3, #4]
    1adc:	f403 1300 	and.w	r3, r3, #2097152	; 0x200000
    1ae0:	2b00      	cmp	r3, #0
    1ae2:	d0c1      	beq.n	1a68 <LPUART_ReadBlocking+0x18>
    1ae4:	68fb      	ldr	r3, [r7, #12]
    1ae6:	68d9      	ldr	r1, [r3, #12]
    1ae8:	68bb      	ldr	r3, [r7, #8]
    1aea:	1c5a      	adds	r2, r3, #1
    1aec:	60ba      	str	r2, [r7, #8]
    1aee:	b2ca      	uxtb	r2, r1
    1af0:	701a      	strb	r2, [r3, #0]
    1af2:	687b      	ldr	r3, [r7, #4]
    1af4:	1e5a      	subs	r2, r3, #1
    1af6:	607a      	str	r2, [r7, #4]
    1af8:	2b00      	cmp	r3, #0
    1afa:	d1ed      	bne.n	1ad8 <LPUART_ReadBlocking+0x88>
    1afc:	2300      	movs	r3, #0
    1afe:	4618      	mov	r0, r3
    1b00:	3718      	adds	r7, #24
    1b02:	46bd      	mov	sp, r7
    1b04:	bd80      	pop	{r7, pc}
    1b06:	bf00      	nop
    1b08:	00006080 	.word	0x00006080

00001b0c <LPUART0_DriverIRQHandler>:
    1b0c:	b580      	push	{r7, lr}
    1b0e:	af00      	add	r7, sp, #0
    1b10:	4b05      	ldr	r3, [pc, #20]	; (1b28 <LPUART0_DriverIRQHandler+0x1c>)
    1b12:	681b      	ldr	r3, [r3, #0]
    1b14:	4a05      	ldr	r2, [pc, #20]	; (1b2c <LPUART0_DriverIRQHandler+0x20>)
    1b16:	6812      	ldr	r2, [r2, #0]
    1b18:	4611      	mov	r1, r2
    1b1a:	4805      	ldr	r0, [pc, #20]	; (1b30 <LPUART0_DriverIRQHandler+0x24>)
    1b1c:	4798      	blx	r3
    1b1e:	f3bf 8f4f 	dsb	sy
    1b22:	bf00      	nop
    1b24:	bd80      	pop	{r7, pc}
    1b26:	bf00      	nop
    1b28:	20000028 	.word	0x20000028
    1b2c:	20000024 	.word	0x20000024
    1b30:	400c4000 	.word	0x400c4000

00001b34 <UART_GetInstance>:
    1b34:	b580      	push	{r7, lr}
    1b36:	b084      	sub	sp, #16
    1b38:	af00      	add	r7, sp, #0
    1b3a:	6078      	str	r0, [r7, #4]
    1b3c:	2305      	movs	r3, #5
    1b3e:	60bb      	str	r3, [r7, #8]
    1b40:	2300      	movs	r3, #0
    1b42:	60fb      	str	r3, [r7, #12]
    1b44:	e009      	b.n	1b5a <UART_GetInstance+0x26>
    1b46:	4a0e      	ldr	r2, [pc, #56]	; (1b80 <UART_GetInstance+0x4c>)
    1b48:	68fb      	ldr	r3, [r7, #12]
    1b4a:	f852 3023 	ldr.w	r3, [r2, r3, lsl #2]
    1b4e:	687a      	ldr	r2, [r7, #4]
    1b50:	429a      	cmp	r2, r3
    1b52:	d007      	beq.n	1b64 <UART_GetInstance+0x30>
    1b54:	68fb      	ldr	r3, [r7, #12]
    1b56:	3301      	adds	r3, #1
    1b58:	60fb      	str	r3, [r7, #12]
    1b5a:	68fa      	ldr	r2, [r7, #12]
    1b5c:	68bb      	ldr	r3, [r7, #8]
    1b5e:	429a      	cmp	r2, r3
    1b60:	d3f1      	bcc.n	1b46 <UART_GetInstance+0x12>
    1b62:	e000      	b.n	1b66 <UART_GetInstance+0x32>
    1b64:	bf00      	nop
    1b66:	68fa      	ldr	r2, [r7, #12]
    1b68:	68bb      	ldr	r3, [r7, #8]
    1b6a:	429a      	cmp	r2, r3
    1b6c:	d302      	bcc.n	1b74 <UART_GetInstance+0x40>
    1b6e:	4805      	ldr	r0, [pc, #20]	; (1b84 <UART_GetInstance+0x50>)
    1b70:	f002 f974 	bl	3e5c <__assertion_failed>
    1b74:	68fb      	ldr	r3, [r7, #12]
    1b76:	4618      	mov	r0, r3
    1b78:	3710      	adds	r7, #16
    1b7a:	46bd      	mov	sp, r7
    1b7c:	bd80      	pop	{r7, pc}
    1b7e:	bf00      	nop
    1b80:	000063ac 	.word	0x000063ac
    1b84:	000063d4 	.word	0x000063d4

00001b88 <UART_Init>:
    1b88:	b580      	push	{r7, lr}
    1b8a:	b088      	sub	sp, #32
    1b8c:	af00      	add	r7, sp, #0
    1b8e:	60f8      	str	r0, [r7, #12]
    1b90:	60b9      	str	r1, [r7, #8]
    1b92:	607a      	str	r2, [r7, #4]
    1b94:	68bb      	ldr	r3, [r7, #8]
    1b96:	2b00      	cmp	r3, #0
    1b98:	d102      	bne.n	1ba0 <UART_Init+0x18>
    1b9a:	48a6      	ldr	r0, [pc, #664]	; (1e34 <UART_Init+0x2ac>)
    1b9c:	f002 f95e 	bl	3e5c <__assertion_failed>
    1ba0:	68bb      	ldr	r3, [r7, #8]
    1ba2:	681b      	ldr	r3, [r3, #0]
    1ba4:	2b00      	cmp	r3, #0
    1ba6:	d102      	bne.n	1bae <UART_Init+0x26>
    1ba8:	48a3      	ldr	r0, [pc, #652]	; (1e38 <UART_Init+0x2b0>)
    1baa:	f002 f957 	bl	3e5c <__assertion_failed>
    1bae:	68fb      	ldr	r3, [r7, #12]
    1bb0:	4aa2      	ldr	r2, [pc, #648]	; (1e3c <UART_Init+0x2b4>)
    1bb2:	4293      	cmp	r3, r2
    1bb4:	d01a      	beq.n	1bec <UART_Init+0x64>
    1bb6:	68fb      	ldr	r3, [r7, #12]
    1bb8:	4aa1      	ldr	r2, [pc, #644]	; (1e40 <UART_Init+0x2b8>)
    1bba:	4293      	cmp	r3, r2
    1bbc:	d014      	beq.n	1be8 <UART_Init+0x60>
    1bbe:	68fb      	ldr	r3, [r7, #12]
    1bc0:	4aa0      	ldr	r2, [pc, #640]	; (1e44 <UART_Init+0x2bc>)
    1bc2:	4293      	cmp	r3, r2
    1bc4:	d00e      	beq.n	1be4 <UART_Init+0x5c>
    1bc6:	68fb      	ldr	r3, [r7, #12]
    1bc8:	4a9f      	ldr	r2, [pc, #636]	; (1e48 <UART_Init+0x2c0>)
    1bca:	4293      	cmp	r3, r2
    1bcc:	d008      	beq.n	1be0 <UART_Init+0x58>
    1bce:	68fb      	ldr	r3, [r7, #12]
    1bd0:	4a9e      	ldr	r2, [pc, #632]	; (1e4c <UART_Init+0x2c4>)
    1bd2:	4293      	cmp	r3, r2
    1bd4:	d101      	bne.n	1bda <UART_Init+0x52>
    1bd6:	2301      	movs	r3, #1
    1bd8:	e009      	b.n	1bee <UART_Init+0x66>
    1bda:	f04f 33ff 	mov.w	r3, #4294967295	; 0xffffffff
    1bde:	e006      	b.n	1bee <UART_Init+0x66>
    1be0:	2301      	movs	r3, #1
    1be2:	e004      	b.n	1bee <UART_Init+0x66>
    1be4:	2301      	movs	r3, #1
    1be6:	e002      	b.n	1bee <UART_Init+0x66>
    1be8:	2308      	movs	r3, #8
    1bea:	e000      	b.n	1bee <UART_Init+0x66>
    1bec:	2308      	movs	r3, #8
    1bee:	68ba      	ldr	r2, [r7, #8]
    1bf0:	7992      	ldrb	r2, [r2, #6]
    1bf2:	4293      	cmp	r3, r2
    1bf4:	da02      	bge.n	1bfc <UART_Init+0x74>
    1bf6:	4896      	ldr	r0, [pc, #600]	; (1e50 <UART_Init+0x2c8>)
    1bf8:	f002 f930 	bl	3e5c <__assertion_failed>
    1bfc:	68fb      	ldr	r3, [r7, #12]
    1bfe:	4a8f      	ldr	r2, [pc, #572]	; (1e3c <UART_Init+0x2b4>)
    1c00:	4293      	cmp	r3, r2
    1c02:	d01a      	beq.n	1c3a <UART_Init+0xb2>
    1c04:	68fb      	ldr	r3, [r7, #12]
    1c06:	4a8e      	ldr	r2, [pc, #568]	; (1e40 <UART_Init+0x2b8>)
    1c08:	4293      	cmp	r3, r2
    1c0a:	d014      	beq.n	1c36 <UART_Init+0xae>
    1c0c:	68fb      	ldr	r3, [r7, #12]
    1c0e:	4a8d      	ldr	r2, [pc, #564]	; (1e44 <UART_Init+0x2bc>)
    1c10:	4293      	cmp	r3, r2
    1c12:	d00e      	beq.n	1c32 <UART_Init+0xaa>
    1c14:	68fb      	ldr	r3, [r7, #12]
    1c16:	4a8c      	ldr	r2, [pc, #560]	; (1e48 <UART_Init+0x2c0>)
    1c18:	4293      	cmp	r3, r2
    1c1a:	d008      	beq.n	1c2e <UART_Init+0xa6>
    1c1c:	68fb      	ldr	r3, [r7, #12]
    1c1e:	4a8b      	ldr	r2, [pc, #556]	; (1e4c <UART_Init+0x2c4>)
    1c20:	4293      	cmp	r3, r2
    1c22:	d101      	bne.n	1c28 <UART_Init+0xa0>
    1c24:	2301      	movs	r3, #1
    1c26:	e009      	b.n	1c3c <UART_Init+0xb4>
    1c28:	f04f 33ff 	mov.w	r3, #4294967295	; 0xffffffff
    1c2c:	e006      	b.n	1c3c <UART_Init+0xb4>
    1c2e:	2301      	movs	r3, #1
    1c30:	e004      	b.n	1c3c <UART_Init+0xb4>
    1c32:	2301      	movs	r3, #1
    1c34:	e002      	b.n	1c3c <UART_Init+0xb4>
    1c36:	2308      	movs	r3, #8
    1c38:	e000      	b.n	1c3c <UART_Init+0xb4>
    1c3a:	2308      	movs	r3, #8
    1c3c:	68ba      	ldr	r2, [r7, #8]
    1c3e:	79d2      	ldrb	r2, [r2, #7]
    1c40:	4293      	cmp	r3, r2
    1c42:	da02      	bge.n	1c4a <UART_Init+0xc2>
    1c44:	4883      	ldr	r0, [pc, #524]	; (1e54 <UART_Init+0x2cc>)
    1c46:	f002 f909 	bl	3e5c <__assertion_failed>
    1c4a:	2300      	movs	r3, #0
    1c4c:	83fb      	strh	r3, [r7, #30]
    1c4e:	2300      	movs	r3, #0
    1c50:	777b      	strb	r3, [r7, #29]
    1c52:	2300      	movs	r3, #0
    1c54:	61bb      	str	r3, [r7, #24]
    1c56:	68bb      	ldr	r3, [r7, #8]
    1c58:	681b      	ldr	r3, [r3, #0]
    1c5a:	011b      	lsls	r3, r3, #4
    1c5c:	687a      	ldr	r2, [r7, #4]
    1c5e:	fbb2 f3f3 	udiv	r3, r2, r3
    1c62:	83fb      	strh	r3, [r7, #30]
    1c64:	8bfb      	ldrh	r3, [r7, #30]
    1c66:	2b00      	cmp	r3, #0
    1c68:	d101      	bne.n	1c6e <UART_Init+0xe6>
    1c6a:	2301      	movs	r3, #1
    1c6c:	83fb      	strh	r3, [r7, #30]
    1c6e:	2300      	movs	r3, #0
    1c70:	617b      	str	r3, [r7, #20]
    1c72:	687b      	ldr	r3, [r7, #4]
    1c74:	005a      	lsls	r2, r3, #1
    1c76:	68bb      	ldr	r3, [r7, #8]
    1c78:	681b      	ldr	r3, [r3, #0]
    1c7a:	fbb2 f3f3 	udiv	r3, r2, r3
    1c7e:	b29a      	uxth	r2, r3
    1c80:	8bfb      	ldrh	r3, [r7, #30]
    1c82:	015b      	lsls	r3, r3, #5
    1c84:	b29b      	uxth	r3, r3
    1c86:	1ad3      	subs	r3, r2, r3
    1c88:	827b      	strh	r3, [r7, #18]
    1c8a:	687b      	ldr	r3, [r7, #4]
    1c8c:	005b      	lsls	r3, r3, #1
    1c8e:	8bfa      	ldrh	r2, [r7, #30]
    1c90:	0151      	lsls	r1, r2, #5
    1c92:	8a7a      	ldrh	r2, [r7, #18]
    1c94:	440a      	add	r2, r1
    1c96:	fbb3 f3f2 	udiv	r3, r3, r2
    1c9a:	617b      	str	r3, [r7, #20]
    1c9c:	68bb      	ldr	r3, [r7, #8]
    1c9e:	681b      	ldr	r3, [r3, #0]
    1ca0:	697a      	ldr	r2, [r7, #20]
    1ca2:	429a      	cmp	r2, r3
    1ca4:	d904      	bls.n	1cb0 <UART_Init+0x128>
    1ca6:	68bb      	ldr	r3, [r7, #8]
    1ca8:	681b      	ldr	r3, [r3, #0]
    1caa:	697a      	ldr	r2, [r7, #20]
    1cac:	1ad3      	subs	r3, r2, r3
    1cae:	e003      	b.n	1cb8 <UART_Init+0x130>
    1cb0:	68bb      	ldr	r3, [r7, #8]
    1cb2:	681a      	ldr	r2, [r3, #0]
    1cb4:	697b      	ldr	r3, [r7, #20]
    1cb6:	1ad3      	subs	r3, r2, r3
    1cb8:	61bb      	str	r3, [r7, #24]
    1cba:	68bb      	ldr	r3, [r7, #8]
    1cbc:	681b      	ldr	r3, [r3, #0]
    1cbe:	4a66      	ldr	r2, [pc, #408]	; (1e58 <UART_Init+0x2d0>)
    1cc0:	fba2 2303 	umull	r2, r3, r2, r3
    1cc4:	095a      	lsrs	r2, r3, #5
    1cc6:	4613      	mov	r3, r2
    1cc8:	005b      	lsls	r3, r3, #1
    1cca:	4413      	add	r3, r2
    1ccc:	69ba      	ldr	r2, [r7, #24]
    1cce:	429a      	cmp	r2, r3
    1cd0:	d902      	bls.n	1cd8 <UART_Init+0x150>
    1cd2:	f240 33f5 	movw	r3, #1013	; 0x3f5
    1cd6:	e0a9      	b.n	1e2c <UART_Init+0x2a4>
    1cd8:	68f8      	ldr	r0, [r7, #12]
    1cda:	f7ff ff2b 	bl	1b34 <UART_GetInstance>
    1cde:	4602      	mov	r2, r0
    1ce0:	4b5e      	ldr	r3, [pc, #376]	; (1e5c <UART_Init+0x2d4>)
    1ce2:	f853 3022 	ldr.w	r3, [r3, r2, lsl #2]
    1ce6:	4618      	mov	r0, r3
    1ce8:	f003 f83a 	bl	4d60 <CLOCK_EnableClock>
    1cec:	68fb      	ldr	r3, [r7, #12]
    1cee:	78db      	ldrb	r3, [r3, #3]
    1cf0:	b2db      	uxtb	r3, r3
    1cf2:	f023 030c 	bic.w	r3, r3, #12
    1cf6:	b2da      	uxtb	r2, r3
    1cf8:	68fb      	ldr	r3, [r7, #12]
    1cfa:	70da      	strb	r2, [r3, #3]
    1cfc:	68fb      	ldr	r3, [r7, #12]
    1cfe:	781b      	ldrb	r3, [r3, #0]
    1d00:	b2db      	uxtb	r3, r3
    1d02:	f023 031f 	bic.w	r3, r3, #31
    1d06:	b2da      	uxtb	r2, r3
    1d08:	8bfb      	ldrh	r3, [r7, #30]
    1d0a:	0a1b      	lsrs	r3, r3, #8
    1d0c:	b29b      	uxth	r3, r3
    1d0e:	b2db      	uxtb	r3, r3
    1d10:	4313      	orrs	r3, r2
    1d12:	b2da      	uxtb	r2, r3
    1d14:	68fb      	ldr	r3, [r7, #12]
    1d16:	701a      	strb	r2, [r3, #0]
    1d18:	8bfb      	ldrh	r3, [r7, #30]
    1d1a:	b2da      	uxtb	r2, r3
    1d1c:	68fb      	ldr	r3, [r7, #12]
    1d1e:	705a      	strb	r2, [r3, #1]
    1d20:	68fb      	ldr	r3, [r7, #12]
    1d22:	7a9b      	ldrb	r3, [r3, #10]
    1d24:	b2db      	uxtb	r3, r3
    1d26:	f023 031f 	bic.w	r3, r3, #31
    1d2a:	b2da      	uxtb	r2, r3
    1d2c:	8a7b      	ldrh	r3, [r7, #18]
    1d2e:	b2db      	uxtb	r3, r3
    1d30:	f003 031f 	and.w	r3, r3, #31
    1d34:	b2db      	uxtb	r3, r3
    1d36:	4313      	orrs	r3, r2
    1d38:	b2da      	uxtb	r2, r3
    1d3a:	68fb      	ldr	r3, [r7, #12]
    1d3c:	729a      	strb	r2, [r3, #10]
    1d3e:	68fb      	ldr	r3, [r7, #12]
    1d40:	789b      	ldrb	r3, [r3, #2]
    1d42:	b2db      	uxtb	r3, r3
    1d44:	f023 0317 	bic.w	r3, r3, #23
    1d48:	777b      	strb	r3, [r7, #29]
    1d4a:	68bb      	ldr	r3, [r7, #8]
    1d4c:	7a9b      	ldrb	r3, [r3, #10]
    1d4e:	009b      	lsls	r3, r3, #2
    1d50:	b2db      	uxtb	r3, r3
    1d52:	f003 0304 	and.w	r3, r3, #4
    1d56:	b2da      	uxtb	r2, r3
    1d58:	7f7b      	ldrb	r3, [r7, #29]
    1d5a:	4313      	orrs	r3, r2
    1d5c:	777b      	strb	r3, [r7, #29]
    1d5e:	68bb      	ldr	r3, [r7, #8]
    1d60:	791b      	ldrb	r3, [r3, #4]
    1d62:	2b00      	cmp	r3, #0
    1d64:	d007      	beq.n	1d76 <UART_Init+0x1ee>
    1d66:	68bb      	ldr	r3, [r7, #8]
    1d68:	791a      	ldrb	r2, [r3, #4]
    1d6a:	7f7b      	ldrb	r3, [r7, #29]
    1d6c:	4313      	orrs	r3, r2
    1d6e:	b2db      	uxtb	r3, r3
    1d70:	f043 0310 	orr.w	r3, r3, #16
    1d74:	777b      	strb	r3, [r7, #29]
    1d76:	68fb      	ldr	r3, [r7, #12]
    1d78:	7f7a      	ldrb	r2, [r7, #29]
    1d7a:	709a      	strb	r2, [r3, #2]
    1d7c:	68fb      	ldr	r3, [r7, #12]
    1d7e:	781b      	ldrb	r3, [r3, #0]
    1d80:	b2db      	uxtb	r3, r3
    1d82:	f023 0320 	bic.w	r3, r3, #32
    1d86:	b2da      	uxtb	r2, r3
    1d88:	68bb      	ldr	r3, [r7, #8]
    1d8a:	795b      	ldrb	r3, [r3, #5]
    1d8c:	015b      	lsls	r3, r3, #5
    1d8e:	b2db      	uxtb	r3, r3
    1d90:	f003 0320 	and.w	r3, r3, #32
    1d94:	b2db      	uxtb	r3, r3
    1d96:	4313      	orrs	r3, r2
    1d98:	b2da      	uxtb	r2, r3
    1d9a:	68fb      	ldr	r3, [r7, #12]
    1d9c:	701a      	strb	r2, [r3, #0]
    1d9e:	68bb      	ldr	r3, [r7, #8]
    1da0:	799a      	ldrb	r2, [r3, #6]
    1da2:	68fb      	ldr	r3, [r7, #12]
    1da4:	74da      	strb	r2, [r3, #19]
    1da6:	68bb      	ldr	r3, [r7, #8]
    1da8:	79da      	ldrb	r2, [r3, #7]
    1daa:	68fb      	ldr	r3, [r7, #12]
    1dac:	755a      	strb	r2, [r3, #21]
    1dae:	68fb      	ldr	r3, [r7, #12]
    1db0:	7c1b      	ldrb	r3, [r3, #16]
    1db2:	b2db      	uxtb	r3, r3
    1db4:	f063 0377 	orn	r3, r3, #119	; 0x77
    1db8:	b2da      	uxtb	r2, r3
    1dba:	68fb      	ldr	r3, [r7, #12]
    1dbc:	741a      	strb	r2, [r3, #16]
    1dbe:	68fb      	ldr	r3, [r7, #12]
    1dc0:	7c5b      	ldrb	r3, [r3, #17]
    1dc2:	b2db      	uxtb	r3, r3
    1dc4:	f063 033f 	orn	r3, r3, #63	; 0x3f
    1dc8:	b2da      	uxtb	r2, r3
    1dca:	68fb      	ldr	r3, [r7, #12]
    1dcc:	745a      	strb	r2, [r3, #17]
    1dce:	68bb      	ldr	r3, [r7, #8]
    1dd0:	7a1b      	ldrb	r3, [r3, #8]
    1dd2:	2b00      	cmp	r3, #0
    1dd4:	d007      	beq.n	1de6 <UART_Init+0x25e>
    1dd6:	68fb      	ldr	r3, [r7, #12]
    1dd8:	7b5b      	ldrb	r3, [r3, #13]
    1dda:	b2db      	uxtb	r3, r3
    1ddc:	f043 0308 	orr.w	r3, r3, #8
    1de0:	b2da      	uxtb	r2, r3
    1de2:	68fb      	ldr	r3, [r7, #12]
    1de4:	735a      	strb	r2, [r3, #13]
    1de6:	68bb      	ldr	r3, [r7, #8]
    1de8:	7a5b      	ldrb	r3, [r3, #9]
    1dea:	2b00      	cmp	r3, #0
    1dec:	d007      	beq.n	1dfe <UART_Init+0x276>
    1dee:	68fb      	ldr	r3, [r7, #12]
    1df0:	7b5b      	ldrb	r3, [r3, #13]
    1df2:	b2db      	uxtb	r3, r3
    1df4:	f043 0301 	orr.w	r3, r3, #1
    1df8:	b2da      	uxtb	r2, r3
    1dfa:	68fb      	ldr	r3, [r7, #12]
    1dfc:	735a      	strb	r2, [r3, #13]
    1dfe:	68fb      	ldr	r3, [r7, #12]
    1e00:	78db      	ldrb	r3, [r3, #3]
    1e02:	777b      	strb	r3, [r7, #29]
    1e04:	68bb      	ldr	r3, [r7, #8]
    1e06:	7adb      	ldrb	r3, [r3, #11]
    1e08:	2b00      	cmp	r3, #0
    1e0a:	d003      	beq.n	1e14 <UART_Init+0x28c>
    1e0c:	7f7b      	ldrb	r3, [r7, #29]
    1e0e:	f043 0308 	orr.w	r3, r3, #8
    1e12:	777b      	strb	r3, [r7, #29]
    1e14:	68bb      	ldr	r3, [r7, #8]
    1e16:	7b1b      	ldrb	r3, [r3, #12]
    1e18:	2b00      	cmp	r3, #0
    1e1a:	d003      	beq.n	1e24 <UART_Init+0x29c>
    1e1c:	7f7b      	ldrb	r3, [r7, #29]
    1e1e:	f043 0304 	orr.w	r3, r3, #4
    1e22:	777b      	strb	r3, [r7, #29]
    1e24:	68fb      	ldr	r3, [r7, #12]
    1e26:	7f7a      	ldrb	r2, [r7, #29]
    1e28:	70da      	strb	r2, [r3, #3]
    1e2a:	2300      	movs	r3, #0
    1e2c:	4618      	mov	r0, r3
    1e2e:	3720      	adds	r7, #32
    1e30:	46bd      	mov	sp, r7
    1e32:	bd80      	pop	{r7, pc}
    1e34:	00006454 	.word	0x00006454
    1e38:	00006478 	.word	0x00006478
    1e3c:	4006a000 	.word	0x4006a000
    1e40:	4006b000 	.word	0x4006b000
    1e44:	4006c000 	.word	0x4006c000
    1e48:	4006d000 	.word	0x4006d000
    1e4c:	400ea000 	.word	0x400ea000
    1e50:	000064ac 	.word	0x000064ac
    1e54:	00006508 	.word	0x00006508
    1e58:	51eb851f 	.word	0x51eb851f
    1e5c:	000063c0 	.word	0x000063c0

00001e60 <UART_GetDefaultConfig>:
    1e60:	b580      	push	{r7, lr}
    1e62:	b082      	sub	sp, #8
    1e64:	af00      	add	r7, sp, #0
    1e66:	6078      	str	r0, [r7, #4]
    1e68:	687b      	ldr	r3, [r7, #4]
    1e6a:	2b00      	cmp	r3, #0
    1e6c:	d102      	bne.n	1e74 <UART_GetDefaultConfig+0x14>
    1e6e:	4813      	ldr	r0, [pc, #76]	; (1ebc <UART_GetDefaultConfig+0x5c>)
    1e70:	f001 fff4 	bl	3e5c <__assertion_failed>
    1e74:	687b      	ldr	r3, [r7, #4]
    1e76:	f44f 32e1 	mov.w	r2, #115200	; 0x1c200
    1e7a:	601a      	str	r2, [r3, #0]
    1e7c:	687b      	ldr	r3, [r7, #4]
    1e7e:	2200      	movs	r2, #0
    1e80:	711a      	strb	r2, [r3, #4]
    1e82:	687b      	ldr	r3, [r7, #4]
    1e84:	2200      	movs	r2, #0
    1e86:	715a      	strb	r2, [r3, #5]
    1e88:	687b      	ldr	r3, [r7, #4]
    1e8a:	2200      	movs	r2, #0
    1e8c:	719a      	strb	r2, [r3, #6]
    1e8e:	687b      	ldr	r3, [r7, #4]
    1e90:	2201      	movs	r2, #1
    1e92:	71da      	strb	r2, [r3, #7]
    1e94:	687b      	ldr	r3, [r7, #4]
    1e96:	2200      	movs	r2, #0
    1e98:	721a      	strb	r2, [r3, #8]
    1e9a:	687b      	ldr	r3, [r7, #4]
    1e9c:	2200      	movs	r2, #0
    1e9e:	725a      	strb	r2, [r3, #9]
    1ea0:	687b      	ldr	r3, [r7, #4]
    1ea2:	2200      	movs	r2, #0
    1ea4:	729a      	strb	r2, [r3, #10]
    1ea6:	687b      	ldr	r3, [r7, #4]
    1ea8:	2200      	movs	r2, #0
    1eaa:	72da      	strb	r2, [r3, #11]
    1eac:	687b      	ldr	r3, [r7, #4]
    1eae:	2200      	movs	r2, #0
    1eb0:	731a      	strb	r2, [r3, #12]
    1eb2:	bf00      	nop
    1eb4:	3708      	adds	r7, #8
    1eb6:	46bd      	mov	sp, r7
    1eb8:	bd80      	pop	{r7, pc}
    1eba:	bf00      	nop
    1ebc:	00006564 	.word	0x00006564

00001ec0 <UART_ReadBlocking>:
    1ec0:	b580      	push	{r7, lr}
    1ec2:	b086      	sub	sp, #24
    1ec4:	af00      	add	r7, sp, #0
    1ec6:	60f8      	str	r0, [r7, #12]
    1ec8:	60b9      	str	r1, [r7, #8]
    1eca:	607a      	str	r2, [r7, #4]
    1ecc:	68bb      	ldr	r3, [r7, #8]
    1ece:	2b00      	cmp	r3, #0
    1ed0:	d132      	bne.n	1f38 <UART_ReadBlocking+0x78>
    1ed2:	481e      	ldr	r0, [pc, #120]	; (1f4c <UART_ReadBlocking+0x8c>)
    1ed4:	f001 ffc2 	bl	3e5c <__assertion_failed>
    1ed8:	68f8      	ldr	r0, [r7, #12]
    1eda:	f002 ff5b 	bl	4d94 <UART_GetStatusFlags>
    1ede:	6178      	str	r0, [r7, #20]
    1ee0:	697b      	ldr	r3, [r7, #20]
    1ee2:	f003 0308 	and.w	r3, r3, #8
    1ee6:	2b00      	cmp	r3, #0
    1ee8:	d002      	beq.n	1ef0 <UART_ReadBlocking+0x30>
    1eea:	f240 33f1 	movw	r3, #1009	; 0x3f1
    1eee:	e029      	b.n	1f44 <UART_ReadBlocking+0x84>
    1ef0:	697b      	ldr	r3, [r7, #20]
    1ef2:	f003 0304 	and.w	r3, r3, #4
    1ef6:	2b00      	cmp	r3, #0
    1ef8:	d002      	beq.n	1f00 <UART_ReadBlocking+0x40>
    1efa:	f240 33f2 	movw	r3, #1010	; 0x3f2
    1efe:	e021      	b.n	1f44 <UART_ReadBlocking+0x84>
    1f00:	697b      	ldr	r3, [r7, #20]
    1f02:	f003 0302 	and.w	r3, r3, #2
    1f06:	2b00      	cmp	r3, #0
    1f08:	d002      	beq.n	1f10 <UART_ReadBlocking+0x50>
    1f0a:	f240 33f3 	movw	r3, #1011	; 0x3f3
    1f0e:	e019      	b.n	1f44 <UART_ReadBlocking+0x84>
    1f10:	697b      	ldr	r3, [r7, #20]
    1f12:	f003 0301 	and.w	r3, r3, #1
    1f16:	2b00      	cmp	r3, #0
    1f18:	d002      	beq.n	1f20 <UART_ReadBlocking+0x60>
    1f1a:	f44f 737d 	mov.w	r3, #1012	; 0x3f4
    1f1e:	e011      	b.n	1f44 <UART_ReadBlocking+0x84>
    1f20:	68fb      	ldr	r3, [r7, #12]
    1f22:	7d9b      	ldrb	r3, [r3, #22]
    1f24:	b2db      	uxtb	r3, r3
    1f26:	2b00      	cmp	r3, #0
    1f28:	d0d6      	beq.n	1ed8 <UART_ReadBlocking+0x18>
    1f2a:	68bb      	ldr	r3, [r7, #8]
    1f2c:	1c5a      	adds	r2, r3, #1
    1f2e:	60ba      	str	r2, [r7, #8]
    1f30:	68fa      	ldr	r2, [r7, #12]
    1f32:	79d2      	ldrb	r2, [r2, #7]
    1f34:	b2d2      	uxtb	r2, r2
    1f36:	701a      	strb	r2, [r3, #0]
    1f38:	687b      	ldr	r3, [r7, #4]
    1f3a:	1e5a      	subs	r2, r3, #1
    1f3c:	607a      	str	r2, [r7, #4]
    1f3e:	2b00      	cmp	r3, #0
    1f40:	d1ee      	bne.n	1f20 <UART_ReadBlocking+0x60>
    1f42:	2300      	movs	r3, #0
    1f44:	4618      	mov	r0, r3
    1f46:	3718      	adds	r7, #24
    1f48:	46bd      	mov	sp, r7
    1f4a:	bd80      	pop	{r7, pc}
    1f4c:	000065d8 	.word	0x000065d8

00001f50 <UART0_DriverIRQHandler>:
    1f50:	b580      	push	{r7, lr}
    1f52:	af00      	add	r7, sp, #0
    1f54:	4b05      	ldr	r3, [pc, #20]	; (1f6c <UART0_DriverIRQHandler+0x1c>)
    1f56:	681b      	ldr	r3, [r3, #0]
    1f58:	4a05      	ldr	r2, [pc, #20]	; (1f70 <UART0_DriverIRQHandler+0x20>)
    1f5a:	6812      	ldr	r2, [r2, #0]
    1f5c:	4611      	mov	r1, r2
    1f5e:	4805      	ldr	r0, [pc, #20]	; (1f74 <UART0_DriverIRQHandler+0x24>)
    1f60:	4798      	blx	r3
    1f62:	f3bf 8f4f 	dsb	sy
    1f66:	bf00      	nop
    1f68:	bd80      	pop	{r7, pc}
    1f6a:	bf00      	nop
    1f6c:	20000040 	.word	0x20000040
    1f70:	2000002c 	.word	0x2000002c
    1f74:	4006a000 	.word	0x4006a000

00001f78 <UART1_DriverIRQHandler>:
    1f78:	b580      	push	{r7, lr}
    1f7a:	af00      	add	r7, sp, #0
    1f7c:	4b05      	ldr	r3, [pc, #20]	; (1f94 <UART1_DriverIRQHandler+0x1c>)
    1f7e:	681b      	ldr	r3, [r3, #0]
    1f80:	4a05      	ldr	r2, [pc, #20]	; (1f98 <UART1_DriverIRQHandler+0x20>)
    1f82:	6852      	ldr	r2, [r2, #4]
    1f84:	4611      	mov	r1, r2
    1f86:	4805      	ldr	r0, [pc, #20]	; (1f9c <UART1_DriverIRQHandler+0x24>)
    1f88:	4798      	blx	r3
    1f8a:	f3bf 8f4f 	dsb	sy
    1f8e:	bf00      	nop
    1f90:	bd80      	pop	{r7, pc}
    1f92:	bf00      	nop
    1f94:	20000040 	.word	0x20000040
    1f98:	2000002c 	.word	0x2000002c
    1f9c:	4006b000 	.word	0x4006b000

00001fa0 <UART2_DriverIRQHandler>:
    1fa0:	b580      	push	{r7, lr}
    1fa2:	af00      	add	r7, sp, #0
    1fa4:	4b05      	ldr	r3, [pc, #20]	; (1fbc <UART2_DriverIRQHandler+0x1c>)
    1fa6:	681b      	ldr	r3, [r3, #0]
    1fa8:	4a05      	ldr	r2, [pc, #20]	; (1fc0 <UART2_DriverIRQHandler+0x20>)
    1faa:	6892      	ldr	r2, [r2, #8]
    1fac:	4611      	mov	r1, r2
    1fae:	4805      	ldr	r0, [pc, #20]	; (1fc4 <UART2_DriverIRQHandler+0x24>)
    1fb0:	4798      	blx	r3
    1fb2:	f3bf 8f4f 	dsb	sy
    1fb6:	bf00      	nop
    1fb8:	bd80      	pop	{r7, pc}
    1fba:	bf00      	nop
    1fbc:	20000040 	.word	0x20000040
    1fc0:	2000002c 	.word	0x2000002c
    1fc4:	4006c000 	.word	0x4006c000

00001fc8 <UART3_DriverIRQHandler>:
    1fc8:	b580      	push	{r7, lr}
    1fca:	af00      	add	r7, sp, #0
    1fcc:	4b05      	ldr	r3, [pc, #20]	; (1fe4 <UART3_DriverIRQHandler+0x1c>)
    1fce:	681b      	ldr	r3, [r3, #0]
    1fd0:	4a05      	ldr	r2, [pc, #20]	; (1fe8 <UART3_DriverIRQHandler+0x20>)
    1fd2:	68d2      	ldr	r2, [r2, #12]
    1fd4:	4611      	mov	r1, r2
    1fd6:	4805      	ldr	r0, [pc, #20]	; (1fec <UART3_DriverIRQHandler+0x24>)
    1fd8:	4798      	blx	r3
    1fda:	f3bf 8f4f 	dsb	sy
    1fde:	bf00      	nop
    1fe0:	bd80      	pop	{r7, pc}
    1fe2:	bf00      	nop
    1fe4:	20000040 	.word	0x20000040
    1fe8:	2000002c 	.word	0x2000002c
    1fec:	4006d000 	.word	0x4006d000

00001ff0 <UART4_DriverIRQHandler>:
    1ff0:	b580      	push	{r7, lr}
    1ff2:	af00      	add	r7, sp, #0
    1ff4:	4b05      	ldr	r3, [pc, #20]	; (200c <UART4_DriverIRQHandler+0x1c>)
    1ff6:	681b      	ldr	r3, [r3, #0]
    1ff8:	4a05      	ldr	r2, [pc, #20]	; (2010 <UART4_DriverIRQHandler+0x20>)
    1ffa:	6912      	ldr	r2, [r2, #16]
    1ffc:	4611      	mov	r1, r2
    1ffe:	4805      	ldr	r0, [pc, #20]	; (2014 <UART4_DriverIRQHandler+0x24>)
    2000:	4798      	blx	r3
    2002:	f3bf 8f4f 	dsb	sy
    2006:	bf00      	nop
    2008:	bd80      	pop	{r7, pc}
    200a:	bf00      	nop
    200c:	20000040 	.word	0x20000040
    2010:	2000002c 	.word	0x2000002c
    2014:	400ea000 	.word	0x400ea000

00002018 <BOARD_InitDebugConsole>:
    2018:	b580      	push	{r7, lr}
    201a:	b082      	sub	sp, #8
    201c:	af00      	add	r7, sp, #0
    201e:	f7ff f829 	bl	1074 <CLOCK_GetCoreSysClkFreq>
    2022:	6078      	str	r0, [r7, #4]
    2024:	687b      	ldr	r3, [r7, #4]
    2026:	2201      	movs	r2, #1
    2028:	f44f 31e1 	mov.w	r1, #115200	; 0x1c200
    202c:	4803      	ldr	r0, [pc, #12]	; (203c <BOARD_InitDebugConsole+0x24>)
    202e:	f7fe fa3b 	bl	4a8 <DbgConsole_Init>
    2032:	bf00      	nop
    2034:	3708      	adds	r7, #8
    2036:	46bd      	mov	sp, r7
    2038:	bd80      	pop	{r7, pc}
    203a:	bf00      	nop
    203c:	4006a000 	.word	0x4006a000

00002040 <CLOCK_SetSimSafeDivs>:
    2040:	b480      	push	{r7}
    2042:	af00      	add	r7, sp, #0
    2044:	4b05      	ldr	r3, [pc, #20]	; (205c <CLOCK_SetSimSafeDivs+0x1c>)
    2046:	f503 5382 	add.w	r3, r3, #4160	; 0x1040
    204a:	3304      	adds	r3, #4
    204c:	4a04      	ldr	r2, [pc, #16]	; (2060 <CLOCK_SetSimSafeDivs+0x20>)
    204e:	601a      	str	r2, [r3, #0]
    2050:	bf00      	nop
    2052:	46bd      	mov	sp, r7
    2054:	f85d 7b04 	ldr.w	r7, [sp], #4
    2058:	4770      	bx	lr
    205a:	bf00      	nop
    205c:	40047000 	.word	0x40047000
    2060:	02260000 	.word	0x02260000

00002064 <CLOCK_SetXtal0Freq>:
    2064:	b480      	push	{r7}
    2066:	b083      	sub	sp, #12
    2068:	af00      	add	r7, sp, #0
    206a:	6078      	str	r0, [r7, #4]
    206c:	4a04      	ldr	r2, [pc, #16]	; (2080 <CLOCK_SetXtal0Freq+0x1c>)
    206e:	687b      	ldr	r3, [r7, #4]
    2070:	6013      	str	r3, [r2, #0]
    2072:	bf00      	nop
    2074:	370c      	adds	r7, #12
    2076:	46bd      	mov	sp, r7
    2078:	f85d 7b04 	ldr.w	r7, [sp], #4
    207c:	4770      	bx	lr
    207e:	bf00      	nop
    2080:	2000001c 	.word	0x2000001c

00002084 <CLOCK_CONFIG_SetFllExtRefDiv>:
    2084:	b480      	push	{r7}
    2086:	b083      	sub	sp, #12
    2088:	af00      	add	r7, sp, #0
    208a:	4603      	mov	r3, r0
    208c:	71fb      	strb	r3, [r7, #7]
    208e:	4b0b      	ldr	r3, [pc, #44]	; (20bc <CLOCK_CONFIG_SetFllExtRefDiv+0x38>)
    2090:	781b      	ldrb	r3, [r3, #0]
    2092:	b2db      	uxtb	r3, r3
    2094:	f023 0338 	bic.w	r3, r3, #56	; 0x38
    2098:	b2da      	uxtb	r2, r3
    209a:	79fb      	ldrb	r3, [r7, #7]
    209c:	00db      	lsls	r3, r3, #3
    209e:	b2db      	uxtb	r3, r3
    20a0:	f003 0338 	and.w	r3, r3, #56	; 0x38
    20a4:	b2db      	uxtb	r3, r3
    20a6:	4905      	ldr	r1, [pc, #20]	; (20bc <CLOCK_CONFIG_SetFllExtRefDiv+0x38>)
    20a8:	4313      	orrs	r3, r2
    20aa:	b2db      	uxtb	r3, r3
    20ac:	700b      	strb	r3, [r1, #0]
    20ae:	bf00      	nop
    20b0:	370c      	adds	r7, #12
    20b2:	46bd      	mov	sp, r7
    20b4:	f85d 7b04 	ldr.w	r7, [sp], #4
    20b8:	4770      	bx	lr
    20ba:	bf00      	nop
    20bc:	40064000 	.word	0x40064000

000020c0 <BOARD_BootClockRUN>:
    20c0:	b580      	push	{r7, lr}
    20c2:	af00      	add	r7, sp, #0
    20c4:	f7ff ffbc 	bl	2040 <CLOCK_SetSimSafeDivs>
    20c8:	480f      	ldr	r0, [pc, #60]	; (2108 <BOARD_BootClockRUN+0x48>)
    20ca:	f7ff f9cb 	bl	1464 <CLOCK_InitOsc0>
    20ce:	4b0f      	ldr	r3, [pc, #60]	; (210c <BOARD_BootClockRUN+0x4c>)
    20d0:	4618      	mov	r0, r3
    20d2:	f7ff ffc7 	bl	2064 <CLOCK_SetXtal0Freq>
    20d6:	2302      	movs	r3, #2
    20d8:	2100      	movs	r1, #0
    20da:	2200      	movs	r2, #0
    20dc:	4618      	mov	r0, r3
    20de:	f7ff f8fd 	bl	12dc <CLOCK_SetInternalRefClkConfig>
    20e2:	2300      	movs	r3, #0
    20e4:	4618      	mov	r0, r3
    20e6:	f7ff ffcd 	bl	2084 <CLOCK_CONFIG_SetFllExtRefDiv>
    20ea:	2300      	movs	r3, #0
    20ec:	2100      	movs	r1, #0
    20ee:	4a08      	ldr	r2, [pc, #32]	; (2110 <BOARD_BootClockRUN+0x50>)
    20f0:	4618      	mov	r0, r3
    20f2:	f7ff fa71 	bl	15d8 <CLOCK_BootToPeeMode>
    20f6:	4807      	ldr	r0, [pc, #28]	; (2114 <BOARD_BootClockRUN+0x54>)
    20f8:	f7fe ffd0 	bl	109c <CLOCK_SetSimConfig>
    20fc:	4b06      	ldr	r3, [pc, #24]	; (2118 <BOARD_BootClockRUN+0x58>)
    20fe:	4a07      	ldr	r2, [pc, #28]	; (211c <BOARD_BootClockRUN+0x5c>)
    2100:	601a      	str	r2, [r3, #0]
    2102:	bf00      	nop
    2104:	bd80      	pop	{r7, pc}
    2106:	bf00      	nop
    2108:	000068fc 	.word	0x000068fc
    210c:	00b71b00 	.word	0x00b71b00
    2110:	000068f0 	.word	0x000068f0
    2114:	000068f4 	.word	0x000068f4
    2118:	2000000c 	.word	0x2000000c
    211c:	07270e00 	.word	0x07270e00

00002120 <BOARD_InitPins>:
    2120:	b580      	push	{r7, lr}
    2122:	af00      	add	r7, sp, #0
    2124:	480d      	ldr	r0, [pc, #52]	; (215c <BOARD_InitPins+0x3c>)
    2126:	f002 fe9f 	bl	4e68 <CLOCK_EnableClock>
    212a:	2203      	movs	r2, #3
    212c:	2110      	movs	r1, #16
    212e:	480c      	ldr	r0, [pc, #48]	; (2160 <BOARD_InitPins+0x40>)
    2130:	f002 feb4 	bl	4e9c <PORT_SetPinMux>
    2134:	2203      	movs	r2, #3
    2136:	2111      	movs	r1, #17
    2138:	4809      	ldr	r0, [pc, #36]	; (2160 <BOARD_InitPins+0x40>)
    213a:	f002 feaf 	bl	4e9c <PORT_SetPinMux>
    213e:	4b09      	ldr	r3, [pc, #36]	; (2164 <BOARD_InitPins+0x44>)
    2140:	f503 5380 	add.w	r3, r3, #4096	; 0x1000
    2144:	3310      	adds	r3, #16
    2146:	681b      	ldr	r3, [r3, #0]
    2148:	4906      	ldr	r1, [pc, #24]	; (2164 <BOARD_InitPins+0x44>)
    214a:	f023 0203 	bic.w	r2, r3, #3
    214e:	f501 5380 	add.w	r3, r1, #4096	; 0x1000
    2152:	3310      	adds	r3, #16
    2154:	601a      	str	r2, [r3, #0]
    2156:	bf00      	nop
    2158:	bd80      	pop	{r7, pc}
    215a:	bf00      	nop
    215c:	1038000a 	.word	0x1038000a
    2160:	4004a000 	.word	0x4004a000
    2164:	40047000 	.word	0x40047000

00002168 <vPortSetupTimerInterrupt>:
    2168:	b480      	push	{r7}
    216a:	af00      	add	r7, sp, #0
    216c:	4b0b      	ldr	r3, [pc, #44]	; (219c <vPortSetupTimerInterrupt+0x34>)
    216e:	2200      	movs	r2, #0
    2170:	601a      	str	r2, [r3, #0]
    2172:	4b0b      	ldr	r3, [pc, #44]	; (21a0 <vPortSetupTimerInterrupt+0x38>)
    2174:	2200      	movs	r2, #0
    2176:	601a      	str	r2, [r3, #0]
    2178:	4b0a      	ldr	r3, [pc, #40]	; (21a4 <vPortSetupTimerInterrupt+0x3c>)
    217a:	681b      	ldr	r3, [r3, #0]
    217c:	4a0a      	ldr	r2, [pc, #40]	; (21a8 <vPortSetupTimerInterrupt+0x40>)
    217e:	fba2 2303 	umull	r2, r3, r2, r3
    2182:	099b      	lsrs	r3, r3, #6
    2184:	4a09      	ldr	r2, [pc, #36]	; (21ac <vPortSetupTimerInterrupt+0x44>)
    2186:	3b01      	subs	r3, #1
    2188:	6013      	str	r3, [r2, #0]
    218a:	4b04      	ldr	r3, [pc, #16]	; (219c <vPortSetupTimerInterrupt+0x34>)
    218c:	2207      	movs	r2, #7
    218e:	601a      	str	r2, [r3, #0]
    2190:	bf00      	nop
    2192:	46bd      	mov	sp, r7
    2194:	f85d 7b04 	ldr.w	r7, [sp], #4
    2198:	4770      	bx	lr
    219a:	bf00      	nop
    219c:	e000e010 	.word	0xe000e010
    21a0:	e000e018 	.word	0xe000e018
    21a4:	2000000c 	.word	0x2000000c
    21a8:	51eb851f 	.word	0x51eb851f
    21ac:	e000e014 	.word	0xe000e014

000021b0 <pvPortMalloc>:
    21b0:	b580      	push	{r7, lr}
    21b2:	b08a      	sub	sp, #40	; 0x28
    21b4:	af00      	add	r7, sp, #0
    21b6:	6078      	str	r0, [r7, #4]
    21b8:	2300      	movs	r3, #0
    21ba:	61fb      	str	r3, [r7, #28]
    21bc:	f000 febc 	bl	2f38 <vTaskSuspendAll>
    21c0:	4b57      	ldr	r3, [pc, #348]	; (2320 <pvPortMalloc+0x170>)
    21c2:	681b      	ldr	r3, [r3, #0]
    21c4:	2b00      	cmp	r3, #0
    21c6:	d101      	bne.n	21cc <pvPortMalloc+0x1c>
    21c8:	f000 f90c 	bl	23e4 <prvHeapInit>
    21cc:	4b55      	ldr	r3, [pc, #340]	; (2324 <pvPortMalloc+0x174>)
    21ce:	681a      	ldr	r2, [r3, #0]
    21d0:	687b      	ldr	r3, [r7, #4]
    21d2:	4013      	ands	r3, r2
    21d4:	2b00      	cmp	r3, #0
    21d6:	f040 808c 	bne.w	22f2 <pvPortMalloc+0x142>
    21da:	687b      	ldr	r3, [r7, #4]
    21dc:	2b00      	cmp	r3, #0
    21de:	d01c      	beq.n	221a <pvPortMalloc+0x6a>
    21e0:	2208      	movs	r2, #8
    21e2:	687b      	ldr	r3, [r7, #4]
    21e4:	4413      	add	r3, r2
    21e6:	607b      	str	r3, [r7, #4]
    21e8:	687b      	ldr	r3, [r7, #4]
    21ea:	f003 0307 	and.w	r3, r3, #7
    21ee:	2b00      	cmp	r3, #0
    21f0:	d013      	beq.n	221a <pvPortMalloc+0x6a>
    21f2:	687b      	ldr	r3, [r7, #4]
    21f4:	f023 0307 	bic.w	r3, r3, #7
    21f8:	3308      	adds	r3, #8
    21fa:	607b      	str	r3, [r7, #4]
    21fc:	687b      	ldr	r3, [r7, #4]
    21fe:	f003 0307 	and.w	r3, r3, #7
    2202:	2b00      	cmp	r3, #0
    2204:	d009      	beq.n	221a <pvPortMalloc+0x6a>
    2206:	f04f 0320 	mov.w	r3, #32
    220a:	f383 8811 	msr	BASEPRI, r3
    220e:	f3bf 8f6f 	isb	sy
    2212:	f3bf 8f4f 	dsb	sy
    2216:	617b      	str	r3, [r7, #20]
    2218:	e7fe      	b.n	2218 <pvPortMalloc+0x68>
    221a:	687b      	ldr	r3, [r7, #4]
    221c:	2b00      	cmp	r3, #0
    221e:	d068      	beq.n	22f2 <pvPortMalloc+0x142>
    2220:	4b41      	ldr	r3, [pc, #260]	; (2328 <pvPortMalloc+0x178>)
    2222:	681b      	ldr	r3, [r3, #0]
    2224:	687a      	ldr	r2, [r7, #4]
    2226:	429a      	cmp	r2, r3
    2228:	d863      	bhi.n	22f2 <pvPortMalloc+0x142>
    222a:	4b40      	ldr	r3, [pc, #256]	; (232c <pvPortMalloc+0x17c>)
    222c:	623b      	str	r3, [r7, #32]
    222e:	4b3f      	ldr	r3, [pc, #252]	; (232c <pvPortMalloc+0x17c>)
    2230:	681b      	ldr	r3, [r3, #0]
    2232:	627b      	str	r3, [r7, #36]	; 0x24
    2234:	e004      	b.n	2240 <pvPortMalloc+0x90>
    2236:	6a7b      	ldr	r3, [r7, #36]	; 0x24
    2238:	623b      	str	r3, [r7, #32]
    223a:	6a7b      	ldr	r3, [r7, #36]	; 0x24
    223c:	681b      	ldr	r3, [r3, #0]
    223e:	627b      	str	r3, [r7, #36]	; 0x24
    2240:	6a7b      	ldr	r3, [r7, #36]	; 0x24
    2242:	685b      	ldr	r3, [r3, #4]
    2244:	687a      	ldr	r2, [r7, #4]
    2246:	429a      	cmp	r2, r3
    2248:	d903      	bls.n	2252 <pvPortMalloc+0xa2>
    224a:	6a7b      	ldr	r3, [r7, #36]	; 0x24
    224c:	681b      	ldr	r3, [r3, #0]
    224e:	2b00      	cmp	r3, #0
    2250:	d1f1      	bne.n	2236 <pvPortMalloc+0x86>
    2252:	4b33      	ldr	r3, [pc, #204]	; (2320 <pvPortMalloc+0x170>)
    2254:	681b      	ldr	r3, [r3, #0]
    2256:	6a7a      	ldr	r2, [r7, #36]	; 0x24
    2258:	429a      	cmp	r2, r3
    225a:	d04a      	beq.n	22f2 <pvPortMalloc+0x142>
    225c:	6a3b      	ldr	r3, [r7, #32]
    225e:	681b      	ldr	r3, [r3, #0]
    2260:	2208      	movs	r2, #8
    2262:	4413      	add	r3, r2
    2264:	61fb      	str	r3, [r7, #28]
    2266:	6a7b      	ldr	r3, [r7, #36]	; 0x24
    2268:	681a      	ldr	r2, [r3, #0]
    226a:	6a3b      	ldr	r3, [r7, #32]
    226c:	601a      	str	r2, [r3, #0]
    226e:	6a7b      	ldr	r3, [r7, #36]	; 0x24
    2270:	685a      	ldr	r2, [r3, #4]
    2272:	687b      	ldr	r3, [r7, #4]
    2274:	1ad2      	subs	r2, r2, r3
    2276:	2308      	movs	r3, #8
    2278:	005b      	lsls	r3, r3, #1
    227a:	429a      	cmp	r2, r3
    227c:	d91e      	bls.n	22bc <pvPortMalloc+0x10c>
    227e:	6a7a      	ldr	r2, [r7, #36]	; 0x24
    2280:	687b      	ldr	r3, [r7, #4]
    2282:	4413      	add	r3, r2
    2284:	61bb      	str	r3, [r7, #24]
    2286:	69bb      	ldr	r3, [r7, #24]
    2288:	f003 0307 	and.w	r3, r3, #7
    228c:	2b00      	cmp	r3, #0
    228e:	d009      	beq.n	22a4 <pvPortMalloc+0xf4>
    2290:	f04f 0320 	mov.w	r3, #32
    2294:	f383 8811 	msr	BASEPRI, r3
    2298:	f3bf 8f6f 	isb	sy
    229c:	f3bf 8f4f 	dsb	sy
    22a0:	613b      	str	r3, [r7, #16]
    22a2:	e7fe      	b.n	22a2 <pvPortMalloc+0xf2>
    22a4:	6a7b      	ldr	r3, [r7, #36]	; 0x24
    22a6:	685a      	ldr	r2, [r3, #4]
    22a8:	687b      	ldr	r3, [r7, #4]
    22aa:	1ad2      	subs	r2, r2, r3
    22ac:	69bb      	ldr	r3, [r7, #24]
    22ae:	605a      	str	r2, [r3, #4]
    22b0:	6a7b      	ldr	r3, [r7, #36]	; 0x24
    22b2:	687a      	ldr	r2, [r7, #4]
    22b4:	605a      	str	r2, [r3, #4]
    22b6:	69b8      	ldr	r0, [r7, #24]
    22b8:	f000 f8f6 	bl	24a8 <prvInsertBlockIntoFreeList>
    22bc:	4b1a      	ldr	r3, [pc, #104]	; (2328 <pvPortMalloc+0x178>)
    22be:	681a      	ldr	r2, [r3, #0]
    22c0:	6a7b      	ldr	r3, [r7, #36]	; 0x24
    22c2:	685b      	ldr	r3, [r3, #4]
    22c4:	1ad3      	subs	r3, r2, r3
    22c6:	4a18      	ldr	r2, [pc, #96]	; (2328 <pvPortMalloc+0x178>)
    22c8:	6013      	str	r3, [r2, #0]
    22ca:	4b17      	ldr	r3, [pc, #92]	; (2328 <pvPortMalloc+0x178>)
    22cc:	681a      	ldr	r2, [r3, #0]
    22ce:	4b18      	ldr	r3, [pc, #96]	; (2330 <pvPortMalloc+0x180>)
    22d0:	681b      	ldr	r3, [r3, #0]
    22d2:	429a      	cmp	r2, r3
    22d4:	d203      	bcs.n	22de <pvPortMalloc+0x12e>
    22d6:	4b14      	ldr	r3, [pc, #80]	; (2328 <pvPortMalloc+0x178>)
    22d8:	681b      	ldr	r3, [r3, #0]
    22da:	4a15      	ldr	r2, [pc, #84]	; (2330 <pvPortMalloc+0x180>)
    22dc:	6013      	str	r3, [r2, #0]
    22de:	6a7b      	ldr	r3, [r7, #36]	; 0x24
    22e0:	685a      	ldr	r2, [r3, #4]
    22e2:	4b10      	ldr	r3, [pc, #64]	; (2324 <pvPortMalloc+0x174>)
    22e4:	681b      	ldr	r3, [r3, #0]
    22e6:	431a      	orrs	r2, r3
    22e8:	6a7b      	ldr	r3, [r7, #36]	; 0x24
    22ea:	605a      	str	r2, [r3, #4]
    22ec:	6a7b      	ldr	r3, [r7, #36]	; 0x24
    22ee:	2200      	movs	r2, #0
    22f0:	601a      	str	r2, [r3, #0]
    22f2:	f000 fe2f 	bl	2f54 <xTaskResumeAll>
    22f6:	69fb      	ldr	r3, [r7, #28]
    22f8:	f003 0307 	and.w	r3, r3, #7
    22fc:	2b00      	cmp	r3, #0
    22fe:	d009      	beq.n	2314 <pvPortMalloc+0x164>
    2300:	f04f 0320 	mov.w	r3, #32
    2304:	f383 8811 	msr	BASEPRI, r3
    2308:	f3bf 8f6f 	isb	sy
    230c:	f3bf 8f4f 	dsb	sy
    2310:	60fb      	str	r3, [r7, #12]
    2312:	e7fe      	b.n	2312 <pvPortMalloc+0x162>
    2314:	69fb      	ldr	r3, [r7, #28]
    2316:	4618      	mov	r0, r3
    2318:	3728      	adds	r7, #40	; 0x28
    231a:	46bd      	mov	sp, r7
    231c:	bd80      	pop	{r7, pc}
    231e:	bf00      	nop
    2320:	2000284c 	.word	0x2000284c
    2324:	20002858 	.word	0x20002858
    2328:	20002850 	.word	0x20002850
    232c:	20002844 	.word	0x20002844
    2330:	20002854 	.word	0x20002854

00002334 <vPortFree>:
    2334:	b580      	push	{r7, lr}
    2336:	b086      	sub	sp, #24
    2338:	af00      	add	r7, sp, #0
    233a:	6078      	str	r0, [r7, #4]
    233c:	687b      	ldr	r3, [r7, #4]
    233e:	617b      	str	r3, [r7, #20]
    2340:	687b      	ldr	r3, [r7, #4]
    2342:	2b00      	cmp	r3, #0
    2344:	d046      	beq.n	23d4 <vPortFree+0xa0>
    2346:	2308      	movs	r3, #8
    2348:	425b      	negs	r3, r3
    234a:	697a      	ldr	r2, [r7, #20]
    234c:	4413      	add	r3, r2
    234e:	617b      	str	r3, [r7, #20]
    2350:	697b      	ldr	r3, [r7, #20]
    2352:	613b      	str	r3, [r7, #16]
    2354:	693b      	ldr	r3, [r7, #16]
    2356:	685a      	ldr	r2, [r3, #4]
    2358:	4b20      	ldr	r3, [pc, #128]	; (23dc <vPortFree+0xa8>)
    235a:	681b      	ldr	r3, [r3, #0]
    235c:	4013      	ands	r3, r2
    235e:	2b00      	cmp	r3, #0
    2360:	d109      	bne.n	2376 <vPortFree+0x42>
    2362:	f04f 0320 	mov.w	r3, #32
    2366:	f383 8811 	msr	BASEPRI, r3
    236a:	f3bf 8f6f 	isb	sy
    236e:	f3bf 8f4f 	dsb	sy
    2372:	60fb      	str	r3, [r7, #12]
    2374:	e7fe      	b.n	2374 <vPortFree+0x40>
    2376:	693b      	ldr	r3, [r7, #16]
    2378:	681b      	ldr	r3, [r3, #0]
    237a:	2b00      	cmp	r3, #0
    237c:	d009      	beq.n	2392 <vPortFree+0x5e>
    237e:	f04f 0320 	mov.w	r3, #32
    2382:	f383 8811 	msr	BASEPRI, r3
    2386:	f3bf 8f6f 	isb	sy
    238a:	f3bf 8f4f 	dsb	sy
    238e:	60bb      	str	r3, [r7, #8]
    2390:	e7fe      	b.n	2390 <vPortFree+0x5c>
    2392:	693b      	ldr	r3, [r7, #16]
    2394:	685a      	ldr	r2, [r3, #4]
    2396:	4b11      	ldr	r3, [pc, #68]	; (23dc <vPortFree+0xa8>)
    2398:	681b      	ldr	r3, [r3, #0]
    239a:	4013      	ands	r3, r2
    239c:	2b00      	cmp	r3, #0
    239e:	d019      	beq.n	23d4 <vPortFree+0xa0>
    23a0:	693b      	ldr	r3, [r7, #16]
    23a2:	681b      	ldr	r3, [r3, #0]
    23a4:	2b00      	cmp	r3, #0
    23a6:	d115      	bne.n	23d4 <vPortFree+0xa0>
    23a8:	693b      	ldr	r3, [r7, #16]
    23aa:	685a      	ldr	r2, [r3, #4]
    23ac:	4b0b      	ldr	r3, [pc, #44]	; (23dc <vPortFree+0xa8>)
    23ae:	681b      	ldr	r3, [r3, #0]
    23b0:	43db      	mvns	r3, r3
    23b2:	401a      	ands	r2, r3
    23b4:	693b      	ldr	r3, [r7, #16]
    23b6:	605a      	str	r2, [r3, #4]
    23b8:	f000 fdbe 	bl	2f38 <vTaskSuspendAll>
    23bc:	693b      	ldr	r3, [r7, #16]
    23be:	685a      	ldr	r2, [r3, #4]
    23c0:	4b07      	ldr	r3, [pc, #28]	; (23e0 <vPortFree+0xac>)
    23c2:	681b      	ldr	r3, [r3, #0]
    23c4:	4413      	add	r3, r2
    23c6:	4a06      	ldr	r2, [pc, #24]	; (23e0 <vPortFree+0xac>)
    23c8:	6013      	str	r3, [r2, #0]
    23ca:	6938      	ldr	r0, [r7, #16]
    23cc:	f000 f86c 	bl	24a8 <prvInsertBlockIntoFreeList>
    23d0:	f000 fdc0 	bl	2f54 <xTaskResumeAll>
    23d4:	bf00      	nop
    23d6:	3718      	adds	r7, #24
    23d8:	46bd      	mov	sp, r7
    23da:	bd80      	pop	{r7, pc}
    23dc:	20002858 	.word	0x20002858
    23e0:	20002850 	.word	0x20002850

000023e4 <prvHeapInit>:
    23e4:	b480      	push	{r7}
    23e6:	b085      	sub	sp, #20
    23e8:	af00      	add	r7, sp, #0
    23ea:	f44f 5320 	mov.w	r3, #10240	; 0x2800
    23ee:	60bb      	str	r3, [r7, #8]
    23f0:	4b27      	ldr	r3, [pc, #156]	; (2490 <prvHeapInit+0xac>)
    23f2:	60fb      	str	r3, [r7, #12]
    23f4:	68fb      	ldr	r3, [r7, #12]
    23f6:	f003 0307 	and.w	r3, r3, #7
    23fa:	2b00      	cmp	r3, #0
    23fc:	d00c      	beq.n	2418 <prvHeapInit+0x34>
    23fe:	68fb      	ldr	r3, [r7, #12]
    2400:	3307      	adds	r3, #7
    2402:	60fb      	str	r3, [r7, #12]
    2404:	68fb      	ldr	r3, [r7, #12]
    2406:	f023 0307 	bic.w	r3, r3, #7
    240a:	60fb      	str	r3, [r7, #12]
    240c:	68ba      	ldr	r2, [r7, #8]
    240e:	68fb      	ldr	r3, [r7, #12]
    2410:	1ad3      	subs	r3, r2, r3
    2412:	4a1f      	ldr	r2, [pc, #124]	; (2490 <prvHeapInit+0xac>)
    2414:	4413      	add	r3, r2
    2416:	60bb      	str	r3, [r7, #8]
    2418:	68fb      	ldr	r3, [r7, #12]
    241a:	607b      	str	r3, [r7, #4]
    241c:	4a1d      	ldr	r2, [pc, #116]	; (2494 <prvHeapInit+0xb0>)
    241e:	687b      	ldr	r3, [r7, #4]
    2420:	6013      	str	r3, [r2, #0]
    2422:	4b1c      	ldr	r3, [pc, #112]	; (2494 <prvHeapInit+0xb0>)
    2424:	2200      	movs	r2, #0
    2426:	605a      	str	r2, [r3, #4]
    2428:	687b      	ldr	r3, [r7, #4]
    242a:	68ba      	ldr	r2, [r7, #8]
    242c:	4413      	add	r3, r2
    242e:	60fb      	str	r3, [r7, #12]
    2430:	2208      	movs	r2, #8
    2432:	68fb      	ldr	r3, [r7, #12]
    2434:	1a9b      	subs	r3, r3, r2
    2436:	60fb      	str	r3, [r7, #12]
    2438:	68fb      	ldr	r3, [r7, #12]
    243a:	f023 0307 	bic.w	r3, r3, #7
    243e:	60fb      	str	r3, [r7, #12]
    2440:	68fb      	ldr	r3, [r7, #12]
    2442:	4a15      	ldr	r2, [pc, #84]	; (2498 <prvHeapInit+0xb4>)
    2444:	6013      	str	r3, [r2, #0]
    2446:	4b14      	ldr	r3, [pc, #80]	; (2498 <prvHeapInit+0xb4>)
    2448:	681b      	ldr	r3, [r3, #0]
    244a:	2200      	movs	r2, #0
    244c:	605a      	str	r2, [r3, #4]
    244e:	4b12      	ldr	r3, [pc, #72]	; (2498 <prvHeapInit+0xb4>)
    2450:	681b      	ldr	r3, [r3, #0]
    2452:	2200      	movs	r2, #0
    2454:	601a      	str	r2, [r3, #0]
    2456:	687b      	ldr	r3, [r7, #4]
    2458:	603b      	str	r3, [r7, #0]
    245a:	683b      	ldr	r3, [r7, #0]
    245c:	68fa      	ldr	r2, [r7, #12]
    245e:	1ad2      	subs	r2, r2, r3
    2460:	683b      	ldr	r3, [r7, #0]
    2462:	605a      	str	r2, [r3, #4]
    2464:	4b0c      	ldr	r3, [pc, #48]	; (2498 <prvHeapInit+0xb4>)
    2466:	681a      	ldr	r2, [r3, #0]
    2468:	683b      	ldr	r3, [r7, #0]
    246a:	601a      	str	r2, [r3, #0]
    246c:	683b      	ldr	r3, [r7, #0]
    246e:	685b      	ldr	r3, [r3, #4]
    2470:	4a0a      	ldr	r2, [pc, #40]	; (249c <prvHeapInit+0xb8>)
    2472:	6013      	str	r3, [r2, #0]
    2474:	683b      	ldr	r3, [r7, #0]
    2476:	685b      	ldr	r3, [r3, #4]
    2478:	4a09      	ldr	r2, [pc, #36]	; (24a0 <prvHeapInit+0xbc>)
    247a:	6013      	str	r3, [r2, #0]
    247c:	4b09      	ldr	r3, [pc, #36]	; (24a4 <prvHeapInit+0xc0>)
    247e:	f04f 4200 	mov.w	r2, #2147483648	; 0x80000000
    2482:	601a      	str	r2, [r3, #0]
    2484:	bf00      	nop
    2486:	3714      	adds	r7, #20
    2488:	46bd      	mov	sp, r7
    248a:	f85d 7b04 	ldr.w	r7, [sp], #4
    248e:	4770      	bx	lr
    2490:	20000044 	.word	0x20000044
    2494:	20002844 	.word	0x20002844
    2498:	2000284c 	.word	0x2000284c
    249c:	20002854 	.word	0x20002854
    24a0:	20002850 	.word	0x20002850
    24a4:	20002858 	.word	0x20002858

000024a8 <prvInsertBlockIntoFreeList>:
    24a8:	b480      	push	{r7}
    24aa:	b085      	sub	sp, #20
    24ac:	af00      	add	r7, sp, #0
    24ae:	6078      	str	r0, [r7, #4]
    24b0:	4b28      	ldr	r3, [pc, #160]	; (2554 <prvInsertBlockIntoFreeList+0xac>)
    24b2:	60fb      	str	r3, [r7, #12]
    24b4:	e002      	b.n	24bc <prvInsertBlockIntoFreeList+0x14>
    24b6:	68fb      	ldr	r3, [r7, #12]
    24b8:	681b      	ldr	r3, [r3, #0]
    24ba:	60fb      	str	r3, [r7, #12]
    24bc:	68fb      	ldr	r3, [r7, #12]
    24be:	681b      	ldr	r3, [r3, #0]
    24c0:	687a      	ldr	r2, [r7, #4]
    24c2:	429a      	cmp	r2, r3
    24c4:	d8f7      	bhi.n	24b6 <prvInsertBlockIntoFreeList+0xe>
    24c6:	68fb      	ldr	r3, [r7, #12]
    24c8:	60bb      	str	r3, [r7, #8]
    24ca:	68fb      	ldr	r3, [r7, #12]
    24cc:	685b      	ldr	r3, [r3, #4]
    24ce:	68ba      	ldr	r2, [r7, #8]
    24d0:	4413      	add	r3, r2
    24d2:	687a      	ldr	r2, [r7, #4]
    24d4:	429a      	cmp	r2, r3
    24d6:	d108      	bne.n	24ea <prvInsertBlockIntoFreeList+0x42>
    24d8:	68fb      	ldr	r3, [r7, #12]
    24da:	685a      	ldr	r2, [r3, #4]
    24dc:	687b      	ldr	r3, [r7, #4]
    24de:	685b      	ldr	r3, [r3, #4]
    24e0:	441a      	add	r2, r3
    24e2:	68fb      	ldr	r3, [r7, #12]
    24e4:	605a      	str	r2, [r3, #4]
    24e6:	68fb      	ldr	r3, [r7, #12]
    24e8:	607b      	str	r3, [r7, #4]
    24ea:	687b      	ldr	r3, [r7, #4]
    24ec:	60bb      	str	r3, [r7, #8]
    24ee:	687b      	ldr	r3, [r7, #4]
    24f0:	685b      	ldr	r3, [r3, #4]
    24f2:	68ba      	ldr	r2, [r7, #8]
    24f4:	441a      	add	r2, r3
    24f6:	68fb      	ldr	r3, [r7, #12]
    24f8:	681b      	ldr	r3, [r3, #0]
    24fa:	429a      	cmp	r2, r3
    24fc:	d118      	bne.n	2530 <prvInsertBlockIntoFreeList+0x88>
    24fe:	68fb      	ldr	r3, [r7, #12]
    2500:	681a      	ldr	r2, [r3, #0]
    2502:	4b15      	ldr	r3, [pc, #84]	; (2558 <prvInsertBlockIntoFreeList+0xb0>)
    2504:	681b      	ldr	r3, [r3, #0]
    2506:	429a      	cmp	r2, r3
    2508:	d00d      	beq.n	2526 <prvInsertBlockIntoFreeList+0x7e>
    250a:	687b      	ldr	r3, [r7, #4]
    250c:	685a      	ldr	r2, [r3, #4]
    250e:	68fb      	ldr	r3, [r7, #12]
    2510:	681b      	ldr	r3, [r3, #0]
    2512:	685b      	ldr	r3, [r3, #4]
    2514:	441a      	add	r2, r3
    2516:	687b      	ldr	r3, [r7, #4]
    2518:	605a      	str	r2, [r3, #4]
    251a:	68fb      	ldr	r3, [r7, #12]
    251c:	681b      	ldr	r3, [r3, #0]
    251e:	681a      	ldr	r2, [r3, #0]
    2520:	687b      	ldr	r3, [r7, #4]
    2522:	601a      	str	r2, [r3, #0]
    2524:	e008      	b.n	2538 <prvInsertBlockIntoFreeList+0x90>
    2526:	4b0c      	ldr	r3, [pc, #48]	; (2558 <prvInsertBlockIntoFreeList+0xb0>)
    2528:	681a      	ldr	r2, [r3, #0]
    252a:	687b      	ldr	r3, [r7, #4]
    252c:	601a      	str	r2, [r3, #0]
    252e:	e003      	b.n	2538 <prvInsertBlockIntoFreeList+0x90>
    2530:	68fb      	ldr	r3, [r7, #12]
    2532:	681a      	ldr	r2, [r3, #0]
    2534:	687b      	ldr	r3, [r7, #4]
    2536:	601a      	str	r2, [r3, #0]
    2538:	68fa      	ldr	r2, [r7, #12]
    253a:	687b      	ldr	r3, [r7, #4]
    253c:	429a      	cmp	r2, r3
    253e:	d002      	beq.n	2546 <prvInsertBlockIntoFreeList+0x9e>
    2540:	68fb      	ldr	r3, [r7, #12]
    2542:	687a      	ldr	r2, [r7, #4]
    2544:	601a      	str	r2, [r3, #0]
    2546:	bf00      	nop
    2548:	3714      	adds	r7, #20
    254a:	46bd      	mov	sp, r7
    254c:	f85d 7b04 	ldr.w	r7, [sp], #4
    2550:	4770      	bx	lr
    2552:	bf00      	nop
    2554:	20002844 	.word	0x20002844
    2558:	2000284c 	.word	0x2000284c

0000255c <pxPortInitialiseStack>:
    255c:	b480      	push	{r7}
    255e:	b085      	sub	sp, #20
    2560:	af00      	add	r7, sp, #0
    2562:	60f8      	str	r0, [r7, #12]
    2564:	60b9      	str	r1, [r7, #8]
    2566:	607a      	str	r2, [r7, #4]
    2568:	68fb      	ldr	r3, [r7, #12]
    256a:	3b04      	subs	r3, #4
    256c:	60fb      	str	r3, [r7, #12]
    256e:	68fb      	ldr	r3, [r7, #12]
    2570:	f04f 7280 	mov.w	r2, #16777216	; 0x1000000
    2574:	601a      	str	r2, [r3, #0]
    2576:	68fb      	ldr	r3, [r7, #12]
    2578:	3b04      	subs	r3, #4
    257a:	60fb      	str	r3, [r7, #12]
    257c:	68bb      	ldr	r3, [r7, #8]
    257e:	f023 0201 	bic.w	r2, r3, #1
    2582:	68fb      	ldr	r3, [r7, #12]
    2584:	601a      	str	r2, [r3, #0]
    2586:	68fb      	ldr	r3, [r7, #12]
    2588:	3b04      	subs	r3, #4
    258a:	60fb      	str	r3, [r7, #12]
    258c:	4a0c      	ldr	r2, [pc, #48]	; (25c0 <pxPortInitialiseStack+0x64>)
    258e:	68fb      	ldr	r3, [r7, #12]
    2590:	601a      	str	r2, [r3, #0]
    2592:	68fb      	ldr	r3, [r7, #12]
    2594:	3b14      	subs	r3, #20
    2596:	60fb      	str	r3, [r7, #12]
    2598:	687a      	ldr	r2, [r7, #4]
    259a:	68fb      	ldr	r3, [r7, #12]
    259c:	601a      	str	r2, [r3, #0]
    259e:	68fb      	ldr	r3, [r7, #12]
    25a0:	3b04      	subs	r3, #4
    25a2:	60fb      	str	r3, [r7, #12]
    25a4:	68fb      	ldr	r3, [r7, #12]
    25a6:	f06f 0202 	mvn.w	r2, #2
    25aa:	601a      	str	r2, [r3, #0]
    25ac:	68fb      	ldr	r3, [r7, #12]
    25ae:	3b20      	subs	r3, #32
    25b0:	60fb      	str	r3, [r7, #12]
    25b2:	68fb      	ldr	r3, [r7, #12]
    25b4:	4618      	mov	r0, r3
    25b6:	3714      	adds	r7, #20
    25b8:	46bd      	mov	sp, r7
    25ba:	f85d 7b04 	ldr.w	r7, [sp], #4
    25be:	4770      	bx	lr
    25c0:	000025c5 	.word	0x000025c5

000025c4 <prvTaskExitError>:
    25c4:	b480      	push	{r7}
    25c6:	b085      	sub	sp, #20
    25c8:	af00      	add	r7, sp, #0
    25ca:	2300      	movs	r3, #0
    25cc:	607b      	str	r3, [r7, #4]
    25ce:	4b11      	ldr	r3, [pc, #68]	; (2614 <prvTaskExitError+0x50>)
    25d0:	681b      	ldr	r3, [r3, #0]
    25d2:	f1b3 3fff 	cmp.w	r3, #4294967295	; 0xffffffff
    25d6:	d009      	beq.n	25ec <prvTaskExitError+0x28>
    25d8:	f04f 0320 	mov.w	r3, #32
    25dc:	f383 8811 	msr	BASEPRI, r3
    25e0:	f3bf 8f6f 	isb	sy
    25e4:	f3bf 8f4f 	dsb	sy
    25e8:	60fb      	str	r3, [r7, #12]
    25ea:	e7fe      	b.n	25ea <prvTaskExitError+0x26>
    25ec:	f04f 0320 	mov.w	r3, #32
    25f0:	f383 8811 	msr	BASEPRI, r3
    25f4:	f3bf 8f6f 	isb	sy
    25f8:	f3bf 8f4f 	dsb	sy
    25fc:	60bb      	str	r3, [r7, #8]
    25fe:	bf00      	nop
    2600:	687b      	ldr	r3, [r7, #4]
    2602:	2b00      	cmp	r3, #0
    2604:	d0fc      	beq.n	2600 <prvTaskExitError+0x3c>
    2606:	bf00      	nop
    2608:	3714      	adds	r7, #20
    260a:	46bd      	mov	sp, r7
    260c:	f85d 7b04 	ldr.w	r7, [sp], #4
    2610:	4770      	bx	lr
    2612:	bf00      	nop
    2614:	20000008 	.word	0x20000008

00002618 <prvPortStartFirstTask>:
    2618:	4808      	ldr	r0, [pc, #32]	; (263c <prvPortStartFirstTask+0x24>)
    261a:	6800      	ldr	r0, [r0, #0]
    261c:	6800      	ldr	r0, [r0, #0]
    261e:	f380 8808 	msr	MSP, r0
    2622:	f04f 0000 	mov.w	r0, #0
    2626:	f380 8814 	msr	CONTROL, r0
    262a:	b662      	cpsie	i
    262c:	b661      	cpsie	f
    262e:	f3bf 8f4f 	dsb	sy
    2632:	f3bf 8f6f 	isb	sy
    2636:	df00      	svc	0
    2638:	bf00      	nop
    263a:	bf00      	nop
    263c:	e000ed08 	.word	0xe000ed08

00002640 <xPortStartScheduler>:
    2640:	b580      	push	{r7, lr}
    2642:	b086      	sub	sp, #24
    2644:	af00      	add	r7, sp, #0
    2646:	4b44      	ldr	r3, [pc, #272]	; (2758 <xPortStartScheduler+0x118>)
    2648:	681b      	ldr	r3, [r3, #0]
    264a:	4a44      	ldr	r2, [pc, #272]	; (275c <xPortStartScheduler+0x11c>)
    264c:	4293      	cmp	r3, r2
    264e:	d109      	bne.n	2664 <xPortStartScheduler+0x24>
    2650:	f04f 0320 	mov.w	r3, #32
    2654:	f383 8811 	msr	BASEPRI, r3
    2658:	f3bf 8f6f 	isb	sy
    265c:	f3bf 8f4f 	dsb	sy
    2660:	613b      	str	r3, [r7, #16]
    2662:	e7fe      	b.n	2662 <xPortStartScheduler+0x22>
    2664:	4b3c      	ldr	r3, [pc, #240]	; (2758 <xPortStartScheduler+0x118>)
    2666:	681b      	ldr	r3, [r3, #0]
    2668:	4a3d      	ldr	r2, [pc, #244]	; (2760 <xPortStartScheduler+0x120>)
    266a:	4293      	cmp	r3, r2
    266c:	d109      	bne.n	2682 <xPortStartScheduler+0x42>
    266e:	f04f 0320 	mov.w	r3, #32
    2672:	f383 8811 	msr	BASEPRI, r3
    2676:	f3bf 8f6f 	isb	sy
    267a:	f3bf 8f4f 	dsb	sy
    267e:	60fb      	str	r3, [r7, #12]
    2680:	e7fe      	b.n	2680 <xPortStartScheduler+0x40>
    2682:	4b38      	ldr	r3, [pc, #224]	; (2764 <xPortStartScheduler+0x124>)
    2684:	617b      	str	r3, [r7, #20]
    2686:	697b      	ldr	r3, [r7, #20]
    2688:	781b      	ldrb	r3, [r3, #0]
    268a:	b2db      	uxtb	r3, r3
    268c:	607b      	str	r3, [r7, #4]
    268e:	697b      	ldr	r3, [r7, #20]
    2690:	22ff      	movs	r2, #255	; 0xff
    2692:	701a      	strb	r2, [r3, #0]
    2694:	697b      	ldr	r3, [r7, #20]
    2696:	781b      	ldrb	r3, [r3, #0]
    2698:	b2db      	uxtb	r3, r3
    269a:	70fb      	strb	r3, [r7, #3]
    269c:	78fb      	ldrb	r3, [r7, #3]
    269e:	b2db      	uxtb	r3, r3
    26a0:	f003 0320 	and.w	r3, r3, #32
    26a4:	b2da      	uxtb	r2, r3
    26a6:	4b30      	ldr	r3, [pc, #192]	; (2768 <xPortStartScheduler+0x128>)
    26a8:	701a      	strb	r2, [r3, #0]
    26aa:	4b30      	ldr	r3, [pc, #192]	; (276c <xPortStartScheduler+0x12c>)
    26ac:	2207      	movs	r2, #7
    26ae:	601a      	str	r2, [r3, #0]
    26b0:	e009      	b.n	26c6 <xPortStartScheduler+0x86>
    26b2:	4b2e      	ldr	r3, [pc, #184]	; (276c <xPortStartScheduler+0x12c>)
    26b4:	681b      	ldr	r3, [r3, #0]
    26b6:	3b01      	subs	r3, #1
    26b8:	4a2c      	ldr	r2, [pc, #176]	; (276c <xPortStartScheduler+0x12c>)
    26ba:	6013      	str	r3, [r2, #0]
    26bc:	78fb      	ldrb	r3, [r7, #3]
    26be:	b2db      	uxtb	r3, r3
    26c0:	005b      	lsls	r3, r3, #1
    26c2:	b2db      	uxtb	r3, r3
    26c4:	70fb      	strb	r3, [r7, #3]
    26c6:	78fb      	ldrb	r3, [r7, #3]
    26c8:	b2db      	uxtb	r3, r3
    26ca:	f003 0380 	and.w	r3, r3, #128	; 0x80
    26ce:	2b80      	cmp	r3, #128	; 0x80
    26d0:	d0ef      	beq.n	26b2 <xPortStartScheduler+0x72>
    26d2:	4b26      	ldr	r3, [pc, #152]	; (276c <xPortStartScheduler+0x12c>)
    26d4:	681b      	ldr	r3, [r3, #0]
    26d6:	f1c3 0307 	rsb	r3, r3, #7
    26da:	2b04      	cmp	r3, #4
    26dc:	d009      	beq.n	26f2 <xPortStartScheduler+0xb2>
    26de:	f04f 0320 	mov.w	r3, #32
    26e2:	f383 8811 	msr	BASEPRI, r3
    26e6:	f3bf 8f6f 	isb	sy
    26ea:	f3bf 8f4f 	dsb	sy
    26ee:	60bb      	str	r3, [r7, #8]
    26f0:	e7fe      	b.n	26f0 <xPortStartScheduler+0xb0>
    26f2:	4b1e      	ldr	r3, [pc, #120]	; (276c <xPortStartScheduler+0x12c>)
    26f4:	681b      	ldr	r3, [r3, #0]
    26f6:	021b      	lsls	r3, r3, #8
    26f8:	4a1c      	ldr	r2, [pc, #112]	; (276c <xPortStartScheduler+0x12c>)
    26fa:	6013      	str	r3, [r2, #0]
    26fc:	4b1b      	ldr	r3, [pc, #108]	; (276c <xPortStartScheduler+0x12c>)
    26fe:	681b      	ldr	r3, [r3, #0]
    2700:	f403 63e0 	and.w	r3, r3, #1792	; 0x700
    2704:	4a19      	ldr	r2, [pc, #100]	; (276c <xPortStartScheduler+0x12c>)
    2706:	6013      	str	r3, [r2, #0]
    2708:	687b      	ldr	r3, [r7, #4]
    270a:	b2da      	uxtb	r2, r3
    270c:	697b      	ldr	r3, [r7, #20]
    270e:	701a      	strb	r2, [r3, #0]
    2710:	4b17      	ldr	r3, [pc, #92]	; (2770 <xPortStartScheduler+0x130>)
    2712:	681b      	ldr	r3, [r3, #0]
    2714:	4a16      	ldr	r2, [pc, #88]	; (2770 <xPortStartScheduler+0x130>)
    2716:	f443 0370 	orr.w	r3, r3, #15728640	; 0xf00000
    271a:	6013      	str	r3, [r2, #0]
    271c:	4b14      	ldr	r3, [pc, #80]	; (2770 <xPortStartScheduler+0x130>)
    271e:	681b      	ldr	r3, [r3, #0]
    2720:	4a13      	ldr	r2, [pc, #76]	; (2770 <xPortStartScheduler+0x130>)
    2722:	f043 4370 	orr.w	r3, r3, #4026531840	; 0xf0000000
    2726:	6013      	str	r3, [r2, #0]
    2728:	f7ff fd1e 	bl	2168 <vPortSetupTimerInterrupt>
    272c:	4b11      	ldr	r3, [pc, #68]	; (2774 <xPortStartScheduler+0x134>)
    272e:	2200      	movs	r2, #0
    2730:	601a      	str	r2, [r3, #0]
    2732:	f000 f899 	bl	2868 <vPortEnableVFP>
    2736:	4b10      	ldr	r3, [pc, #64]	; (2778 <xPortStartScheduler+0x138>)
    2738:	681b      	ldr	r3, [r3, #0]
    273a:	4a0f      	ldr	r2, [pc, #60]	; (2778 <xPortStartScheduler+0x138>)
    273c:	f043 4340 	orr.w	r3, r3, #3221225472	; 0xc0000000
    2740:	6013      	str	r3, [r2, #0]
    2742:	f7ff ff69 	bl	2618 <prvPortStartFirstTask>
    2746:	f000 fd5d 	bl	3204 <vTaskSwitchContext>
    274a:	f7ff ff3b 	bl	25c4 <prvTaskExitError>
    274e:	2300      	movs	r3, #0
    2750:	4618      	mov	r0, r3
    2752:	3718      	adds	r7, #24
    2754:	46bd      	mov	sp, r7
    2756:	bd80      	pop	{r7, pc}
    2758:	e000ed00 	.word	0xe000ed00
    275c:	410fc271 	.word	0x410fc271
    2760:	410fc270 	.word	0x410fc270
    2764:	e000e400 	.word	0xe000e400
    2768:	20002aa0 	.word	0x20002aa0
    276c:	2000285c 	.word	0x2000285c
    2770:	e000ed20 	.word	0xe000ed20
    2774:	20000008 	.word	0x20000008
    2778:	e000ef34 	.word	0xe000ef34

0000277c <vPortEnterCritical>:
    277c:	b480      	push	{r7}
    277e:	b083      	sub	sp, #12
    2780:	af00      	add	r7, sp, #0
    2782:	f04f 0320 	mov.w	r3, #32
    2786:	f383 8811 	msr	BASEPRI, r3
    278a:	f3bf 8f6f 	isb	sy
    278e:	f3bf 8f4f 	dsb	sy
    2792:	607b      	str	r3, [r7, #4]
    2794:	4b0e      	ldr	r3, [pc, #56]	; (27d0 <vPortEnterCritical+0x54>)
    2796:	681b      	ldr	r3, [r3, #0]
    2798:	3301      	adds	r3, #1
    279a:	4a0d      	ldr	r2, [pc, #52]	; (27d0 <vPortEnterCritical+0x54>)
    279c:	6013      	str	r3, [r2, #0]
    279e:	4b0c      	ldr	r3, [pc, #48]	; (27d0 <vPortEnterCritical+0x54>)
    27a0:	681b      	ldr	r3, [r3, #0]
    27a2:	2b01      	cmp	r3, #1
    27a4:	d10e      	bne.n	27c4 <vPortEnterCritical+0x48>
    27a6:	4b0b      	ldr	r3, [pc, #44]	; (27d4 <vPortEnterCritical+0x58>)
    27a8:	681b      	ldr	r3, [r3, #0]
    27aa:	b2db      	uxtb	r3, r3
    27ac:	2b00      	cmp	r3, #0
    27ae:	d009      	beq.n	27c4 <vPortEnterCritical+0x48>
    27b0:	f04f 0320 	mov.w	r3, #32
    27b4:	f383 8811 	msr	BASEPRI, r3
    27b8:	f3bf 8f6f 	isb	sy
    27bc:	f3bf 8f4f 	dsb	sy
    27c0:	603b      	str	r3, [r7, #0]
    27c2:	e7fe      	b.n	27c2 <vPortEnterCritical+0x46>
    27c4:	bf00      	nop
    27c6:	370c      	adds	r7, #12
    27c8:	46bd      	mov	sp, r7
    27ca:	f85d 7b04 	ldr.w	r7, [sp], #4
    27ce:	4770      	bx	lr
    27d0:	20000008 	.word	0x20000008
    27d4:	e000ed04 	.word	0xe000ed04

000027d8 <vPortExitCritical>:
    27d8:	b480      	push	{r7}
    27da:	b083      	sub	sp, #12
    27dc:	af00      	add	r7, sp, #0
    27de:	4b11      	ldr	r3, [pc, #68]	; (2824 <vPortExitCritical+0x4c>)
    27e0:	681b      	ldr	r3, [r3, #0]
    27e2:	2b00      	cmp	r3, #0
    27e4:	d109      	bne.n	27fa <vPortExitCritical+0x22>
    27e6:	f04f 0320 	mov.w	r3, #32
    27ea:	f383 8811 	msr	BASEPRI, r3
    27ee:	f3bf 8f6f 	isb	sy
    27f2:	f3bf 8f4f 	dsb	sy
    27f6:	607b      	str	r3, [r7, #4]
    27f8:	e7fe      	b.n	27f8 <vPortExitCritical+0x20>
    27fa:	4b0a      	ldr	r3, [pc, #40]	; (2824 <vPortExitCritical+0x4c>)
    27fc:	681b      	ldr	r3, [r3, #0]
    27fe:	3b01      	subs	r3, #1
    2800:	4a08      	ldr	r2, [pc, #32]	; (2824 <vPortExitCritical+0x4c>)
    2802:	6013      	str	r3, [r2, #0]
    2804:	4b07      	ldr	r3, [pc, #28]	; (2824 <vPortExitCritical+0x4c>)
    2806:	681b      	ldr	r3, [r3, #0]
    2808:	2b00      	cmp	r3, #0
    280a:	d104      	bne.n	2816 <vPortExitCritical+0x3e>
    280c:	2300      	movs	r3, #0
    280e:	603b      	str	r3, [r7, #0]
    2810:	683b      	ldr	r3, [r7, #0]
    2812:	f383 8811 	msr	BASEPRI, r3
    2816:	bf00      	nop
    2818:	370c      	adds	r7, #12
    281a:	46bd      	mov	sp, r7
    281c:	f85d 7b04 	ldr.w	r7, [sp], #4
    2820:	4770      	bx	lr
    2822:	bf00      	nop
    2824:	20000008 	.word	0x20000008

00002828 <SysTick_Handler>:
    2828:	b580      	push	{r7, lr}
    282a:	b082      	sub	sp, #8
    282c:	af00      	add	r7, sp, #0
    282e:	f04f 0320 	mov.w	r3, #32
    2832:	f383 8811 	msr	BASEPRI, r3
    2836:	f3bf 8f6f 	isb	sy
    283a:	f3bf 8f4f 	dsb	sy
    283e:	607b      	str	r3, [r7, #4]
    2840:	f000 fc34 	bl	30ac <xTaskIncrementTick>
    2844:	4603      	mov	r3, r0
    2846:	2b00      	cmp	r3, #0
    2848:	d003      	beq.n	2852 <SysTick_Handler+0x2a>
    284a:	4b06      	ldr	r3, [pc, #24]	; (2864 <SysTick_Handler+0x3c>)
    284c:	f04f 5280 	mov.w	r2, #268435456	; 0x10000000
    2850:	601a      	str	r2, [r3, #0]
    2852:	2300      	movs	r3, #0
    2854:	603b      	str	r3, [r7, #0]
    2856:	683b      	ldr	r3, [r7, #0]
    2858:	f383 8811 	msr	BASEPRI, r3
    285c:	bf00      	nop
    285e:	3708      	adds	r7, #8
    2860:	46bd      	mov	sp, r7
    2862:	bd80      	pop	{r7, pc}
    2864:	e000ed04 	.word	0xe000ed04

00002868 <vPortEnableVFP>:
    2868:	f8df 000c 	ldr.w	r0, [pc, #12]	; 2878 <vPortEnableVFP+0x10>
    286c:	6801      	ldr	r1, [r0, #0]
    286e:	f441 0170 	orr.w	r1, r1, #15728640	; 0xf00000
    2872:	6001      	str	r1, [r0, #0]
    2874:	4770      	bx	lr
    2876:	bf00      	nop
    2878:	e000ed88 	.word	0xe000ed88

0000287c <vPortValidateInterruptPriority>:
    287c:	b480      	push	{r7}
    287e:	b085      	sub	sp, #20
    2880:	af00      	add	r7, sp, #0
    2882:	f3ef 8305 	mrs	r3, IPSR
    2886:	60fb      	str	r3, [r7, #12]
    2888:	68fb      	ldr	r3, [r7, #12]
    288a:	2b0f      	cmp	r3, #15
    288c:	d913      	bls.n	28b6 <vPortValidateInterruptPriority+0x3a>
    288e:	4a16      	ldr	r2, [pc, #88]	; (28e8 <vPortValidateInterruptPriority+0x6c>)
    2890:	68fb      	ldr	r3, [r7, #12]
    2892:	4413      	add	r3, r2
    2894:	781b      	ldrb	r3, [r3, #0]
    2896:	72fb      	strb	r3, [r7, #11]
    2898:	4b14      	ldr	r3, [pc, #80]	; (28ec <vPortValidateInterruptPriority+0x70>)
    289a:	781b      	ldrb	r3, [r3, #0]
    289c:	7afa      	ldrb	r2, [r7, #11]
    289e:	429a      	cmp	r2, r3
    28a0:	d209      	bcs.n	28b6 <vPortValidateInterruptPriority+0x3a>
    28a2:	f04f 0320 	mov.w	r3, #32
    28a6:	f383 8811 	msr	BASEPRI, r3
    28aa:	f3bf 8f6f 	isb	sy
    28ae:	f3bf 8f4f 	dsb	sy
    28b2:	607b      	str	r3, [r7, #4]
    28b4:	e7fe      	b.n	28b4 <vPortValidateInterruptPriority+0x38>
    28b6:	4b0e      	ldr	r3, [pc, #56]	; (28f0 <vPortValidateInterruptPriority+0x74>)
    28b8:	681b      	ldr	r3, [r3, #0]
    28ba:	f403 62e0 	and.w	r2, r3, #1792	; 0x700
    28be:	4b0d      	ldr	r3, [pc, #52]	; (28f4 <vPortValidateInterruptPriority+0x78>)
    28c0:	681b      	ldr	r3, [r3, #0]
    28c2:	429a      	cmp	r2, r3
    28c4:	d909      	bls.n	28da <vPortValidateInterruptPriority+0x5e>
    28c6:	f04f 0320 	mov.w	r3, #32
    28ca:	f383 8811 	msr	BASEPRI, r3
    28ce:	f3bf 8f6f 	isb	sy
    28d2:	f3bf 8f4f 	dsb	sy
    28d6:	603b      	str	r3, [r7, #0]
    28d8:	e7fe      	b.n	28d8 <vPortValidateInterruptPriority+0x5c>
    28da:	bf00      	nop
    28dc:	3714      	adds	r7, #20
    28de:	46bd      	mov	sp, r7
    28e0:	f85d 7b04 	ldr.w	r7, [sp], #4
    28e4:	4770      	bx	lr
    28e6:	bf00      	nop
    28e8:	e000e3f0 	.word	0xe000e3f0
    28ec:	20002aa0 	.word	0x20002aa0
    28f0:	e000ed0c 	.word	0xe000ed0c
    28f4:	2000285c 	.word	0x2000285c

000028f8 <xQueueGenericReset>:
    28f8:	b580      	push	{r7, lr}
    28fa:	b084      	sub	sp, #16
    28fc:	af00      	add	r7, sp, #0
    28fe:	6078      	str	r0, [r7, #4]
    2900:	6039      	str	r1, [r7, #0]
    2902:	687b      	ldr	r3, [r7, #4]
    2904:	60fb      	str	r3, [r7, #12]
    2906:	68fb      	ldr	r3, [r7, #12]
    2908:	2b00      	cmp	r3, #0
    290a:	d109      	bne.n	2920 <xQueueGenericReset+0x28>
    290c:	f04f 0320 	mov.w	r3, #32
    2910:	f383 8811 	msr	BASEPRI, r3
    2914:	f3bf 8f6f 	isb	sy
    2918:	f3bf 8f4f 	dsb	sy
    291c:	60bb      	str	r3, [r7, #8]
    291e:	e7fe      	b.n	291e <xQueueGenericReset+0x26>
    2920:	f7ff ff2c 	bl	277c <vPortEnterCritical>
    2924:	68fb      	ldr	r3, [r7, #12]
    2926:	681a      	ldr	r2, [r3, #0]
    2928:	68fb      	ldr	r3, [r7, #12]
    292a:	6bdb      	ldr	r3, [r3, #60]	; 0x3c
    292c:	68f9      	ldr	r1, [r7, #12]
    292e:	6c09      	ldr	r1, [r1, #64]	; 0x40
    2930:	fb01 f303 	mul.w	r3, r1, r3
    2934:	441a      	add	r2, r3
    2936:	68fb      	ldr	r3, [r7, #12]
    2938:	605a      	str	r2, [r3, #4]
    293a:	68fb      	ldr	r3, [r7, #12]
    293c:	2200      	movs	r2, #0
    293e:	639a      	str	r2, [r3, #56]	; 0x38
    2940:	68fb      	ldr	r3, [r7, #12]
    2942:	681a      	ldr	r2, [r3, #0]
    2944:	68fb      	ldr	r3, [r7, #12]
    2946:	609a      	str	r2, [r3, #8]
    2948:	68fb      	ldr	r3, [r7, #12]
    294a:	681a      	ldr	r2, [r3, #0]
    294c:	68fb      	ldr	r3, [r7, #12]
    294e:	6bdb      	ldr	r3, [r3, #60]	; 0x3c
    2950:	3b01      	subs	r3, #1
    2952:	68f9      	ldr	r1, [r7, #12]
    2954:	6c09      	ldr	r1, [r1, #64]	; 0x40
    2956:	fb01 f303 	mul.w	r3, r1, r3
    295a:	441a      	add	r2, r3
    295c:	68fb      	ldr	r3, [r7, #12]
    295e:	60da      	str	r2, [r3, #12]
    2960:	68fb      	ldr	r3, [r7, #12]
    2962:	22ff      	movs	r2, #255	; 0xff
    2964:	f883 2044 	strb.w	r2, [r3, #68]	; 0x44
    2968:	68fb      	ldr	r3, [r7, #12]
    296a:	22ff      	movs	r2, #255	; 0xff
    296c:	f883 2045 	strb.w	r2, [r3, #69]	; 0x45
    2970:	683b      	ldr	r3, [r7, #0]
    2972:	2b00      	cmp	r3, #0
    2974:	d114      	bne.n	29a0 <xQueueGenericReset+0xa8>
    2976:	68fb      	ldr	r3, [r7, #12]
    2978:	691b      	ldr	r3, [r3, #16]
    297a:	2b00      	cmp	r3, #0
    297c:	d01a      	beq.n	29b4 <xQueueGenericReset+0xbc>
    297e:	68fb      	ldr	r3, [r7, #12]
    2980:	3310      	adds	r3, #16
    2982:	4618      	mov	r0, r3
    2984:	f000 fce6 	bl	3354 <xTaskRemoveFromEventList>
    2988:	4603      	mov	r3, r0
    298a:	2b00      	cmp	r3, #0
    298c:	d012      	beq.n	29b4 <xQueueGenericReset+0xbc>
    298e:	4b0d      	ldr	r3, [pc, #52]	; (29c4 <xQueueGenericReset+0xcc>)
    2990:	f04f 5280 	mov.w	r2, #268435456	; 0x10000000
    2994:	601a      	str	r2, [r3, #0]
    2996:	f3bf 8f4f 	dsb	sy
    299a:	f3bf 8f6f 	isb	sy
    299e:	e009      	b.n	29b4 <xQueueGenericReset+0xbc>
    29a0:	68fb      	ldr	r3, [r7, #12]
    29a2:	3310      	adds	r3, #16
    29a4:	4618      	mov	r0, r3
    29a6:	f002 fa96 	bl	4ed6 <vListInitialise>
    29aa:	68fb      	ldr	r3, [r7, #12]
    29ac:	3324      	adds	r3, #36	; 0x24
    29ae:	4618      	mov	r0, r3
    29b0:	f002 fa91 	bl	4ed6 <vListInitialise>
    29b4:	f7ff ff10 	bl	27d8 <vPortExitCritical>
    29b8:	2301      	movs	r3, #1
    29ba:	4618      	mov	r0, r3
    29bc:	3710      	adds	r7, #16
    29be:	46bd      	mov	sp, r7
    29c0:	bd80      	pop	{r7, pc}
    29c2:	bf00      	nop
    29c4:	e000ed04 	.word	0xe000ed04

000029c8 <xQueueGenericSend>:
    29c8:	b580      	push	{r7, lr}
    29ca:	b08e      	sub	sp, #56	; 0x38
    29cc:	af00      	add	r7, sp, #0
    29ce:	60f8      	str	r0, [r7, #12]
    29d0:	60b9      	str	r1, [r7, #8]
    29d2:	607a      	str	r2, [r7, #4]
    29d4:	603b      	str	r3, [r7, #0]
    29d6:	2300      	movs	r3, #0
    29d8:	637b      	str	r3, [r7, #52]	; 0x34
    29da:	68fb      	ldr	r3, [r7, #12]
    29dc:	633b      	str	r3, [r7, #48]	; 0x30
    29de:	6b3b      	ldr	r3, [r7, #48]	; 0x30
    29e0:	2b00      	cmp	r3, #0
    29e2:	d109      	bne.n	29f8 <xQueueGenericSend+0x30>
    29e4:	f04f 0320 	mov.w	r3, #32
    29e8:	f383 8811 	msr	BASEPRI, r3
    29ec:	f3bf 8f6f 	isb	sy
    29f0:	f3bf 8f4f 	dsb	sy
    29f4:	62bb      	str	r3, [r7, #40]	; 0x28
    29f6:	e7fe      	b.n	29f6 <xQueueGenericSend+0x2e>
    29f8:	68bb      	ldr	r3, [r7, #8]
    29fa:	2b00      	cmp	r3, #0
    29fc:	d103      	bne.n	2a06 <xQueueGenericSend+0x3e>
    29fe:	6b3b      	ldr	r3, [r7, #48]	; 0x30
    2a00:	6c1b      	ldr	r3, [r3, #64]	; 0x40
    2a02:	2b00      	cmp	r3, #0
    2a04:	d101      	bne.n	2a0a <xQueueGenericSend+0x42>
    2a06:	2301      	movs	r3, #1
    2a08:	e000      	b.n	2a0c <xQueueGenericSend+0x44>
    2a0a:	2300      	movs	r3, #0
    2a0c:	2b00      	cmp	r3, #0
    2a0e:	d109      	bne.n	2a24 <xQueueGenericSend+0x5c>
    2a10:	f04f 0320 	mov.w	r3, #32
    2a14:	f383 8811 	msr	BASEPRI, r3
    2a18:	f3bf 8f6f 	isb	sy
    2a1c:	f3bf 8f4f 	dsb	sy
    2a20:	627b      	str	r3, [r7, #36]	; 0x24
    2a22:	e7fe      	b.n	2a22 <xQueueGenericSend+0x5a>
    2a24:	683b      	ldr	r3, [r7, #0]
    2a26:	2b02      	cmp	r3, #2
    2a28:	d103      	bne.n	2a32 <xQueueGenericSend+0x6a>
    2a2a:	6b3b      	ldr	r3, [r7, #48]	; 0x30
    2a2c:	6bdb      	ldr	r3, [r3, #60]	; 0x3c
    2a2e:	2b01      	cmp	r3, #1
    2a30:	d101      	bne.n	2a36 <xQueueGenericSend+0x6e>
    2a32:	2301      	movs	r3, #1
    2a34:	e000      	b.n	2a38 <xQueueGenericSend+0x70>
    2a36:	2300      	movs	r3, #0
    2a38:	2b00      	cmp	r3, #0
    2a3a:	d109      	bne.n	2a50 <xQueueGenericSend+0x88>
    2a3c:	f04f 0320 	mov.w	r3, #32
    2a40:	f383 8811 	msr	BASEPRI, r3
    2a44:	f3bf 8f6f 	isb	sy
    2a48:	f3bf 8f4f 	dsb	sy
    2a4c:	623b      	str	r3, [r7, #32]
    2a4e:	e7fe      	b.n	2a4e <xQueueGenericSend+0x86>
    2a50:	f000 fe0e 	bl	3670 <xTaskGetSchedulerState>
    2a54:	4603      	mov	r3, r0
    2a56:	2b00      	cmp	r3, #0
    2a58:	d102      	bne.n	2a60 <xQueueGenericSend+0x98>
    2a5a:	687b      	ldr	r3, [r7, #4]
    2a5c:	2b00      	cmp	r3, #0
    2a5e:	d101      	bne.n	2a64 <xQueueGenericSend+0x9c>
    2a60:	2301      	movs	r3, #1
    2a62:	e000      	b.n	2a66 <xQueueGenericSend+0x9e>
    2a64:	2300      	movs	r3, #0
    2a66:	2b00      	cmp	r3, #0
    2a68:	d109      	bne.n	2a7e <xQueueGenericSend+0xb6>
    2a6a:	f04f 0320 	mov.w	r3, #32
    2a6e:	f383 8811 	msr	BASEPRI, r3
    2a72:	f3bf 8f6f 	isb	sy
    2a76:	f3bf 8f4f 	dsb	sy
    2a7a:	61fb      	str	r3, [r7, #28]
    2a7c:	e7fe      	b.n	2a7c <xQueueGenericSend+0xb4>
    2a7e:	f7ff fe7d 	bl	277c <vPortEnterCritical>
    2a82:	6b3b      	ldr	r3, [r7, #48]	; 0x30
    2a84:	6b9a      	ldr	r2, [r3, #56]	; 0x38
    2a86:	6b3b      	ldr	r3, [r7, #48]	; 0x30
    2a88:	6bdb      	ldr	r3, [r3, #60]	; 0x3c
    2a8a:	429a      	cmp	r2, r3
    2a8c:	d302      	bcc.n	2a94 <xQueueGenericSend+0xcc>
    2a8e:	683b      	ldr	r3, [r7, #0]
    2a90:	2b02      	cmp	r3, #2
    2a92:	d129      	bne.n	2ae8 <xQueueGenericSend+0x120>
    2a94:	683a      	ldr	r2, [r7, #0]
    2a96:	68b9      	ldr	r1, [r7, #8]
    2a98:	6b38      	ldr	r0, [r7, #48]	; 0x30
    2a9a:	f002 fbc0 	bl	521e <prvCopyDataToQueue>
    2a9e:	62f8      	str	r0, [r7, #44]	; 0x2c
    2aa0:	6b3b      	ldr	r3, [r7, #48]	; 0x30
    2aa2:	6a5b      	ldr	r3, [r3, #36]	; 0x24
    2aa4:	2b00      	cmp	r3, #0
    2aa6:	d010      	beq.n	2aca <xQueueGenericSend+0x102>
    2aa8:	6b3b      	ldr	r3, [r7, #48]	; 0x30
    2aaa:	3324      	adds	r3, #36	; 0x24
    2aac:	4618      	mov	r0, r3
    2aae:	f000 fc51 	bl	3354 <xTaskRemoveFromEventList>
    2ab2:	4603      	mov	r3, r0
    2ab4:	2b00      	cmp	r3, #0
    2ab6:	d013      	beq.n	2ae0 <xQueueGenericSend+0x118>
    2ab8:	4b3f      	ldr	r3, [pc, #252]	; (2bb8 <xQueueGenericSend+0x1f0>)
    2aba:	f04f 5280 	mov.w	r2, #268435456	; 0x10000000
    2abe:	601a      	str	r2, [r3, #0]
    2ac0:	f3bf 8f4f 	dsb	sy
    2ac4:	f3bf 8f6f 	isb	sy
    2ac8:	e00a      	b.n	2ae0 <xQueueGenericSend+0x118>
    2aca:	6afb      	ldr	r3, [r7, #44]	; 0x2c
    2acc:	2b00      	cmp	r3, #0
    2ace:	d007      	beq.n	2ae0 <xQueueGenericSend+0x118>
    2ad0:	4b39      	ldr	r3, [pc, #228]	; (2bb8 <xQueueGenericSend+0x1f0>)
    2ad2:	f04f 5280 	mov.w	r2, #268435456	; 0x10000000
    2ad6:	601a      	str	r2, [r3, #0]
    2ad8:	f3bf 8f4f 	dsb	sy
    2adc:	f3bf 8f6f 	isb	sy
    2ae0:	f7ff fe7a 	bl	27d8 <vPortExitCritical>
    2ae4:	2301      	movs	r3, #1
    2ae6:	e063      	b.n	2bb0 <xQueueGenericSend+0x1e8>
    2ae8:	687b      	ldr	r3, [r7, #4]
    2aea:	2b00      	cmp	r3, #0
    2aec:	d103      	bne.n	2af6 <xQueueGenericSend+0x12e>
    2aee:	f7ff fe73 	bl	27d8 <vPortExitCritical>
    2af2:	2300      	movs	r3, #0
    2af4:	e05c      	b.n	2bb0 <xQueueGenericSend+0x1e8>
    2af6:	6b7b      	ldr	r3, [r7, #52]	; 0x34
    2af8:	2b00      	cmp	r3, #0
    2afa:	d106      	bne.n	2b0a <xQueueGenericSend+0x142>
    2afc:	f107 0314 	add.w	r3, r7, #20
    2b00:	4618      	mov	r0, r3
    2b02:	f000 fc89 	bl	3418 <vTaskInternalSetTimeOutState>
    2b06:	2301      	movs	r3, #1
    2b08:	637b      	str	r3, [r7, #52]	; 0x34
    2b0a:	f7ff fe65 	bl	27d8 <vPortExitCritical>
    2b0e:	f000 fa13 	bl	2f38 <vTaskSuspendAll>
    2b12:	f7ff fe33 	bl	277c <vPortEnterCritical>
    2b16:	6b3b      	ldr	r3, [r7, #48]	; 0x30
    2b18:	f893 3044 	ldrb.w	r3, [r3, #68]	; 0x44
    2b1c:	b25b      	sxtb	r3, r3
    2b1e:	f1b3 3fff 	cmp.w	r3, #4294967295	; 0xffffffff
    2b22:	d103      	bne.n	2b2c <xQueueGenericSend+0x164>
    2b24:	6b3b      	ldr	r3, [r7, #48]	; 0x30
    2b26:	2200      	movs	r2, #0
    2b28:	f883 2044 	strb.w	r2, [r3, #68]	; 0x44
    2b2c:	6b3b      	ldr	r3, [r7, #48]	; 0x30
    2b2e:	f893 3045 	ldrb.w	r3, [r3, #69]	; 0x45
    2b32:	b25b      	sxtb	r3, r3
    2b34:	f1b3 3fff 	cmp.w	r3, #4294967295	; 0xffffffff
    2b38:	d103      	bne.n	2b42 <xQueueGenericSend+0x17a>
    2b3a:	6b3b      	ldr	r3, [r7, #48]	; 0x30
    2b3c:	2200      	movs	r2, #0
    2b3e:	f883 2045 	strb.w	r2, [r3, #69]	; 0x45
    2b42:	f7ff fe49 	bl	27d8 <vPortExitCritical>
    2b46:	1d3a      	adds	r2, r7, #4
    2b48:	f107 0314 	add.w	r3, r7, #20
    2b4c:	4611      	mov	r1, r2
    2b4e:	4618      	mov	r0, r3
    2b50:	f000 fc78 	bl	3444 <xTaskCheckForTimeOut>
    2b54:	4603      	mov	r3, r0
    2b56:	2b00      	cmp	r3, #0
    2b58:	d124      	bne.n	2ba4 <xQueueGenericSend+0x1dc>
    2b5a:	6b38      	ldr	r0, [r7, #48]	; 0x30
    2b5c:	f002 fc57 	bl	540e <prvIsQueueFull>
    2b60:	4603      	mov	r3, r0
    2b62:	2b00      	cmp	r3, #0
    2b64:	d018      	beq.n	2b98 <xQueueGenericSend+0x1d0>
    2b66:	6b3b      	ldr	r3, [r7, #48]	; 0x30
    2b68:	3310      	adds	r3, #16
    2b6a:	687a      	ldr	r2, [r7, #4]
    2b6c:	4611      	mov	r1, r2
    2b6e:	4618      	mov	r0, r3
    2b70:	f000 fba2 	bl	32b8 <vTaskPlaceOnEventList>
    2b74:	6b38      	ldr	r0, [r7, #48]	; 0x30
    2b76:	f002 fbe2 	bl	533e <prvUnlockQueue>
    2b7a:	f000 f9eb 	bl	2f54 <xTaskResumeAll>
    2b7e:	4603      	mov	r3, r0
    2b80:	2b00      	cmp	r3, #0
    2b82:	f47f af7c 	bne.w	2a7e <xQueueGenericSend+0xb6>
    2b86:	4b0c      	ldr	r3, [pc, #48]	; (2bb8 <xQueueGenericSend+0x1f0>)
    2b88:	f04f 5280 	mov.w	r2, #268435456	; 0x10000000
    2b8c:	601a      	str	r2, [r3, #0]
    2b8e:	f3bf 8f4f 	dsb	sy
    2b92:	f3bf 8f6f 	isb	sy
    2b96:	e772      	b.n	2a7e <xQueueGenericSend+0xb6>
    2b98:	6b38      	ldr	r0, [r7, #48]	; 0x30
    2b9a:	f002 fbd0 	bl	533e <prvUnlockQueue>
    2b9e:	f000 f9d9 	bl	2f54 <xTaskResumeAll>
    2ba2:	e76c      	b.n	2a7e <xQueueGenericSend+0xb6>
    2ba4:	6b38      	ldr	r0, [r7, #48]	; 0x30
    2ba6:	f002 fbca 	bl	533e <prvUnlockQueue>
    2baa:	f000 f9d3 	bl	2f54 <xTaskResumeAll>
    2bae:	2300      	movs	r3, #0
    2bb0:	4618      	mov	r0, r3
    2bb2:	3738      	adds	r7, #56	; 0x38
    2bb4:	46bd      	mov	sp, r7
    2bb6:	bd80      	pop	{r7, pc}
    2bb8:	e000ed04 	.word	0xe000ed04

00002bbc <xQueueReceive>:
    2bbc:	b580      	push	{r7, lr}
    2bbe:	b08c      	sub	sp, #48	; 0x30
    2bc0:	af00      	add	r7, sp, #0
    2bc2:	60f8      	str	r0, [r7, #12]
    2bc4:	60b9      	str	r1, [r7, #8]
    2bc6:	607a      	str	r2, [r7, #4]
    2bc8:	2300      	movs	r3, #0
    2bca:	62fb      	str	r3, [r7, #44]	; 0x2c
    2bcc:	68fb      	ldr	r3, [r7, #12]
    2bce:	62bb      	str	r3, [r7, #40]	; 0x28
    2bd0:	6abb      	ldr	r3, [r7, #40]	; 0x28
    2bd2:	2b00      	cmp	r3, #0
    2bd4:	d109      	bne.n	2bea <xQueueReceive+0x2e>
    2bd6:	f04f 0320 	mov.w	r3, #32
    2bda:	f383 8811 	msr	BASEPRI, r3
    2bde:	f3bf 8f6f 	isb	sy
    2be2:	f3bf 8f4f 	dsb	sy
    2be6:	623b      	str	r3, [r7, #32]
    2be8:	e7fe      	b.n	2be8 <xQueueReceive+0x2c>
    2bea:	68bb      	ldr	r3, [r7, #8]
    2bec:	2b00      	cmp	r3, #0
    2bee:	d103      	bne.n	2bf8 <xQueueReceive+0x3c>
    2bf0:	6abb      	ldr	r3, [r7, #40]	; 0x28
    2bf2:	6c1b      	ldr	r3, [r3, #64]	; 0x40
    2bf4:	2b00      	cmp	r3, #0
    2bf6:	d101      	bne.n	2bfc <xQueueReceive+0x40>
    2bf8:	2301      	movs	r3, #1
    2bfa:	e000      	b.n	2bfe <xQueueReceive+0x42>
    2bfc:	2300      	movs	r3, #0
    2bfe:	2b00      	cmp	r3, #0
    2c00:	d109      	bne.n	2c16 <xQueueReceive+0x5a>
    2c02:	f04f 0320 	mov.w	r3, #32
    2c06:	f383 8811 	msr	BASEPRI, r3
    2c0a:	f3bf 8f6f 	isb	sy
    2c0e:	f3bf 8f4f 	dsb	sy
    2c12:	61fb      	str	r3, [r7, #28]
    2c14:	e7fe      	b.n	2c14 <xQueueReceive+0x58>
    2c16:	f000 fd2b 	bl	3670 <xTaskGetSchedulerState>
    2c1a:	4603      	mov	r3, r0
    2c1c:	2b00      	cmp	r3, #0
    2c1e:	d102      	bne.n	2c26 <xQueueReceive+0x6a>
    2c20:	687b      	ldr	r3, [r7, #4]
    2c22:	2b00      	cmp	r3, #0
    2c24:	d101      	bne.n	2c2a <xQueueReceive+0x6e>
    2c26:	2301      	movs	r3, #1
    2c28:	e000      	b.n	2c2c <xQueueReceive+0x70>
    2c2a:	2300      	movs	r3, #0
    2c2c:	2b00      	cmp	r3, #0
    2c2e:	d109      	bne.n	2c44 <xQueueReceive+0x88>
    2c30:	f04f 0320 	mov.w	r3, #32
    2c34:	f383 8811 	msr	BASEPRI, r3
    2c38:	f3bf 8f6f 	isb	sy
    2c3c:	f3bf 8f4f 	dsb	sy
    2c40:	61bb      	str	r3, [r7, #24]
    2c42:	e7fe      	b.n	2c42 <xQueueReceive+0x86>
    2c44:	f7ff fd9a 	bl	277c <vPortEnterCritical>
    2c48:	6abb      	ldr	r3, [r7, #40]	; 0x28
    2c4a:	6b9b      	ldr	r3, [r3, #56]	; 0x38
    2c4c:	627b      	str	r3, [r7, #36]	; 0x24
    2c4e:	6a7b      	ldr	r3, [r7, #36]	; 0x24
    2c50:	2b00      	cmp	r3, #0
    2c52:	d01f      	beq.n	2c94 <xQueueReceive+0xd8>
    2c54:	68b9      	ldr	r1, [r7, #8]
    2c56:	6ab8      	ldr	r0, [r7, #40]	; 0x28
    2c58:	f002 fb4b 	bl	52f2 <prvCopyDataFromQueue>
    2c5c:	6a7b      	ldr	r3, [r7, #36]	; 0x24
    2c5e:	1e5a      	subs	r2, r3, #1
    2c60:	6abb      	ldr	r3, [r7, #40]	; 0x28
    2c62:	639a      	str	r2, [r3, #56]	; 0x38
    2c64:	6abb      	ldr	r3, [r7, #40]	; 0x28
    2c66:	691b      	ldr	r3, [r3, #16]
    2c68:	2b00      	cmp	r3, #0
    2c6a:	d00f      	beq.n	2c8c <xQueueReceive+0xd0>
    2c6c:	6abb      	ldr	r3, [r7, #40]	; 0x28
    2c6e:	3310      	adds	r3, #16
    2c70:	4618      	mov	r0, r3
    2c72:	f000 fb6f 	bl	3354 <xTaskRemoveFromEventList>
    2c76:	4603      	mov	r3, r0
    2c78:	2b00      	cmp	r3, #0
    2c7a:	d007      	beq.n	2c8c <xQueueReceive+0xd0>
    2c7c:	4b3c      	ldr	r3, [pc, #240]	; (2d70 <xQueueReceive+0x1b4>)
    2c7e:	f04f 5280 	mov.w	r2, #268435456	; 0x10000000
    2c82:	601a      	str	r2, [r3, #0]
    2c84:	f3bf 8f4f 	dsb	sy
    2c88:	f3bf 8f6f 	isb	sy
    2c8c:	f7ff fda4 	bl	27d8 <vPortExitCritical>
    2c90:	2301      	movs	r3, #1
    2c92:	e069      	b.n	2d68 <xQueueReceive+0x1ac>
    2c94:	687b      	ldr	r3, [r7, #4]
    2c96:	2b00      	cmp	r3, #0
    2c98:	d103      	bne.n	2ca2 <xQueueReceive+0xe6>
    2c9a:	f7ff fd9d 	bl	27d8 <vPortExitCritical>
    2c9e:	2300      	movs	r3, #0
    2ca0:	e062      	b.n	2d68 <xQueueReceive+0x1ac>
    2ca2:	6afb      	ldr	r3, [r7, #44]	; 0x2c
    2ca4:	2b00      	cmp	r3, #0
    2ca6:	d106      	bne.n	2cb6 <xQueueReceive+0xfa>
    2ca8:	f107 0310 	add.w	r3, r7, #16
    2cac:	4618      	mov	r0, r3
    2cae:	f000 fbb3 	bl	3418 <vTaskInternalSetTimeOutState>
    2cb2:	2301      	movs	r3, #1
    2cb4:	62fb      	str	r3, [r7, #44]	; 0x2c
    2cb6:	f7ff fd8f 	bl	27d8 <vPortExitCritical>
    2cba:	f000 f93d 	bl	2f38 <vTaskSuspendAll>
    2cbe:	f7ff fd5d 	bl	277c <vPortEnterCritical>
    2cc2:	6abb      	ldr	r3, [r7, #40]	; 0x28
    2cc4:	f893 3044 	ldrb.w	r3, [r3, #68]	; 0x44
    2cc8:	b25b      	sxtb	r3, r3
    2cca:	f1b3 3fff 	cmp.w	r3, #4294967295	; 0xffffffff
    2cce:	d103      	bne.n	2cd8 <xQueueReceive+0x11c>
    2cd0:	6abb      	ldr	r3, [r7, #40]	; 0x28
    2cd2:	2200      	movs	r2, #0
    2cd4:	f883 2044 	strb.w	r2, [r3, #68]	; 0x44
    2cd8:	6abb      	ldr	r3, [r7, #40]	; 0x28
    2cda:	f893 3045 	ldrb.w	r3, [r3, #69]	; 0x45
    2cde:	b25b      	sxtb	r3, r3
    2ce0:	f1b3 3fff 	cmp.w	r3, #4294967295	; 0xffffffff
    2ce4:	d103      	bne.n	2cee <xQueueReceive+0x132>
    2ce6:	6abb      	ldr	r3, [r7, #40]	; 0x28
    2ce8:	2200      	movs	r2, #0
    2cea:	f883 2045 	strb.w	r2, [r3, #69]	; 0x45
    2cee:	f7ff fd73 	bl	27d8 <vPortExitCritical>
    2cf2:	1d3a      	adds	r2, r7, #4
    2cf4:	f107 0310 	add.w	r3, r7, #16
    2cf8:	4611      	mov	r1, r2
    2cfa:	4618      	mov	r0, r3
    2cfc:	f000 fba2 	bl	3444 <xTaskCheckForTimeOut>
    2d00:	4603      	mov	r3, r0
    2d02:	2b00      	cmp	r3, #0
    2d04:	d123      	bne.n	2d4e <xQueueReceive+0x192>
    2d06:	6ab8      	ldr	r0, [r7, #40]	; 0x28
    2d08:	f002 fb6b 	bl	53e2 <prvIsQueueEmpty>
    2d0c:	4603      	mov	r3, r0
    2d0e:	2b00      	cmp	r3, #0
    2d10:	d017      	beq.n	2d42 <xQueueReceive+0x186>
    2d12:	6abb      	ldr	r3, [r7, #40]	; 0x28
    2d14:	3324      	adds	r3, #36	; 0x24
    2d16:	687a      	ldr	r2, [r7, #4]
    2d18:	4611      	mov	r1, r2
    2d1a:	4618      	mov	r0, r3
    2d1c:	f000 facc 	bl	32b8 <vTaskPlaceOnEventList>
    2d20:	6ab8      	ldr	r0, [r7, #40]	; 0x28
    2d22:	f002 fb0c 	bl	533e <prvUnlockQueue>
    2d26:	f000 f915 	bl	2f54 <xTaskResumeAll>
    2d2a:	4603      	mov	r3, r0
    2d2c:	2b00      	cmp	r3, #0
    2d2e:	d189      	bne.n	2c44 <xQueueReceive+0x88>
    2d30:	4b0f      	ldr	r3, [pc, #60]	; (2d70 <xQueueReceive+0x1b4>)
    2d32:	f04f 5280 	mov.w	r2, #268435456	; 0x10000000
    2d36:	601a      	str	r2, [r3, #0]
    2d38:	f3bf 8f4f 	dsb	sy
    2d3c:	f3bf 8f6f 	isb	sy
    2d40:	e780      	b.n	2c44 <xQueueReceive+0x88>
    2d42:	6ab8      	ldr	r0, [r7, #40]	; 0x28
    2d44:	f002 fafb 	bl	533e <prvUnlockQueue>
    2d48:	f000 f904 	bl	2f54 <xTaskResumeAll>
    2d4c:	e77a      	b.n	2c44 <xQueueReceive+0x88>
    2d4e:	6ab8      	ldr	r0, [r7, #40]	; 0x28
    2d50:	f002 faf5 	bl	533e <prvUnlockQueue>
    2d54:	f000 f8fe 	bl	2f54 <xTaskResumeAll>
    2d58:	6ab8      	ldr	r0, [r7, #40]	; 0x28
    2d5a:	f002 fb42 	bl	53e2 <prvIsQueueEmpty>
    2d5e:	4603      	mov	r3, r0
    2d60:	2b00      	cmp	r3, #0
    2d62:	f43f af6f 	beq.w	2c44 <xQueueReceive+0x88>
    2d66:	2300      	movs	r3, #0
    2d68:	4618      	mov	r0, r3
    2d6a:	3730      	adds	r7, #48	; 0x30
    2d6c:	46bd      	mov	sp, r7
    2d6e:	bd80      	pop	{r7, pc}
    2d70:	e000ed04 	.word	0xe000ed04

00002d74 <vQueueAddToRegistry>:
    2d74:	b480      	push	{r7}
    2d76:	b085      	sub	sp, #20
    2d78:	af00      	add	r7, sp, #0
    2d7a:	6078      	str	r0, [r7, #4]
    2d7c:	6039      	str	r1, [r7, #0]
    2d7e:	2300      	movs	r3, #0
    2d80:	60fb      	str	r3, [r7, #12]
    2d82:	e014      	b.n	2dae <vQueueAddToRegistry+0x3a>
    2d84:	4a0e      	ldr	r2, [pc, #56]	; (2dc0 <vQueueAddToRegistry+0x4c>)
    2d86:	68fb      	ldr	r3, [r7, #12]
    2d88:	f852 3033 	ldr.w	r3, [r2, r3, lsl #3]
    2d8c:	2b00      	cmp	r3, #0
    2d8e:	d10b      	bne.n	2da8 <vQueueAddToRegistry+0x34>
    2d90:	490b      	ldr	r1, [pc, #44]	; (2dc0 <vQueueAddToRegistry+0x4c>)
    2d92:	68fb      	ldr	r3, [r7, #12]
    2d94:	683a      	ldr	r2, [r7, #0]
    2d96:	f841 2033 	str.w	r2, [r1, r3, lsl #3]
    2d9a:	4a09      	ldr	r2, [pc, #36]	; (2dc0 <vQueueAddToRegistry+0x4c>)
    2d9c:	68fb      	ldr	r3, [r7, #12]
    2d9e:	00db      	lsls	r3, r3, #3
    2da0:	4413      	add	r3, r2
    2da2:	687a      	ldr	r2, [r7, #4]
    2da4:	605a      	str	r2, [r3, #4]
    2da6:	e005      	b.n	2db4 <vQueueAddToRegistry+0x40>
    2da8:	68fb      	ldr	r3, [r7, #12]
    2daa:	3301      	adds	r3, #1
    2dac:	60fb      	str	r3, [r7, #12]
    2dae:	68fb      	ldr	r3, [r7, #12]
    2db0:	2b07      	cmp	r3, #7
    2db2:	d9e7      	bls.n	2d84 <vQueueAddToRegistry+0x10>
    2db4:	bf00      	nop
    2db6:	3714      	adds	r7, #20
    2db8:	46bd      	mov	sp, r7
    2dba:	f85d 7b04 	ldr.w	r7, [sp], #4
    2dbe:	4770      	bx	lr
    2dc0:	20002860 	.word	0x20002860

00002dc4 <prvAddNewTaskToReadyList>:
    2dc4:	b580      	push	{r7, lr}
    2dc6:	b082      	sub	sp, #8
    2dc8:	af00      	add	r7, sp, #0
    2dca:	6078      	str	r0, [r7, #4]
    2dcc:	f7ff fcd6 	bl	277c <vPortEnterCritical>
    2dd0:	4b2c      	ldr	r3, [pc, #176]	; (2e84 <prvAddNewTaskToReadyList+0xc0>)
    2dd2:	681b      	ldr	r3, [r3, #0]
    2dd4:	3301      	adds	r3, #1
    2dd6:	4a2b      	ldr	r2, [pc, #172]	; (2e84 <prvAddNewTaskToReadyList+0xc0>)
    2dd8:	6013      	str	r3, [r2, #0]
    2dda:	4b2b      	ldr	r3, [pc, #172]	; (2e88 <prvAddNewTaskToReadyList+0xc4>)
    2ddc:	681b      	ldr	r3, [r3, #0]
    2dde:	2b00      	cmp	r3, #0
    2de0:	d109      	bne.n	2df6 <prvAddNewTaskToReadyList+0x32>
    2de2:	4a29      	ldr	r2, [pc, #164]	; (2e88 <prvAddNewTaskToReadyList+0xc4>)
    2de4:	687b      	ldr	r3, [r7, #4]
    2de6:	6013      	str	r3, [r2, #0]
    2de8:	4b26      	ldr	r3, [pc, #152]	; (2e84 <prvAddNewTaskToReadyList+0xc0>)
    2dea:	681b      	ldr	r3, [r3, #0]
    2dec:	2b01      	cmp	r3, #1
    2dee:	d110      	bne.n	2e12 <prvAddNewTaskToReadyList+0x4e>
    2df0:	f000 fbac 	bl	354c <prvInitialiseTaskLists>
    2df4:	e00d      	b.n	2e12 <prvAddNewTaskToReadyList+0x4e>
    2df6:	4b25      	ldr	r3, [pc, #148]	; (2e8c <prvAddNewTaskToReadyList+0xc8>)
    2df8:	681b      	ldr	r3, [r3, #0]
    2dfa:	2b00      	cmp	r3, #0
    2dfc:	d109      	bne.n	2e12 <prvAddNewTaskToReadyList+0x4e>
    2dfe:	4b22      	ldr	r3, [pc, #136]	; (2e88 <prvAddNewTaskToReadyList+0xc4>)
    2e00:	681b      	ldr	r3, [r3, #0]
    2e02:	6ada      	ldr	r2, [r3, #44]	; 0x2c
    2e04:	687b      	ldr	r3, [r7, #4]
    2e06:	6adb      	ldr	r3, [r3, #44]	; 0x2c
    2e08:	429a      	cmp	r2, r3
    2e0a:	d802      	bhi.n	2e12 <prvAddNewTaskToReadyList+0x4e>
    2e0c:	4a1e      	ldr	r2, [pc, #120]	; (2e88 <prvAddNewTaskToReadyList+0xc4>)
    2e0e:	687b      	ldr	r3, [r7, #4]
    2e10:	6013      	str	r3, [r2, #0]
    2e12:	4b1f      	ldr	r3, [pc, #124]	; (2e90 <prvAddNewTaskToReadyList+0xcc>)
    2e14:	681b      	ldr	r3, [r3, #0]
    2e16:	3301      	adds	r3, #1
    2e18:	4a1d      	ldr	r2, [pc, #116]	; (2e90 <prvAddNewTaskToReadyList+0xcc>)
    2e1a:	6013      	str	r3, [r2, #0]
    2e1c:	4b1c      	ldr	r3, [pc, #112]	; (2e90 <prvAddNewTaskToReadyList+0xcc>)
    2e1e:	681a      	ldr	r2, [r3, #0]
    2e20:	687b      	ldr	r3, [r7, #4]
    2e22:	64da      	str	r2, [r3, #76]	; 0x4c
    2e24:	687b      	ldr	r3, [r7, #4]
    2e26:	6adb      	ldr	r3, [r3, #44]	; 0x2c
    2e28:	2201      	movs	r2, #1
    2e2a:	409a      	lsls	r2, r3
    2e2c:	4b19      	ldr	r3, [pc, #100]	; (2e94 <prvAddNewTaskToReadyList+0xd0>)
    2e2e:	681b      	ldr	r3, [r3, #0]
    2e30:	4313      	orrs	r3, r2
    2e32:	4a18      	ldr	r2, [pc, #96]	; (2e94 <prvAddNewTaskToReadyList+0xd0>)
    2e34:	6013      	str	r3, [r2, #0]
    2e36:	687b      	ldr	r3, [r7, #4]
    2e38:	6ada      	ldr	r2, [r3, #44]	; 0x2c
    2e3a:	4613      	mov	r3, r2
    2e3c:	009b      	lsls	r3, r3, #2
    2e3e:	4413      	add	r3, r2
    2e40:	009b      	lsls	r3, r3, #2
    2e42:	4a15      	ldr	r2, [pc, #84]	; (2e98 <prvAddNewTaskToReadyList+0xd4>)
    2e44:	441a      	add	r2, r3
    2e46:	687b      	ldr	r3, [r7, #4]
    2e48:	3304      	adds	r3, #4
    2e4a:	4619      	mov	r1, r3
    2e4c:	4610      	mov	r0, r2
    2e4e:	f002 f86f 	bl	4f30 <vListInsertEnd>
    2e52:	f7ff fcc1 	bl	27d8 <vPortExitCritical>
    2e56:	4b0d      	ldr	r3, [pc, #52]	; (2e8c <prvAddNewTaskToReadyList+0xc8>)
    2e58:	681b      	ldr	r3, [r3, #0]
    2e5a:	2b00      	cmp	r3, #0
    2e5c:	d00e      	beq.n	2e7c <prvAddNewTaskToReadyList+0xb8>
    2e5e:	4b0a      	ldr	r3, [pc, #40]	; (2e88 <prvAddNewTaskToReadyList+0xc4>)
    2e60:	681b      	ldr	r3, [r3, #0]
    2e62:	6ada      	ldr	r2, [r3, #44]	; 0x2c
    2e64:	687b      	ldr	r3, [r7, #4]
    2e66:	6adb      	ldr	r3, [r3, #44]	; 0x2c
    2e68:	429a      	cmp	r2, r3
    2e6a:	d207      	bcs.n	2e7c <prvAddNewTaskToReadyList+0xb8>
    2e6c:	4b0b      	ldr	r3, [pc, #44]	; (2e9c <prvAddNewTaskToReadyList+0xd8>)
    2e6e:	f04f 5280 	mov.w	r2, #268435456	; 0x10000000
    2e72:	601a      	str	r2, [r3, #0]
    2e74:	f3bf 8f4f 	dsb	sy
    2e78:	f3bf 8f6f 	isb	sy
    2e7c:	bf00      	nop
    2e7e:	3708      	adds	r7, #8
    2e80:	46bd      	mov	sp, r7
    2e82:	bd80      	pop	{r7, pc}
    2e84:	20002978 	.word	0x20002978
    2e88:	200028a0 	.word	0x200028a0
    2e8c:	20002984 	.word	0x20002984
    2e90:	20002994 	.word	0x20002994
    2e94:	20002980 	.word	0x20002980
    2e98:	200028a4 	.word	0x200028a4
    2e9c:	e000ed04 	.word	0xe000ed04

00002ea0 <vTaskStartScheduler>:
    2ea0:	b580      	push	{r7, lr}
    2ea2:	b086      	sub	sp, #24
    2ea4:	af02      	add	r7, sp, #8
    2ea6:	4b1e      	ldr	r3, [pc, #120]	; (2f20 <vTaskStartScheduler+0x80>)
    2ea8:	9301      	str	r3, [sp, #4]
    2eaa:	2300      	movs	r3, #0
    2eac:	9300      	str	r3, [sp, #0]
    2eae:	2300      	movs	r3, #0
    2eb0:	225a      	movs	r2, #90	; 0x5a
    2eb2:	491c      	ldr	r1, [pc, #112]	; (2f24 <vTaskStartScheduler+0x84>)
    2eb4:	481c      	ldr	r0, [pc, #112]	; (2f28 <vTaskStartScheduler+0x88>)
    2eb6:	f002 faf6 	bl	54a6 <xTaskCreate>
    2eba:	60f8      	str	r0, [r7, #12]
    2ebc:	68fb      	ldr	r3, [r7, #12]
    2ebe:	2b01      	cmp	r3, #1
    2ec0:	d102      	bne.n	2ec8 <vTaskStartScheduler+0x28>
    2ec2:	f000 fcdd 	bl	3880 <xTimerCreateTimerTask>
    2ec6:	60f8      	str	r0, [r7, #12]
    2ec8:	68fb      	ldr	r3, [r7, #12]
    2eca:	2b01      	cmp	r3, #1
    2ecc:	d115      	bne.n	2efa <vTaskStartScheduler+0x5a>
    2ece:	f04f 0320 	mov.w	r3, #32
    2ed2:	f383 8811 	msr	BASEPRI, r3
    2ed6:	f3bf 8f6f 	isb	sy
    2eda:	f3bf 8f4f 	dsb	sy
    2ede:	60bb      	str	r3, [r7, #8]
    2ee0:	4b12      	ldr	r3, [pc, #72]	; (2f2c <vTaskStartScheduler+0x8c>)
    2ee2:	f04f 32ff 	mov.w	r2, #4294967295	; 0xffffffff
    2ee6:	601a      	str	r2, [r3, #0]
    2ee8:	4b11      	ldr	r3, [pc, #68]	; (2f30 <vTaskStartScheduler+0x90>)
    2eea:	2201      	movs	r2, #1
    2eec:	601a      	str	r2, [r3, #0]
    2eee:	4b11      	ldr	r3, [pc, #68]	; (2f34 <vTaskStartScheduler+0x94>)
    2ef0:	2200      	movs	r2, #0
    2ef2:	601a      	str	r2, [r3, #0]
    2ef4:	f7ff fba4 	bl	2640 <xPortStartScheduler>
    2ef8:	e00d      	b.n	2f16 <vTaskStartScheduler+0x76>
    2efa:	68fb      	ldr	r3, [r7, #12]
    2efc:	f1b3 3fff 	cmp.w	r3, #4294967295	; 0xffffffff
    2f00:	d109      	bne.n	2f16 <vTaskStartScheduler+0x76>
    2f02:	f04f 0320 	mov.w	r3, #32
    2f06:	f383 8811 	msr	BASEPRI, r3
    2f0a:	f3bf 8f6f 	isb	sy
    2f0e:	f3bf 8f4f 	dsb	sy
    2f12:	607b      	str	r3, [r7, #4]
    2f14:	e7fe      	b.n	2f14 <vTaskStartScheduler+0x74>
    2f16:	bf00      	nop
    2f18:	3710      	adds	r7, #16
    2f1a:	46bd      	mov	sp, r7
    2f1c:	bd80      	pop	{r7, pc}
    2f1e:	bf00      	nop
    2f20:	2000299c 	.word	0x2000299c
    2f24:	00006904 	.word	0x00006904
    2f28:	0000351d 	.word	0x0000351d
    2f2c:	20002998 	.word	0x20002998
    2f30:	20002984 	.word	0x20002984
    2f34:	2000297c 	.word	0x2000297c

00002f38 <vTaskSuspendAll>:
    2f38:	b480      	push	{r7}
    2f3a:	af00      	add	r7, sp, #0
    2f3c:	4b04      	ldr	r3, [pc, #16]	; (2f50 <vTaskSuspendAll+0x18>)
    2f3e:	681b      	ldr	r3, [r3, #0]
    2f40:	3301      	adds	r3, #1
    2f42:	4a03      	ldr	r2, [pc, #12]	; (2f50 <vTaskSuspendAll+0x18>)
    2f44:	6013      	str	r3, [r2, #0]
    2f46:	bf00      	nop
    2f48:	46bd      	mov	sp, r7
    2f4a:	f85d 7b04 	ldr.w	r7, [sp], #4
    2f4e:	4770      	bx	lr
    2f50:	200029a0 	.word	0x200029a0

00002f54 <xTaskResumeAll>:
    2f54:	b580      	push	{r7, lr}
    2f56:	b084      	sub	sp, #16
    2f58:	af00      	add	r7, sp, #0
    2f5a:	2300      	movs	r3, #0
    2f5c:	60fb      	str	r3, [r7, #12]
    2f5e:	2300      	movs	r3, #0
    2f60:	60bb      	str	r3, [r7, #8]
    2f62:	4b41      	ldr	r3, [pc, #260]	; (3068 <xTaskResumeAll+0x114>)
    2f64:	681b      	ldr	r3, [r3, #0]
    2f66:	2b00      	cmp	r3, #0
    2f68:	d109      	bne.n	2f7e <xTaskResumeAll+0x2a>
    2f6a:	f04f 0320 	mov.w	r3, #32
    2f6e:	f383 8811 	msr	BASEPRI, r3
    2f72:	f3bf 8f6f 	isb	sy
    2f76:	f3bf 8f4f 	dsb	sy
    2f7a:	603b      	str	r3, [r7, #0]
    2f7c:	e7fe      	b.n	2f7c <xTaskResumeAll+0x28>
    2f7e:	f7ff fbfd 	bl	277c <vPortEnterCritical>
    2f82:	4b39      	ldr	r3, [pc, #228]	; (3068 <xTaskResumeAll+0x114>)
    2f84:	681b      	ldr	r3, [r3, #0]
    2f86:	3b01      	subs	r3, #1
    2f88:	4a37      	ldr	r2, [pc, #220]	; (3068 <xTaskResumeAll+0x114>)
    2f8a:	6013      	str	r3, [r2, #0]
    2f8c:	4b36      	ldr	r3, [pc, #216]	; (3068 <xTaskResumeAll+0x114>)
    2f8e:	681b      	ldr	r3, [r3, #0]
    2f90:	2b00      	cmp	r3, #0
    2f92:	d161      	bne.n	3058 <xTaskResumeAll+0x104>
    2f94:	4b35      	ldr	r3, [pc, #212]	; (306c <xTaskResumeAll+0x118>)
    2f96:	681b      	ldr	r3, [r3, #0]
    2f98:	2b00      	cmp	r3, #0
    2f9a:	d05d      	beq.n	3058 <xTaskResumeAll+0x104>
    2f9c:	e02e      	b.n	2ffc <xTaskResumeAll+0xa8>
    2f9e:	4b34      	ldr	r3, [pc, #208]	; (3070 <xTaskResumeAll+0x11c>)
    2fa0:	68db      	ldr	r3, [r3, #12]
    2fa2:	68db      	ldr	r3, [r3, #12]
    2fa4:	60fb      	str	r3, [r7, #12]
    2fa6:	68fb      	ldr	r3, [r7, #12]
    2fa8:	3318      	adds	r3, #24
    2faa:	4618      	mov	r0, r3
    2fac:	f002 f81d 	bl	4fea <uxListRemove>
    2fb0:	68fb      	ldr	r3, [r7, #12]
    2fb2:	3304      	adds	r3, #4
    2fb4:	4618      	mov	r0, r3
    2fb6:	f002 f818 	bl	4fea <uxListRemove>
    2fba:	68fb      	ldr	r3, [r7, #12]
    2fbc:	6adb      	ldr	r3, [r3, #44]	; 0x2c
    2fbe:	2201      	movs	r2, #1
    2fc0:	409a      	lsls	r2, r3
    2fc2:	4b2c      	ldr	r3, [pc, #176]	; (3074 <xTaskResumeAll+0x120>)
    2fc4:	681b      	ldr	r3, [r3, #0]
    2fc6:	4313      	orrs	r3, r2
    2fc8:	4a2a      	ldr	r2, [pc, #168]	; (3074 <xTaskResumeAll+0x120>)
    2fca:	6013      	str	r3, [r2, #0]
    2fcc:	68fb      	ldr	r3, [r7, #12]
    2fce:	6ada      	ldr	r2, [r3, #44]	; 0x2c
    2fd0:	4613      	mov	r3, r2
    2fd2:	009b      	lsls	r3, r3, #2
    2fd4:	4413      	add	r3, r2
    2fd6:	009b      	lsls	r3, r3, #2
    2fd8:	4a27      	ldr	r2, [pc, #156]	; (3078 <xTaskResumeAll+0x124>)
    2fda:	441a      	add	r2, r3
    2fdc:	68fb      	ldr	r3, [r7, #12]
    2fde:	3304      	adds	r3, #4
    2fe0:	4619      	mov	r1, r3
    2fe2:	4610      	mov	r0, r2
    2fe4:	f001 ffa4 	bl	4f30 <vListInsertEnd>
    2fe8:	68fb      	ldr	r3, [r7, #12]
    2fea:	6ada      	ldr	r2, [r3, #44]	; 0x2c
    2fec:	4b23      	ldr	r3, [pc, #140]	; (307c <xTaskResumeAll+0x128>)
    2fee:	681b      	ldr	r3, [r3, #0]
    2ff0:	6adb      	ldr	r3, [r3, #44]	; 0x2c
    2ff2:	429a      	cmp	r2, r3
    2ff4:	d302      	bcc.n	2ffc <xTaskResumeAll+0xa8>
    2ff6:	4b22      	ldr	r3, [pc, #136]	; (3080 <xTaskResumeAll+0x12c>)
    2ff8:	2201      	movs	r2, #1
    2ffa:	601a      	str	r2, [r3, #0]
    2ffc:	4b1c      	ldr	r3, [pc, #112]	; (3070 <xTaskResumeAll+0x11c>)
    2ffe:	681b      	ldr	r3, [r3, #0]
    3000:	2b00      	cmp	r3, #0
    3002:	d1cc      	bne.n	2f9e <xTaskResumeAll+0x4a>
    3004:	68fb      	ldr	r3, [r7, #12]
    3006:	2b00      	cmp	r3, #0
    3008:	d001      	beq.n	300e <xTaskResumeAll+0xba>
    300a:	f000 fb0b 	bl	3624 <prvResetNextTaskUnblockTime>
    300e:	4b1d      	ldr	r3, [pc, #116]	; (3084 <xTaskResumeAll+0x130>)
    3010:	681b      	ldr	r3, [r3, #0]
    3012:	607b      	str	r3, [r7, #4]
    3014:	687b      	ldr	r3, [r7, #4]
    3016:	2b00      	cmp	r3, #0
    3018:	d010      	beq.n	303c <xTaskResumeAll+0xe8>
    301a:	f000 f847 	bl	30ac <xTaskIncrementTick>
    301e:	4603      	mov	r3, r0
    3020:	2b00      	cmp	r3, #0
    3022:	d002      	beq.n	302a <xTaskResumeAll+0xd6>
    3024:	4b16      	ldr	r3, [pc, #88]	; (3080 <xTaskResumeAll+0x12c>)
    3026:	2201      	movs	r2, #1
    3028:	601a      	str	r2, [r3, #0]
    302a:	687b      	ldr	r3, [r7, #4]
    302c:	3b01      	subs	r3, #1
    302e:	607b      	str	r3, [r7, #4]
    3030:	687b      	ldr	r3, [r7, #4]
    3032:	2b00      	cmp	r3, #0
    3034:	d1f1      	bne.n	301a <xTaskResumeAll+0xc6>
    3036:	4b13      	ldr	r3, [pc, #76]	; (3084 <xTaskResumeAll+0x130>)
    3038:	2200      	movs	r2, #0
    303a:	601a      	str	r2, [r3, #0]
    303c:	4b10      	ldr	r3, [pc, #64]	; (3080 <xTaskResumeAll+0x12c>)
    303e:	681b      	ldr	r3, [r3, #0]
    3040:	2b00      	cmp	r3, #0
    3042:	d009      	beq.n	3058 <xTaskResumeAll+0x104>
    3044:	2301      	movs	r3, #1
    3046:	60bb      	str	r3, [r7, #8]
    3048:	4b0f      	ldr	r3, [pc, #60]	; (3088 <xTaskResumeAll+0x134>)
    304a:	f04f 5280 	mov.w	r2, #268435456	; 0x10000000
    304e:	601a      	str	r2, [r3, #0]
    3050:	f3bf 8f4f 	dsb	sy
    3054:	f3bf 8f6f 	isb	sy
    3058:	f7ff fbbe 	bl	27d8 <vPortExitCritical>
    305c:	68bb      	ldr	r3, [r7, #8]
    305e:	4618      	mov	r0, r3
    3060:	3710      	adds	r7, #16
    3062:	46bd      	mov	sp, r7
    3064:	bd80      	pop	{r7, pc}
    3066:	bf00      	nop
    3068:	200029a0 	.word	0x200029a0
    306c:	20002978 	.word	0x20002978
    3070:	20002938 	.word	0x20002938
    3074:	20002980 	.word	0x20002980
    3078:	200028a4 	.word	0x200028a4
    307c:	200028a0 	.word	0x200028a0
    3080:	2000298c 	.word	0x2000298c
    3084:	20002988 	.word	0x20002988
    3088:	e000ed04 	.word	0xe000ed04

0000308c <xTaskGetTickCount>:
    308c:	b480      	push	{r7}
    308e:	b083      	sub	sp, #12
    3090:	af00      	add	r7, sp, #0
    3092:	4b05      	ldr	r3, [pc, #20]	; (30a8 <xTaskGetTickCount+0x1c>)
    3094:	681b      	ldr	r3, [r3, #0]
    3096:	607b      	str	r3, [r7, #4]
    3098:	687b      	ldr	r3, [r7, #4]
    309a:	4618      	mov	r0, r3
    309c:	370c      	adds	r7, #12
    309e:	46bd      	mov	sp, r7
    30a0:	f85d 7b04 	ldr.w	r7, [sp], #4
    30a4:	4770      	bx	lr
    30a6:	bf00      	nop
    30a8:	2000297c 	.word	0x2000297c

000030ac <xTaskIncrementTick>:
    30ac:	b580      	push	{r7, lr}
    30ae:	b086      	sub	sp, #24
    30b0:	af00      	add	r7, sp, #0
    30b2:	2300      	movs	r3, #0
    30b4:	617b      	str	r3, [r7, #20]
    30b6:	4b48      	ldr	r3, [pc, #288]	; (31d8 <xTaskIncrementTick+0x12c>)
    30b8:	681b      	ldr	r3, [r3, #0]
    30ba:	2b00      	cmp	r3, #0
    30bc:	d17c      	bne.n	31b8 <xTaskIncrementTick+0x10c>
    30be:	4b47      	ldr	r3, [pc, #284]	; (31dc <xTaskIncrementTick+0x130>)
    30c0:	681b      	ldr	r3, [r3, #0]
    30c2:	3301      	adds	r3, #1
    30c4:	613b      	str	r3, [r7, #16]
    30c6:	4a45      	ldr	r2, [pc, #276]	; (31dc <xTaskIncrementTick+0x130>)
    30c8:	693b      	ldr	r3, [r7, #16]
    30ca:	6013      	str	r3, [r2, #0]
    30cc:	693b      	ldr	r3, [r7, #16]
    30ce:	2b00      	cmp	r3, #0
    30d0:	d11f      	bne.n	3112 <xTaskIncrementTick+0x66>
    30d2:	4b43      	ldr	r3, [pc, #268]	; (31e0 <xTaskIncrementTick+0x134>)
    30d4:	681b      	ldr	r3, [r3, #0]
    30d6:	681b      	ldr	r3, [r3, #0]
    30d8:	2b00      	cmp	r3, #0
    30da:	d009      	beq.n	30f0 <xTaskIncrementTick+0x44>
    30dc:	f04f 0320 	mov.w	r3, #32
    30e0:	f383 8811 	msr	BASEPRI, r3
    30e4:	f3bf 8f6f 	isb	sy
    30e8:	f3bf 8f4f 	dsb	sy
    30ec:	603b      	str	r3, [r7, #0]
    30ee:	e7fe      	b.n	30ee <xTaskIncrementTick+0x42>
    30f0:	4b3b      	ldr	r3, [pc, #236]	; (31e0 <xTaskIncrementTick+0x134>)
    30f2:	681b      	ldr	r3, [r3, #0]
    30f4:	60fb      	str	r3, [r7, #12]
    30f6:	4b3b      	ldr	r3, [pc, #236]	; (31e4 <xTaskIncrementTick+0x138>)
    30f8:	681b      	ldr	r3, [r3, #0]
    30fa:	4a39      	ldr	r2, [pc, #228]	; (31e0 <xTaskIncrementTick+0x134>)
    30fc:	6013      	str	r3, [r2, #0]
    30fe:	4a39      	ldr	r2, [pc, #228]	; (31e4 <xTaskIncrementTick+0x138>)
    3100:	68fb      	ldr	r3, [r7, #12]
    3102:	6013      	str	r3, [r2, #0]
    3104:	4b38      	ldr	r3, [pc, #224]	; (31e8 <xTaskIncrementTick+0x13c>)
    3106:	681b      	ldr	r3, [r3, #0]
    3108:	3301      	adds	r3, #1
    310a:	4a37      	ldr	r2, [pc, #220]	; (31e8 <xTaskIncrementTick+0x13c>)
    310c:	6013      	str	r3, [r2, #0]
    310e:	f000 fa89 	bl	3624 <prvResetNextTaskUnblockTime>
    3112:	4b36      	ldr	r3, [pc, #216]	; (31ec <xTaskIncrementTick+0x140>)
    3114:	681b      	ldr	r3, [r3, #0]
    3116:	693a      	ldr	r2, [r7, #16]
    3118:	429a      	cmp	r2, r3
    311a:	d352      	bcc.n	31c2 <xTaskIncrementTick+0x116>
    311c:	4b30      	ldr	r3, [pc, #192]	; (31e0 <xTaskIncrementTick+0x134>)
    311e:	681b      	ldr	r3, [r3, #0]
    3120:	681b      	ldr	r3, [r3, #0]
    3122:	2b00      	cmp	r3, #0
    3124:	d101      	bne.n	312a <xTaskIncrementTick+0x7e>
    3126:	2301      	movs	r3, #1
    3128:	e000      	b.n	312c <xTaskIncrementTick+0x80>
    312a:	2300      	movs	r3, #0
    312c:	2b00      	cmp	r3, #0
    312e:	d004      	beq.n	313a <xTaskIncrementTick+0x8e>
    3130:	4b2e      	ldr	r3, [pc, #184]	; (31ec <xTaskIncrementTick+0x140>)
    3132:	f04f 32ff 	mov.w	r2, #4294967295	; 0xffffffff
    3136:	601a      	str	r2, [r3, #0]
    3138:	e043      	b.n	31c2 <xTaskIncrementTick+0x116>
    313a:	4b29      	ldr	r3, [pc, #164]	; (31e0 <xTaskIncrementTick+0x134>)
    313c:	681b      	ldr	r3, [r3, #0]
    313e:	68db      	ldr	r3, [r3, #12]
    3140:	68db      	ldr	r3, [r3, #12]
    3142:	60bb      	str	r3, [r7, #8]
    3144:	68bb      	ldr	r3, [r7, #8]
    3146:	685b      	ldr	r3, [r3, #4]
    3148:	607b      	str	r3, [r7, #4]
    314a:	693a      	ldr	r2, [r7, #16]
    314c:	687b      	ldr	r3, [r7, #4]
    314e:	429a      	cmp	r2, r3
    3150:	d203      	bcs.n	315a <xTaskIncrementTick+0xae>
    3152:	4a26      	ldr	r2, [pc, #152]	; (31ec <xTaskIncrementTick+0x140>)
    3154:	687b      	ldr	r3, [r7, #4]
    3156:	6013      	str	r3, [r2, #0]
    3158:	e033      	b.n	31c2 <xTaskIncrementTick+0x116>
    315a:	68bb      	ldr	r3, [r7, #8]
    315c:	3304      	adds	r3, #4
    315e:	4618      	mov	r0, r3
    3160:	f001 ff43 	bl	4fea <uxListRemove>
    3164:	68bb      	ldr	r3, [r7, #8]
    3166:	6a9b      	ldr	r3, [r3, #40]	; 0x28
    3168:	2b00      	cmp	r3, #0
    316a:	d004      	beq.n	3176 <xTaskIncrementTick+0xca>
    316c:	68bb      	ldr	r3, [r7, #8]
    316e:	3318      	adds	r3, #24
    3170:	4618      	mov	r0, r3
    3172:	f001 ff3a 	bl	4fea <uxListRemove>
    3176:	68bb      	ldr	r3, [r7, #8]
    3178:	6adb      	ldr	r3, [r3, #44]	; 0x2c
    317a:	2201      	movs	r2, #1
    317c:	409a      	lsls	r2, r3
    317e:	4b1c      	ldr	r3, [pc, #112]	; (31f0 <xTaskIncrementTick+0x144>)
    3180:	681b      	ldr	r3, [r3, #0]
    3182:	4313      	orrs	r3, r2
    3184:	4a1a      	ldr	r2, [pc, #104]	; (31f0 <xTaskIncrementTick+0x144>)
    3186:	6013      	str	r3, [r2, #0]
    3188:	68bb      	ldr	r3, [r7, #8]
    318a:	6ada      	ldr	r2, [r3, #44]	; 0x2c
    318c:	4613      	mov	r3, r2
    318e:	009b      	lsls	r3, r3, #2
    3190:	4413      	add	r3, r2
    3192:	009b      	lsls	r3, r3, #2
    3194:	4a17      	ldr	r2, [pc, #92]	; (31f4 <xTaskIncrementTick+0x148>)
    3196:	441a      	add	r2, r3
    3198:	68bb      	ldr	r3, [r7, #8]
    319a:	3304      	adds	r3, #4
    319c:	4619      	mov	r1, r3
    319e:	4610      	mov	r0, r2
    31a0:	f001 fec6 	bl	4f30 <vListInsertEnd>
    31a4:	68bb      	ldr	r3, [r7, #8]
    31a6:	6ada      	ldr	r2, [r3, #44]	; 0x2c
    31a8:	4b13      	ldr	r3, [pc, #76]	; (31f8 <xTaskIncrementTick+0x14c>)
    31aa:	681b      	ldr	r3, [r3, #0]
    31ac:	6adb      	ldr	r3, [r3, #44]	; 0x2c
    31ae:	429a      	cmp	r2, r3
    31b0:	d3b4      	bcc.n	311c <xTaskIncrementTick+0x70>
    31b2:	2301      	movs	r3, #1
    31b4:	617b      	str	r3, [r7, #20]
    31b6:	e7b1      	b.n	311c <xTaskIncrementTick+0x70>
    31b8:	4b10      	ldr	r3, [pc, #64]	; (31fc <xTaskIncrementTick+0x150>)
    31ba:	681b      	ldr	r3, [r3, #0]
    31bc:	3301      	adds	r3, #1
    31be:	4a0f      	ldr	r2, [pc, #60]	; (31fc <xTaskIncrementTick+0x150>)
    31c0:	6013      	str	r3, [r2, #0]
    31c2:	4b0f      	ldr	r3, [pc, #60]	; (3200 <xTaskIncrementTick+0x154>)
    31c4:	681b      	ldr	r3, [r3, #0]
    31c6:	2b00      	cmp	r3, #0
    31c8:	d001      	beq.n	31ce <xTaskIncrementTick+0x122>
    31ca:	2301      	movs	r3, #1
    31cc:	617b      	str	r3, [r7, #20]
    31ce:	697b      	ldr	r3, [r7, #20]
    31d0:	4618      	mov	r0, r3
    31d2:	3718      	adds	r7, #24
    31d4:	46bd      	mov	sp, r7
    31d6:	bd80      	pop	{r7, pc}
    31d8:	200029a0 	.word	0x200029a0
    31dc:	2000297c 	.word	0x2000297c
    31e0:	20002930 	.word	0x20002930
    31e4:	20002934 	.word	0x20002934
    31e8:	20002990 	.word	0x20002990
    31ec:	20002998 	.word	0x20002998
    31f0:	20002980 	.word	0x20002980
    31f4:	200028a4 	.word	0x200028a4
    31f8:	200028a0 	.word	0x200028a0
    31fc:	20002988 	.word	0x20002988
    3200:	2000298c 	.word	0x2000298c

00003204 <vTaskSwitchContext>:
    3204:	b480      	push	{r7}
    3206:	b087      	sub	sp, #28
    3208:	af00      	add	r7, sp, #0
    320a:	4b26      	ldr	r3, [pc, #152]	; (32a4 <vTaskSwitchContext+0xa0>)
    320c:	681b      	ldr	r3, [r3, #0]
    320e:	2b00      	cmp	r3, #0
    3210:	d003      	beq.n	321a <vTaskSwitchContext+0x16>
    3212:	4b25      	ldr	r3, [pc, #148]	; (32a8 <vTaskSwitchContext+0xa4>)
    3214:	2201      	movs	r2, #1
    3216:	601a      	str	r2, [r3, #0]
    3218:	e03e      	b.n	3298 <vTaskSwitchContext+0x94>
    321a:	4b23      	ldr	r3, [pc, #140]	; (32a8 <vTaskSwitchContext+0xa4>)
    321c:	2200      	movs	r2, #0
    321e:	601a      	str	r2, [r3, #0]
    3220:	4b22      	ldr	r3, [pc, #136]	; (32ac <vTaskSwitchContext+0xa8>)
    3222:	681b      	ldr	r3, [r3, #0]
    3224:	60fb      	str	r3, [r7, #12]
    3226:	68fb      	ldr	r3, [r7, #12]
    3228:	fab3 f383 	clz	r3, r3
    322c:	72fb      	strb	r3, [r7, #11]
    322e:	7afb      	ldrb	r3, [r7, #11]
    3230:	f1c3 031f 	rsb	r3, r3, #31
    3234:	617b      	str	r3, [r7, #20]
    3236:	491e      	ldr	r1, [pc, #120]	; (32b0 <vTaskSwitchContext+0xac>)
    3238:	697a      	ldr	r2, [r7, #20]
    323a:	4613      	mov	r3, r2
    323c:	009b      	lsls	r3, r3, #2
    323e:	4413      	add	r3, r2
    3240:	009b      	lsls	r3, r3, #2
    3242:	440b      	add	r3, r1
    3244:	681b      	ldr	r3, [r3, #0]
    3246:	2b00      	cmp	r3, #0
    3248:	d109      	bne.n	325e <vTaskSwitchContext+0x5a>
    324a:	f04f 0320 	mov.w	r3, #32
    324e:	f383 8811 	msr	BASEPRI, r3
    3252:	f3bf 8f6f 	isb	sy
    3256:	f3bf 8f4f 	dsb	sy
    325a:	607b      	str	r3, [r7, #4]
    325c:	e7fe      	b.n	325c <vTaskSwitchContext+0x58>
    325e:	697a      	ldr	r2, [r7, #20]
    3260:	4613      	mov	r3, r2
    3262:	009b      	lsls	r3, r3, #2
    3264:	4413      	add	r3, r2
    3266:	009b      	lsls	r3, r3, #2
    3268:	4a11      	ldr	r2, [pc, #68]	; (32b0 <vTaskSwitchContext+0xac>)
    326a:	4413      	add	r3, r2
    326c:	613b      	str	r3, [r7, #16]
    326e:	693b      	ldr	r3, [r7, #16]
    3270:	685b      	ldr	r3, [r3, #4]
    3272:	685a      	ldr	r2, [r3, #4]
    3274:	693b      	ldr	r3, [r7, #16]
    3276:	605a      	str	r2, [r3, #4]
    3278:	693b      	ldr	r3, [r7, #16]
    327a:	685a      	ldr	r2, [r3, #4]
    327c:	693b      	ldr	r3, [r7, #16]
    327e:	3308      	adds	r3, #8
    3280:	429a      	cmp	r2, r3
    3282:	d104      	bne.n	328e <vTaskSwitchContext+0x8a>
    3284:	693b      	ldr	r3, [r7, #16]
    3286:	685b      	ldr	r3, [r3, #4]
    3288:	685a      	ldr	r2, [r3, #4]
    328a:	693b      	ldr	r3, [r7, #16]
    328c:	605a      	str	r2, [r3, #4]
    328e:	693b      	ldr	r3, [r7, #16]
    3290:	685b      	ldr	r3, [r3, #4]
    3292:	68db      	ldr	r3, [r3, #12]
    3294:	4a07      	ldr	r2, [pc, #28]	; (32b4 <vTaskSwitchContext+0xb0>)
    3296:	6013      	str	r3, [r2, #0]
    3298:	bf00      	nop
    329a:	371c      	adds	r7, #28
    329c:	46bd      	mov	sp, r7
    329e:	f85d 7b04 	ldr.w	r7, [sp], #4
    32a2:	4770      	bx	lr
    32a4:	200029a0 	.word	0x200029a0
    32a8:	2000298c 	.word	0x2000298c
    32ac:	20002980 	.word	0x20002980
    32b0:	200028a4 	.word	0x200028a4
    32b4:	200028a0 	.word	0x200028a0

000032b8 <vTaskPlaceOnEventList>:
    32b8:	b580      	push	{r7, lr}
    32ba:	b084      	sub	sp, #16
    32bc:	af00      	add	r7, sp, #0
    32be:	6078      	str	r0, [r7, #4]
    32c0:	6039      	str	r1, [r7, #0]
    32c2:	687b      	ldr	r3, [r7, #4]
    32c4:	2b00      	cmp	r3, #0
    32c6:	d109      	bne.n	32dc <vTaskPlaceOnEventList+0x24>
    32c8:	f04f 0320 	mov.w	r3, #32
    32cc:	f383 8811 	msr	BASEPRI, r3
    32d0:	f3bf 8f6f 	isb	sy
    32d4:	f3bf 8f4f 	dsb	sy
    32d8:	60fb      	str	r3, [r7, #12]
    32da:	e7fe      	b.n	32da <vTaskPlaceOnEventList+0x22>
    32dc:	4b07      	ldr	r3, [pc, #28]	; (32fc <vTaskPlaceOnEventList+0x44>)
    32de:	681b      	ldr	r3, [r3, #0]
    32e0:	3318      	adds	r3, #24
    32e2:	4619      	mov	r1, r3
    32e4:	6878      	ldr	r0, [r7, #4]
    32e6:	f001 fe47 	bl	4f78 <vListInsert>
    32ea:	2101      	movs	r1, #1
    32ec:	6838      	ldr	r0, [r7, #0]
    32ee:	f000 fa61 	bl	37b4 <prvAddCurrentTaskToDelayedList>
    32f2:	bf00      	nop
    32f4:	3710      	adds	r7, #16
    32f6:	46bd      	mov	sp, r7
    32f8:	bd80      	pop	{r7, pc}
    32fa:	bf00      	nop
    32fc:	200028a0 	.word	0x200028a0

00003300 <vTaskPlaceOnEventListRestricted>:
    3300:	b580      	push	{r7, lr}
    3302:	b086      	sub	sp, #24
    3304:	af00      	add	r7, sp, #0
    3306:	60f8      	str	r0, [r7, #12]
    3308:	60b9      	str	r1, [r7, #8]
    330a:	607a      	str	r2, [r7, #4]
    330c:	68fb      	ldr	r3, [r7, #12]
    330e:	2b00      	cmp	r3, #0
    3310:	d109      	bne.n	3326 <vTaskPlaceOnEventListRestricted+0x26>
    3312:	f04f 0320 	mov.w	r3, #32
    3316:	f383 8811 	msr	BASEPRI, r3
    331a:	f3bf 8f6f 	isb	sy
    331e:	f3bf 8f4f 	dsb	sy
    3322:	617b      	str	r3, [r7, #20]
    3324:	e7fe      	b.n	3324 <vTaskPlaceOnEventListRestricted+0x24>
    3326:	4b0a      	ldr	r3, [pc, #40]	; (3350 <vTaskPlaceOnEventListRestricted+0x50>)
    3328:	681b      	ldr	r3, [r3, #0]
    332a:	3318      	adds	r3, #24
    332c:	4619      	mov	r1, r3
    332e:	68f8      	ldr	r0, [r7, #12]
    3330:	f001 fdfe 	bl	4f30 <vListInsertEnd>
    3334:	687b      	ldr	r3, [r7, #4]
    3336:	2b00      	cmp	r3, #0
    3338:	d002      	beq.n	3340 <vTaskPlaceOnEventListRestricted+0x40>
    333a:	f04f 33ff 	mov.w	r3, #4294967295	; 0xffffffff
    333e:	60bb      	str	r3, [r7, #8]
    3340:	6879      	ldr	r1, [r7, #4]
    3342:	68b8      	ldr	r0, [r7, #8]
    3344:	f000 fa36 	bl	37b4 <prvAddCurrentTaskToDelayedList>
    3348:	bf00      	nop
    334a:	3718      	adds	r7, #24
    334c:	46bd      	mov	sp, r7
    334e:	bd80      	pop	{r7, pc}
    3350:	200028a0 	.word	0x200028a0

00003354 <xTaskRemoveFromEventList>:
    3354:	b580      	push	{r7, lr}
    3356:	b086      	sub	sp, #24
    3358:	af00      	add	r7, sp, #0
    335a:	6078      	str	r0, [r7, #4]
    335c:	687b      	ldr	r3, [r7, #4]
    335e:	68db      	ldr	r3, [r3, #12]
    3360:	68db      	ldr	r3, [r3, #12]
    3362:	613b      	str	r3, [r7, #16]
    3364:	693b      	ldr	r3, [r7, #16]
    3366:	2b00      	cmp	r3, #0
    3368:	d109      	bne.n	337e <xTaskRemoveFromEventList+0x2a>
    336a:	f04f 0320 	mov.w	r3, #32
    336e:	f383 8811 	msr	BASEPRI, r3
    3372:	f3bf 8f6f 	isb	sy
    3376:	f3bf 8f4f 	dsb	sy
    337a:	60fb      	str	r3, [r7, #12]
    337c:	e7fe      	b.n	337c <xTaskRemoveFromEventList+0x28>
    337e:	693b      	ldr	r3, [r7, #16]
    3380:	3318      	adds	r3, #24
    3382:	4618      	mov	r0, r3
    3384:	f001 fe31 	bl	4fea <uxListRemove>
    3388:	4b1d      	ldr	r3, [pc, #116]	; (3400 <xTaskRemoveFromEventList+0xac>)
    338a:	681b      	ldr	r3, [r3, #0]
    338c:	2b00      	cmp	r3, #0
    338e:	d11c      	bne.n	33ca <xTaskRemoveFromEventList+0x76>
    3390:	693b      	ldr	r3, [r7, #16]
    3392:	3304      	adds	r3, #4
    3394:	4618      	mov	r0, r3
    3396:	f001 fe28 	bl	4fea <uxListRemove>
    339a:	693b      	ldr	r3, [r7, #16]
    339c:	6adb      	ldr	r3, [r3, #44]	; 0x2c
    339e:	2201      	movs	r2, #1
    33a0:	409a      	lsls	r2, r3
    33a2:	4b18      	ldr	r3, [pc, #96]	; (3404 <xTaskRemoveFromEventList+0xb0>)
    33a4:	681b      	ldr	r3, [r3, #0]
    33a6:	4313      	orrs	r3, r2
    33a8:	4a16      	ldr	r2, [pc, #88]	; (3404 <xTaskRemoveFromEventList+0xb0>)
    33aa:	6013      	str	r3, [r2, #0]
    33ac:	693b      	ldr	r3, [r7, #16]
    33ae:	6ada      	ldr	r2, [r3, #44]	; 0x2c
    33b0:	4613      	mov	r3, r2
    33b2:	009b      	lsls	r3, r3, #2
    33b4:	4413      	add	r3, r2
    33b6:	009b      	lsls	r3, r3, #2
    33b8:	4a13      	ldr	r2, [pc, #76]	; (3408 <xTaskRemoveFromEventList+0xb4>)
    33ba:	441a      	add	r2, r3
    33bc:	693b      	ldr	r3, [r7, #16]
    33be:	3304      	adds	r3, #4
    33c0:	4619      	mov	r1, r3
    33c2:	4610      	mov	r0, r2
    33c4:	f001 fdb4 	bl	4f30 <vListInsertEnd>
    33c8:	e005      	b.n	33d6 <xTaskRemoveFromEventList+0x82>
    33ca:	693b      	ldr	r3, [r7, #16]
    33cc:	3318      	adds	r3, #24
    33ce:	4619      	mov	r1, r3
    33d0:	480e      	ldr	r0, [pc, #56]	; (340c <xTaskRemoveFromEventList+0xb8>)
    33d2:	f001 fdad 	bl	4f30 <vListInsertEnd>
    33d6:	693b      	ldr	r3, [r7, #16]
    33d8:	6ada      	ldr	r2, [r3, #44]	; 0x2c
    33da:	4b0d      	ldr	r3, [pc, #52]	; (3410 <xTaskRemoveFromEventList+0xbc>)
    33dc:	681b      	ldr	r3, [r3, #0]
    33de:	6adb      	ldr	r3, [r3, #44]	; 0x2c
    33e0:	429a      	cmp	r2, r3
    33e2:	d905      	bls.n	33f0 <xTaskRemoveFromEventList+0x9c>
    33e4:	2301      	movs	r3, #1
    33e6:	617b      	str	r3, [r7, #20]
    33e8:	4b0a      	ldr	r3, [pc, #40]	; (3414 <xTaskRemoveFromEventList+0xc0>)
    33ea:	2201      	movs	r2, #1
    33ec:	601a      	str	r2, [r3, #0]
    33ee:	e001      	b.n	33f4 <xTaskRemoveFromEventList+0xa0>
    33f0:	2300      	movs	r3, #0
    33f2:	617b      	str	r3, [r7, #20]
    33f4:	697b      	ldr	r3, [r7, #20]
    33f6:	4618      	mov	r0, r3
    33f8:	3718      	adds	r7, #24
    33fa:	46bd      	mov	sp, r7
    33fc:	bd80      	pop	{r7, pc}
    33fe:	bf00      	nop
    3400:	200029a0 	.word	0x200029a0
    3404:	20002980 	.word	0x20002980
    3408:	200028a4 	.word	0x200028a4
    340c:	20002938 	.word	0x20002938
    3410:	200028a0 	.word	0x200028a0
    3414:	2000298c 	.word	0x2000298c

00003418 <vTaskInternalSetTimeOutState>:
    3418:	b480      	push	{r7}
    341a:	b083      	sub	sp, #12
    341c:	af00      	add	r7, sp, #0
    341e:	6078      	str	r0, [r7, #4]
    3420:	4b06      	ldr	r3, [pc, #24]	; (343c <vTaskInternalSetTimeOutState+0x24>)
    3422:	681a      	ldr	r2, [r3, #0]
    3424:	687b      	ldr	r3, [r7, #4]
    3426:	601a      	str	r2, [r3, #0]
    3428:	4b05      	ldr	r3, [pc, #20]	; (3440 <vTaskInternalSetTimeOutState+0x28>)
    342a:	681a      	ldr	r2, [r3, #0]
    342c:	687b      	ldr	r3, [r7, #4]
    342e:	605a      	str	r2, [r3, #4]
    3430:	bf00      	nop
    3432:	370c      	adds	r7, #12
    3434:	46bd      	mov	sp, r7
    3436:	f85d 7b04 	ldr.w	r7, [sp], #4
    343a:	4770      	bx	lr
    343c:	20002990 	.word	0x20002990
    3440:	2000297c 	.word	0x2000297c

00003444 <xTaskCheckForTimeOut>:
    3444:	b580      	push	{r7, lr}
    3446:	b088      	sub	sp, #32
    3448:	af00      	add	r7, sp, #0
    344a:	6078      	str	r0, [r7, #4]
    344c:	6039      	str	r1, [r7, #0]
    344e:	687b      	ldr	r3, [r7, #4]
    3450:	2b00      	cmp	r3, #0
    3452:	d109      	bne.n	3468 <xTaskCheckForTimeOut+0x24>
    3454:	f04f 0320 	mov.w	r3, #32
    3458:	f383 8811 	msr	BASEPRI, r3
    345c:	f3bf 8f6f 	isb	sy
    3460:	f3bf 8f4f 	dsb	sy
    3464:	613b      	str	r3, [r7, #16]
    3466:	e7fe      	b.n	3466 <xTaskCheckForTimeOut+0x22>
    3468:	683b      	ldr	r3, [r7, #0]
    346a:	2b00      	cmp	r3, #0
    346c:	d109      	bne.n	3482 <xTaskCheckForTimeOut+0x3e>
    346e:	f04f 0320 	mov.w	r3, #32
    3472:	f383 8811 	msr	BASEPRI, r3
    3476:	f3bf 8f6f 	isb	sy
    347a:	f3bf 8f4f 	dsb	sy
    347e:	60fb      	str	r3, [r7, #12]
    3480:	e7fe      	b.n	3480 <xTaskCheckForTimeOut+0x3c>
    3482:	f7ff f97b 	bl	277c <vPortEnterCritical>
    3486:	4b1d      	ldr	r3, [pc, #116]	; (34fc <xTaskCheckForTimeOut+0xb8>)
    3488:	681b      	ldr	r3, [r3, #0]
    348a:	61bb      	str	r3, [r7, #24]
    348c:	687b      	ldr	r3, [r7, #4]
    348e:	685b      	ldr	r3, [r3, #4]
    3490:	69ba      	ldr	r2, [r7, #24]
    3492:	1ad3      	subs	r3, r2, r3
    3494:	617b      	str	r3, [r7, #20]
    3496:	683b      	ldr	r3, [r7, #0]
    3498:	681b      	ldr	r3, [r3, #0]
    349a:	f1b3 3fff 	cmp.w	r3, #4294967295	; 0xffffffff
    349e:	d102      	bne.n	34a6 <xTaskCheckForTimeOut+0x62>
    34a0:	2300      	movs	r3, #0
    34a2:	61fb      	str	r3, [r7, #28]
    34a4:	e023      	b.n	34ee <xTaskCheckForTimeOut+0xaa>
    34a6:	687b      	ldr	r3, [r7, #4]
    34a8:	681a      	ldr	r2, [r3, #0]
    34aa:	4b15      	ldr	r3, [pc, #84]	; (3500 <xTaskCheckForTimeOut+0xbc>)
    34ac:	681b      	ldr	r3, [r3, #0]
    34ae:	429a      	cmp	r2, r3
    34b0:	d007      	beq.n	34c2 <xTaskCheckForTimeOut+0x7e>
    34b2:	687b      	ldr	r3, [r7, #4]
    34b4:	685b      	ldr	r3, [r3, #4]
    34b6:	69ba      	ldr	r2, [r7, #24]
    34b8:	429a      	cmp	r2, r3
    34ba:	d302      	bcc.n	34c2 <xTaskCheckForTimeOut+0x7e>
    34bc:	2301      	movs	r3, #1
    34be:	61fb      	str	r3, [r7, #28]
    34c0:	e015      	b.n	34ee <xTaskCheckForTimeOut+0xaa>
    34c2:	683b      	ldr	r3, [r7, #0]
    34c4:	681b      	ldr	r3, [r3, #0]
    34c6:	697a      	ldr	r2, [r7, #20]
    34c8:	429a      	cmp	r2, r3
    34ca:	d20b      	bcs.n	34e4 <xTaskCheckForTimeOut+0xa0>
    34cc:	683b      	ldr	r3, [r7, #0]
    34ce:	681a      	ldr	r2, [r3, #0]
    34d0:	697b      	ldr	r3, [r7, #20]
    34d2:	1ad2      	subs	r2, r2, r3
    34d4:	683b      	ldr	r3, [r7, #0]
    34d6:	601a      	str	r2, [r3, #0]
    34d8:	6878      	ldr	r0, [r7, #4]
    34da:	f7ff ff9d 	bl	3418 <vTaskInternalSetTimeOutState>
    34de:	2300      	movs	r3, #0
    34e0:	61fb      	str	r3, [r7, #28]
    34e2:	e004      	b.n	34ee <xTaskCheckForTimeOut+0xaa>
    34e4:	683b      	ldr	r3, [r7, #0]
    34e6:	2200      	movs	r2, #0
    34e8:	601a      	str	r2, [r3, #0]
    34ea:	2301      	movs	r3, #1
    34ec:	61fb      	str	r3, [r7, #28]
    34ee:	f7ff f973 	bl	27d8 <vPortExitCritical>
    34f2:	69fb      	ldr	r3, [r7, #28]
    34f4:	4618      	mov	r0, r3
    34f6:	3720      	adds	r7, #32
    34f8:	46bd      	mov	sp, r7
    34fa:	bd80      	pop	{r7, pc}
    34fc:	2000297c 	.word	0x2000297c
    3500:	20002990 	.word	0x20002990

00003504 <vTaskMissedYield>:
    3504:	b480      	push	{r7}
    3506:	af00      	add	r7, sp, #0
    3508:	4b03      	ldr	r3, [pc, #12]	; (3518 <vTaskMissedYield+0x14>)
    350a:	2201      	movs	r2, #1
    350c:	601a      	str	r2, [r3, #0]
    350e:	bf00      	nop
    3510:	46bd      	mov	sp, r7
    3512:	f85d 7b04 	ldr.w	r7, [sp], #4
    3516:	4770      	bx	lr
    3518:	2000298c 	.word	0x2000298c

0000351c <prvIdleTask>:
    351c:	b580      	push	{r7, lr}
    351e:	b082      	sub	sp, #8
    3520:	af00      	add	r7, sp, #0
    3522:	6078      	str	r0, [r7, #4]
    3524:	f000 f852 	bl	35cc <prvCheckTasksWaitingTermination>
    3528:	4b06      	ldr	r3, [pc, #24]	; (3544 <prvIdleTask+0x28>)
    352a:	681b      	ldr	r3, [r3, #0]
    352c:	2b01      	cmp	r3, #1
    352e:	d9f9      	bls.n	3524 <prvIdleTask+0x8>
    3530:	4b05      	ldr	r3, [pc, #20]	; (3548 <prvIdleTask+0x2c>)
    3532:	f04f 5280 	mov.w	r2, #268435456	; 0x10000000
    3536:	601a      	str	r2, [r3, #0]
    3538:	f3bf 8f4f 	dsb	sy
    353c:	f3bf 8f6f 	isb	sy
    3540:	e7f0      	b.n	3524 <prvIdleTask+0x8>
    3542:	bf00      	nop
    3544:	200028a4 	.word	0x200028a4
    3548:	e000ed04 	.word	0xe000ed04

0000354c <prvInitialiseTaskLists>:
    354c:	b580      	push	{r7, lr}
    354e:	b082      	sub	sp, #8
    3550:	af00      	add	r7, sp, #0
    3552:	2300      	movs	r3, #0
    3554:	607b      	str	r3, [r7, #4]
    3556:	e00c      	b.n	3572 <prvInitialiseTaskLists+0x26>
    3558:	687a      	ldr	r2, [r7, #4]
    355a:	4613      	mov	r3, r2
    355c:	009b      	lsls	r3, r3, #2
    355e:	4413      	add	r3, r2
    3560:	009b      	lsls	r3, r3, #2
    3562:	4a12      	ldr	r2, [pc, #72]	; (35ac <prvInitialiseTaskLists+0x60>)
    3564:	4413      	add	r3, r2
    3566:	4618      	mov	r0, r3
    3568:	f001 fcb5 	bl	4ed6 <vListInitialise>
    356c:	687b      	ldr	r3, [r7, #4]
    356e:	3301      	adds	r3, #1
    3570:	607b      	str	r3, [r7, #4]
    3572:	687b      	ldr	r3, [r7, #4]
    3574:	2b04      	cmp	r3, #4
    3576:	d9ef      	bls.n	3558 <prvInitialiseTaskLists+0xc>
    3578:	480d      	ldr	r0, [pc, #52]	; (35b0 <prvInitialiseTaskLists+0x64>)
    357a:	f001 fcac 	bl	4ed6 <vListInitialise>
    357e:	480d      	ldr	r0, [pc, #52]	; (35b4 <prvInitialiseTaskLists+0x68>)
    3580:	f001 fca9 	bl	4ed6 <vListInitialise>
    3584:	480c      	ldr	r0, [pc, #48]	; (35b8 <prvInitialiseTaskLists+0x6c>)
    3586:	f001 fca6 	bl	4ed6 <vListInitialise>
    358a:	480c      	ldr	r0, [pc, #48]	; (35bc <prvInitialiseTaskLists+0x70>)
    358c:	f001 fca3 	bl	4ed6 <vListInitialise>
    3590:	480b      	ldr	r0, [pc, #44]	; (35c0 <prvInitialiseTaskLists+0x74>)
    3592:	f001 fca0 	bl	4ed6 <vListInitialise>
    3596:	4b0b      	ldr	r3, [pc, #44]	; (35c4 <prvInitialiseTaskLists+0x78>)
    3598:	4a05      	ldr	r2, [pc, #20]	; (35b0 <prvInitialiseTaskLists+0x64>)
    359a:	601a      	str	r2, [r3, #0]
    359c:	4b0a      	ldr	r3, [pc, #40]	; (35c8 <prvInitialiseTaskLists+0x7c>)
    359e:	4a05      	ldr	r2, [pc, #20]	; (35b4 <prvInitialiseTaskLists+0x68>)
    35a0:	601a      	str	r2, [r3, #0]
    35a2:	bf00      	nop
    35a4:	3708      	adds	r7, #8
    35a6:	46bd      	mov	sp, r7
    35a8:	bd80      	pop	{r7, pc}
    35aa:	bf00      	nop
    35ac:	200028a4 	.word	0x200028a4
    35b0:	20002908 	.word	0x20002908
    35b4:	2000291c 	.word	0x2000291c
    35b8:	20002938 	.word	0x20002938
    35bc:	2000294c 	.word	0x2000294c
    35c0:	20002964 	.word	0x20002964
    35c4:	20002930 	.word	0x20002930
    35c8:	20002934 	.word	0x20002934

000035cc <prvCheckTasksWaitingTermination>:
    35cc:	b580      	push	{r7, lr}
    35ce:	b082      	sub	sp, #8
    35d0:	af00      	add	r7, sp, #0
    35d2:	e019      	b.n	3608 <prvCheckTasksWaitingTermination+0x3c>
    35d4:	f7ff f8d2 	bl	277c <vPortEnterCritical>
    35d8:	4b0f      	ldr	r3, [pc, #60]	; (3618 <prvCheckTasksWaitingTermination+0x4c>)
    35da:	68db      	ldr	r3, [r3, #12]
    35dc:	68db      	ldr	r3, [r3, #12]
    35de:	607b      	str	r3, [r7, #4]
    35e0:	687b      	ldr	r3, [r7, #4]
    35e2:	3304      	adds	r3, #4
    35e4:	4618      	mov	r0, r3
    35e6:	f001 fd00 	bl	4fea <uxListRemove>
    35ea:	4b0c      	ldr	r3, [pc, #48]	; (361c <prvCheckTasksWaitingTermination+0x50>)
    35ec:	681b      	ldr	r3, [r3, #0]
    35ee:	3b01      	subs	r3, #1
    35f0:	4a0a      	ldr	r2, [pc, #40]	; (361c <prvCheckTasksWaitingTermination+0x50>)
    35f2:	6013      	str	r3, [r2, #0]
    35f4:	4b0a      	ldr	r3, [pc, #40]	; (3620 <prvCheckTasksWaitingTermination+0x54>)
    35f6:	681b      	ldr	r3, [r3, #0]
    35f8:	3b01      	subs	r3, #1
    35fa:	4a09      	ldr	r2, [pc, #36]	; (3620 <prvCheckTasksWaitingTermination+0x54>)
    35fc:	6013      	str	r3, [r2, #0]
    35fe:	f7ff f8eb 	bl	27d8 <vPortExitCritical>
    3602:	6878      	ldr	r0, [r7, #4]
    3604:	f002 f829 	bl	565a <prvDeleteTCB>
    3608:	4b05      	ldr	r3, [pc, #20]	; (3620 <prvCheckTasksWaitingTermination+0x54>)
    360a:	681b      	ldr	r3, [r3, #0]
    360c:	2b00      	cmp	r3, #0
    360e:	d1e1      	bne.n	35d4 <prvCheckTasksWaitingTermination+0x8>
    3610:	bf00      	nop
    3612:	3708      	adds	r7, #8
    3614:	46bd      	mov	sp, r7
    3616:	bd80      	pop	{r7, pc}
    3618:	2000294c 	.word	0x2000294c
    361c:	20002978 	.word	0x20002978
    3620:	20002960 	.word	0x20002960

00003624 <prvResetNextTaskUnblockTime>:
    3624:	b480      	push	{r7}
    3626:	b083      	sub	sp, #12
    3628:	af00      	add	r7, sp, #0
    362a:	4b0f      	ldr	r3, [pc, #60]	; (3668 <prvResetNextTaskUnblockTime+0x44>)
    362c:	681b      	ldr	r3, [r3, #0]
    362e:	681b      	ldr	r3, [r3, #0]
    3630:	2b00      	cmp	r3, #0
    3632:	d101      	bne.n	3638 <prvResetNextTaskUnblockTime+0x14>
    3634:	2301      	movs	r3, #1
    3636:	e000      	b.n	363a <prvResetNextTaskUnblockTime+0x16>
    3638:	2300      	movs	r3, #0
    363a:	2b00      	cmp	r3, #0
    363c:	d004      	beq.n	3648 <prvResetNextTaskUnblockTime+0x24>
    363e:	4b0b      	ldr	r3, [pc, #44]	; (366c <prvResetNextTaskUnblockTime+0x48>)
    3640:	f04f 32ff 	mov.w	r2, #4294967295	; 0xffffffff
    3644:	601a      	str	r2, [r3, #0]
    3646:	e008      	b.n	365a <prvResetNextTaskUnblockTime+0x36>
    3648:	4b07      	ldr	r3, [pc, #28]	; (3668 <prvResetNextTaskUnblockTime+0x44>)
    364a:	681b      	ldr	r3, [r3, #0]
    364c:	68db      	ldr	r3, [r3, #12]
    364e:	68db      	ldr	r3, [r3, #12]
    3650:	607b      	str	r3, [r7, #4]
    3652:	687b      	ldr	r3, [r7, #4]
    3654:	685b      	ldr	r3, [r3, #4]
    3656:	4a05      	ldr	r2, [pc, #20]	; (366c <prvResetNextTaskUnblockTime+0x48>)
    3658:	6013      	str	r3, [r2, #0]
    365a:	bf00      	nop
    365c:	370c      	adds	r7, #12
    365e:	46bd      	mov	sp, r7
    3660:	f85d 7b04 	ldr.w	r7, [sp], #4
    3664:	4770      	bx	lr
    3666:	bf00      	nop
    3668:	20002930 	.word	0x20002930
    366c:	20002998 	.word	0x20002998

00003670 <xTaskGetSchedulerState>:
    3670:	b480      	push	{r7}
    3672:	b083      	sub	sp, #12
    3674:	af00      	add	r7, sp, #0
    3676:	4b0b      	ldr	r3, [pc, #44]	; (36a4 <xTaskGetSchedulerState+0x34>)
    3678:	681b      	ldr	r3, [r3, #0]
    367a:	2b00      	cmp	r3, #0
    367c:	d102      	bne.n	3684 <xTaskGetSchedulerState+0x14>
    367e:	2301      	movs	r3, #1
    3680:	607b      	str	r3, [r7, #4]
    3682:	e008      	b.n	3696 <xTaskGetSchedulerState+0x26>
    3684:	4b08      	ldr	r3, [pc, #32]	; (36a8 <xTaskGetSchedulerState+0x38>)
    3686:	681b      	ldr	r3, [r3, #0]
    3688:	2b00      	cmp	r3, #0
    368a:	d102      	bne.n	3692 <xTaskGetSchedulerState+0x22>
    368c:	2302      	movs	r3, #2
    368e:	607b      	str	r3, [r7, #4]
    3690:	e001      	b.n	3696 <xTaskGetSchedulerState+0x26>
    3692:	2300      	movs	r3, #0
    3694:	607b      	str	r3, [r7, #4]
    3696:	687b      	ldr	r3, [r7, #4]
    3698:	4618      	mov	r0, r3
    369a:	370c      	adds	r7, #12
    369c:	46bd      	mov	sp, r7
    369e:	f85d 7b04 	ldr.w	r7, [sp], #4
    36a2:	4770      	bx	lr
    36a4:	20002984 	.word	0x20002984
    36a8:	200029a0 	.word	0x200029a0

000036ac <xTaskPriorityDisinherit>:
    36ac:	b580      	push	{r7, lr}
    36ae:	b086      	sub	sp, #24
    36b0:	af00      	add	r7, sp, #0
    36b2:	6078      	str	r0, [r7, #4]
    36b4:	687b      	ldr	r3, [r7, #4]
    36b6:	613b      	str	r3, [r7, #16]
    36b8:	2300      	movs	r3, #0
    36ba:	617b      	str	r3, [r7, #20]
    36bc:	687b      	ldr	r3, [r7, #4]
    36be:	2b00      	cmp	r3, #0
    36c0:	d06c      	beq.n	379c <xTaskPriorityDisinherit+0xf0>
    36c2:	4b39      	ldr	r3, [pc, #228]	; (37a8 <xTaskPriorityDisinherit+0xfc>)
    36c4:	681b      	ldr	r3, [r3, #0]
    36c6:	693a      	ldr	r2, [r7, #16]
    36c8:	429a      	cmp	r2, r3
    36ca:	d009      	beq.n	36e0 <xTaskPriorityDisinherit+0x34>
    36cc:	f04f 0320 	mov.w	r3, #32
    36d0:	f383 8811 	msr	BASEPRI, r3
    36d4:	f3bf 8f6f 	isb	sy
    36d8:	f3bf 8f4f 	dsb	sy
    36dc:	60fb      	str	r3, [r7, #12]
    36de:	e7fe      	b.n	36de <xTaskPriorityDisinherit+0x32>
    36e0:	693b      	ldr	r3, [r7, #16]
    36e2:	6d9b      	ldr	r3, [r3, #88]	; 0x58
    36e4:	2b00      	cmp	r3, #0
    36e6:	d109      	bne.n	36fc <xTaskPriorityDisinherit+0x50>
    36e8:	f04f 0320 	mov.w	r3, #32
    36ec:	f383 8811 	msr	BASEPRI, r3
    36f0:	f3bf 8f6f 	isb	sy
    36f4:	f3bf 8f4f 	dsb	sy
    36f8:	60bb      	str	r3, [r7, #8]
    36fa:	e7fe      	b.n	36fa <xTaskPriorityDisinherit+0x4e>
    36fc:	693b      	ldr	r3, [r7, #16]
    36fe:	6d9b      	ldr	r3, [r3, #88]	; 0x58
    3700:	1e5a      	subs	r2, r3, #1
    3702:	693b      	ldr	r3, [r7, #16]
    3704:	659a      	str	r2, [r3, #88]	; 0x58
    3706:	693b      	ldr	r3, [r7, #16]
    3708:	6ada      	ldr	r2, [r3, #44]	; 0x2c
    370a:	693b      	ldr	r3, [r7, #16]
    370c:	6d5b      	ldr	r3, [r3, #84]	; 0x54
    370e:	429a      	cmp	r2, r3
    3710:	d044      	beq.n	379c <xTaskPriorityDisinherit+0xf0>
    3712:	693b      	ldr	r3, [r7, #16]
    3714:	6d9b      	ldr	r3, [r3, #88]	; 0x58
    3716:	2b00      	cmp	r3, #0
    3718:	d140      	bne.n	379c <xTaskPriorityDisinherit+0xf0>
    371a:	693b      	ldr	r3, [r7, #16]
    371c:	3304      	adds	r3, #4
    371e:	4618      	mov	r0, r3
    3720:	f001 fc63 	bl	4fea <uxListRemove>
    3724:	4603      	mov	r3, r0
    3726:	2b00      	cmp	r3, #0
    3728:	d115      	bne.n	3756 <xTaskPriorityDisinherit+0xaa>
    372a:	693b      	ldr	r3, [r7, #16]
    372c:	6ada      	ldr	r2, [r3, #44]	; 0x2c
    372e:	491f      	ldr	r1, [pc, #124]	; (37ac <xTaskPriorityDisinherit+0x100>)
    3730:	4613      	mov	r3, r2
    3732:	009b      	lsls	r3, r3, #2
    3734:	4413      	add	r3, r2
    3736:	009b      	lsls	r3, r3, #2
    3738:	440b      	add	r3, r1
    373a:	681b      	ldr	r3, [r3, #0]
    373c:	2b00      	cmp	r3, #0
    373e:	d10a      	bne.n	3756 <xTaskPriorityDisinherit+0xaa>
    3740:	693b      	ldr	r3, [r7, #16]
    3742:	6adb      	ldr	r3, [r3, #44]	; 0x2c
    3744:	2201      	movs	r2, #1
    3746:	fa02 f303 	lsl.w	r3, r2, r3
    374a:	43da      	mvns	r2, r3
    374c:	4b18      	ldr	r3, [pc, #96]	; (37b0 <xTaskPriorityDisinherit+0x104>)
    374e:	681b      	ldr	r3, [r3, #0]
    3750:	4013      	ands	r3, r2
    3752:	4a17      	ldr	r2, [pc, #92]	; (37b0 <xTaskPriorityDisinherit+0x104>)
    3754:	6013      	str	r3, [r2, #0]
    3756:	693b      	ldr	r3, [r7, #16]
    3758:	6d5a      	ldr	r2, [r3, #84]	; 0x54
    375a:	693b      	ldr	r3, [r7, #16]
    375c:	62da      	str	r2, [r3, #44]	; 0x2c
    375e:	693b      	ldr	r3, [r7, #16]
    3760:	6adb      	ldr	r3, [r3, #44]	; 0x2c
    3762:	f1c3 0205 	rsb	r2, r3, #5
    3766:	693b      	ldr	r3, [r7, #16]
    3768:	619a      	str	r2, [r3, #24]
    376a:	693b      	ldr	r3, [r7, #16]
    376c:	6adb      	ldr	r3, [r3, #44]	; 0x2c
    376e:	2201      	movs	r2, #1
    3770:	409a      	lsls	r2, r3
    3772:	4b0f      	ldr	r3, [pc, #60]	; (37b0 <xTaskPriorityDisinherit+0x104>)
    3774:	681b      	ldr	r3, [r3, #0]
    3776:	4313      	orrs	r3, r2
    3778:	4a0d      	ldr	r2, [pc, #52]	; (37b0 <xTaskPriorityDisinherit+0x104>)
    377a:	6013      	str	r3, [r2, #0]
    377c:	693b      	ldr	r3, [r7, #16]
    377e:	6ada      	ldr	r2, [r3, #44]	; 0x2c
    3780:	4613      	mov	r3, r2
    3782:	009b      	lsls	r3, r3, #2
    3784:	4413      	add	r3, r2
    3786:	009b      	lsls	r3, r3, #2
    3788:	4a08      	ldr	r2, [pc, #32]	; (37ac <xTaskPriorityDisinherit+0x100>)
    378a:	441a      	add	r2, r3
    378c:	693b      	ldr	r3, [r7, #16]
    378e:	3304      	adds	r3, #4
    3790:	4619      	mov	r1, r3
    3792:	4610      	mov	r0, r2
    3794:	f001 fbcc 	bl	4f30 <vListInsertEnd>
    3798:	2301      	movs	r3, #1
    379a:	617b      	str	r3, [r7, #20]
    379c:	697b      	ldr	r3, [r7, #20]
    379e:	4618      	mov	r0, r3
    37a0:	3718      	adds	r7, #24
    37a2:	46bd      	mov	sp, r7
    37a4:	bd80      	pop	{r7, pc}
    37a6:	bf00      	nop
    37a8:	200028a0 	.word	0x200028a0
    37ac:	200028a4 	.word	0x200028a4
    37b0:	20002980 	.word	0x20002980

000037b4 <prvAddCurrentTaskToDelayedList>:
    37b4:	b580      	push	{r7, lr}
    37b6:	b084      	sub	sp, #16
    37b8:	af00      	add	r7, sp, #0
    37ba:	6078      	str	r0, [r7, #4]
    37bc:	6039      	str	r1, [r7, #0]
    37be:	4b29      	ldr	r3, [pc, #164]	; (3864 <prvAddCurrentTaskToDelayedList+0xb0>)
    37c0:	681b      	ldr	r3, [r3, #0]
    37c2:	60fb      	str	r3, [r7, #12]
    37c4:	4b28      	ldr	r3, [pc, #160]	; (3868 <prvAddCurrentTaskToDelayedList+0xb4>)
    37c6:	681b      	ldr	r3, [r3, #0]
    37c8:	3304      	adds	r3, #4
    37ca:	4618      	mov	r0, r3
    37cc:	f001 fc0d 	bl	4fea <uxListRemove>
    37d0:	4603      	mov	r3, r0
    37d2:	2b00      	cmp	r3, #0
    37d4:	d10b      	bne.n	37ee <prvAddCurrentTaskToDelayedList+0x3a>
    37d6:	4b24      	ldr	r3, [pc, #144]	; (3868 <prvAddCurrentTaskToDelayedList+0xb4>)
    37d8:	681b      	ldr	r3, [r3, #0]
    37da:	6adb      	ldr	r3, [r3, #44]	; 0x2c
    37dc:	2201      	movs	r2, #1
    37de:	fa02 f303 	lsl.w	r3, r2, r3
    37e2:	43da      	mvns	r2, r3
    37e4:	4b21      	ldr	r3, [pc, #132]	; (386c <prvAddCurrentTaskToDelayedList+0xb8>)
    37e6:	681b      	ldr	r3, [r3, #0]
    37e8:	4013      	ands	r3, r2
    37ea:	4a20      	ldr	r2, [pc, #128]	; (386c <prvAddCurrentTaskToDelayedList+0xb8>)
    37ec:	6013      	str	r3, [r2, #0]
    37ee:	687b      	ldr	r3, [r7, #4]
    37f0:	f1b3 3fff 	cmp.w	r3, #4294967295	; 0xffffffff
    37f4:	d10a      	bne.n	380c <prvAddCurrentTaskToDelayedList+0x58>
    37f6:	683b      	ldr	r3, [r7, #0]
    37f8:	2b00      	cmp	r3, #0
    37fa:	d007      	beq.n	380c <prvAddCurrentTaskToDelayedList+0x58>
    37fc:	4b1a      	ldr	r3, [pc, #104]	; (3868 <prvAddCurrentTaskToDelayedList+0xb4>)
    37fe:	681b      	ldr	r3, [r3, #0]
    3800:	3304      	adds	r3, #4
    3802:	4619      	mov	r1, r3
    3804:	481a      	ldr	r0, [pc, #104]	; (3870 <prvAddCurrentTaskToDelayedList+0xbc>)
    3806:	f001 fb93 	bl	4f30 <vListInsertEnd>
    380a:	e026      	b.n	385a <prvAddCurrentTaskToDelayedList+0xa6>
    380c:	68fa      	ldr	r2, [r7, #12]
    380e:	687b      	ldr	r3, [r7, #4]
    3810:	4413      	add	r3, r2
    3812:	60bb      	str	r3, [r7, #8]
    3814:	4b14      	ldr	r3, [pc, #80]	; (3868 <prvAddCurrentTaskToDelayedList+0xb4>)
    3816:	681b      	ldr	r3, [r3, #0]
    3818:	68ba      	ldr	r2, [r7, #8]
    381a:	605a      	str	r2, [r3, #4]
    381c:	68ba      	ldr	r2, [r7, #8]
    381e:	68fb      	ldr	r3, [r7, #12]
    3820:	429a      	cmp	r2, r3
    3822:	d209      	bcs.n	3838 <prvAddCurrentTaskToDelayedList+0x84>
    3824:	4b13      	ldr	r3, [pc, #76]	; (3874 <prvAddCurrentTaskToDelayedList+0xc0>)
    3826:	681a      	ldr	r2, [r3, #0]
    3828:	4b0f      	ldr	r3, [pc, #60]	; (3868 <prvAddCurrentTaskToDelayedList+0xb4>)
    382a:	681b      	ldr	r3, [r3, #0]
    382c:	3304      	adds	r3, #4
    382e:	4619      	mov	r1, r3
    3830:	4610      	mov	r0, r2
    3832:	f001 fba1 	bl	4f78 <vListInsert>
    3836:	e010      	b.n	385a <prvAddCurrentTaskToDelayedList+0xa6>
    3838:	4b0f      	ldr	r3, [pc, #60]	; (3878 <prvAddCurrentTaskToDelayedList+0xc4>)
    383a:	681a      	ldr	r2, [r3, #0]
    383c:	4b0a      	ldr	r3, [pc, #40]	; (3868 <prvAddCurrentTaskToDelayedList+0xb4>)
    383e:	681b      	ldr	r3, [r3, #0]
    3840:	3304      	adds	r3, #4
    3842:	4619      	mov	r1, r3
    3844:	4610      	mov	r0, r2
    3846:	f001 fb97 	bl	4f78 <vListInsert>
    384a:	4b0c      	ldr	r3, [pc, #48]	; (387c <prvAddCurrentTaskToDelayedList+0xc8>)
    384c:	681b      	ldr	r3, [r3, #0]
    384e:	68ba      	ldr	r2, [r7, #8]
    3850:	429a      	cmp	r2, r3
    3852:	d202      	bcs.n	385a <prvAddCurrentTaskToDelayedList+0xa6>
    3854:	4a09      	ldr	r2, [pc, #36]	; (387c <prvAddCurrentTaskToDelayedList+0xc8>)
    3856:	68bb      	ldr	r3, [r7, #8]
    3858:	6013      	str	r3, [r2, #0]
    385a:	bf00      	nop
    385c:	3710      	adds	r7, #16
    385e:	46bd      	mov	sp, r7
    3860:	bd80      	pop	{r7, pc}
    3862:	bf00      	nop
    3864:	2000297c 	.word	0x2000297c
    3868:	200028a0 	.word	0x200028a0
    386c:	20002980 	.word	0x20002980
    3870:	20002964 	.word	0x20002964
    3874:	20002934 	.word	0x20002934
    3878:	20002930 	.word	0x20002930
    387c:	20002998 	.word	0x20002998

00003880 <xTimerCreateTimerTask>:
    3880:	b580      	push	{r7, lr}
    3882:	b084      	sub	sp, #16
    3884:	af02      	add	r7, sp, #8
    3886:	2300      	movs	r3, #0
    3888:	607b      	str	r3, [r7, #4]
    388a:	f000 fa93 	bl	3db4 <prvCheckForValidListAndQueue>
    388e:	4b10      	ldr	r3, [pc, #64]	; (38d0 <xTimerCreateTimerTask+0x50>)
    3890:	681b      	ldr	r3, [r3, #0]
    3892:	2b00      	cmp	r3, #0
    3894:	d00a      	beq.n	38ac <xTimerCreateTimerTask+0x2c>
    3896:	4b0f      	ldr	r3, [pc, #60]	; (38d4 <xTimerCreateTimerTask+0x54>)
    3898:	9301      	str	r3, [sp, #4]
    389a:	2304      	movs	r3, #4
    389c:	9300      	str	r3, [sp, #0]
    389e:	2300      	movs	r3, #0
    38a0:	22b4      	movs	r2, #180	; 0xb4
    38a2:	490d      	ldr	r1, [pc, #52]	; (38d8 <xTimerCreateTimerTask+0x58>)
    38a4:	480d      	ldr	r0, [pc, #52]	; (38dc <xTimerCreateTimerTask+0x5c>)
    38a6:	f001 fdfe 	bl	54a6 <xTaskCreate>
    38aa:	6078      	str	r0, [r7, #4]
    38ac:	687b      	ldr	r3, [r7, #4]
    38ae:	2b00      	cmp	r3, #0
    38b0:	d109      	bne.n	38c6 <xTimerCreateTimerTask+0x46>
    38b2:	f04f 0320 	mov.w	r3, #32
    38b6:	f383 8811 	msr	BASEPRI, r3
    38ba:	f3bf 8f6f 	isb	sy
